
Hotplate.elf:     file format elf32-avr

Sections:
Idx Name          Size      VMA       LMA       File off  Algn
  0 .text         00007670  00000000  00000000  00000054  2**1
                  CONTENTS, ALLOC, LOAD, READONLY, CODE
  1 .data         00000000  00800060  00800060  000076c4  2**0
                  CONTENTS, ALLOC, LOAD, DATA
  2 .comment      00000030  00000000  00000000  000076c4  2**0
                  CONTENTS, READONLY
  3 .note.gnu.avr.deviceinfo 0000003c  00000000  00000000  000076f4  2**2
                  CONTENTS, READONLY
  4 .debug_aranges 00000020  00000000  00000000  00007730  2**0
                  CONTENTS, READONLY, DEBUGGING
  5 .debug_info   00013a7c  00000000  00000000  00007750  2**0
                  CONTENTS, READONLY, DEBUGGING
  6 .debug_abbrev 000005c5  00000000  00000000  0001b1cc  2**0
                  CONTENTS, READONLY, DEBUGGING
  7 .debug_line   00009057  00000000  00000000  0001b791  2**0
                  CONTENTS, READONLY, DEBUGGING
  8 .debug_frame  0000002c  00000000  00000000  000247e8  2**2
                  CONTENTS, READONLY, DEBUGGING
  9 .debug_str    00000372  00000000  00000000  00024814  2**0
                  CONTENTS, READONLY, DEBUGGING
 10 .debug_loc    00019342  00000000  00000000  00024b86  2**0
                  CONTENTS, READONLY, DEBUGGING
 11 .debug_ranges 00000010  00000000  00000000  0003dec8  2**0
                  CONTENTS, READONLY, DEBUGGING

Disassembly of section .text:

00000000 <__vectors>:
       0:	0c 94 7b 00 	jmp	0xf6	; 0xf6 <__ctors_end>
       4:	0c 94 85 00 	jmp	0x10a	; 0x10a <__bad_interrupt>
       8:	0c 94 85 00 	jmp	0x10a	; 0x10a <__bad_interrupt>
       c:	0c 94 85 00 	jmp	0x10a	; 0x10a <__bad_interrupt>
      10:	0c 94 85 00 	jmp	0x10a	; 0x10a <__bad_interrupt>
      14:	0c 94 85 00 	jmp	0x10a	; 0x10a <__bad_interrupt>
      18:	0c 94 85 00 	jmp	0x10a	; 0x10a <__bad_interrupt>
      1c:	0c 94 85 00 	jmp	0x10a	; 0x10a <__bad_interrupt>
      20:	0c 94 85 00 	jmp	0x10a	; 0x10a <__bad_interrupt>
      24:	0c 94 85 00 	jmp	0x10a	; 0x10a <__bad_interrupt>
      28:	0c 94 85 00 	jmp	0x10a	; 0x10a <__bad_interrupt>
      2c:	0c 94 85 00 	jmp	0x10a	; 0x10a <__bad_interrupt>
      30:	0c 94 85 00 	jmp	0x10a	; 0x10a <__bad_interrupt>
      34:	0c 94 85 00 	jmp	0x10a	; 0x10a <__bad_interrupt>
      38:	0c 94 85 00 	jmp	0x10a	; 0x10a <__bad_interrupt>
      3c:	0c 94 85 00 	jmp	0x10a	; 0x10a <__bad_interrupt>
      40:	0c 94 85 00 	jmp	0x10a	; 0x10a <__bad_interrupt>
      44:	0c 94 85 00 	jmp	0x10a	; 0x10a <__bad_interrupt>
      48:	0c 94 85 00 	jmp	0x10a	; 0x10a <__bad_interrupt>
      4c:	0c 94 85 00 	jmp	0x10a	; 0x10a <__bad_interrupt>
      50:	0c 94 85 00 	jmp	0x10a	; 0x10a <__bad_interrupt>
      54:	75 27       	eor	r23, r21
      56:	2c 28       	or	r2, r12
      58:	e3 28       	or	r14, r3
      5a:	9a 29       	or	r25, r10
      5c:	51 2a       	or	r5, r17
      5e:	08 2b       	or	r16, r24
      60:	bf 2b       	or	r27, r31
      62:	76 2c       	mov	r7, r6
      64:	2d 2d       	mov	r18, r13
      66:	06 21       	and	r16, r6
      68:	bd 21       	and	r27, r13
      6a:	74 22       	and	r7, r20
      6c:	2b 23       	and	r18, r27
      6e:	e2 23       	and	r30, r18
      70:	99 24       	eor	r9, r9
      72:	50 25       	eor	r21, r0
      74:	07 26       	eor	r0, r23
      76:	be 26       	eor	r11, r30
      78:	97 1a       	sub	r9, r23
      7a:	4e 1b       	sub	r20, r30
      7c:	05 1c       	adc	r0, r5
      7e:	bc 1c       	adc	r11, r12
      80:	73 1d       	adc	r23, r3
      82:	2a 1e       	adc	r2, r26
      84:	e1 1e       	adc	r14, r17
      86:	98 1f       	adc	r25, r24
      88:	4f 20       	and	r4, r15
      8a:	28 14       	cp	r2, r8
      8c:	df 14       	cp	r13, r15
      8e:	96 15       	cp	r25, r6
      90:	4d 16       	cp	r4, r29
      92:	04 17       	cp	r16, r20
      94:	bb 17       	cp	r27, r27
      96:	72 18       	sub	r7, r2
      98:	29 19       	sub	r18, r9
      9a:	e0 19       	sub	r30, r0
      9c:	b9 0d       	add	r27, r9
      9e:	70 0e       	add	r7, r16
      a0:	27 0f       	add	r18, r23
      a2:	de 0f       	add	r29, r30
      a4:	95 10       	cpse	r9, r5
      a6:	4c 11       	cpse	r20, r12
      a8:	03 12       	cpse	r0, r19
      aa:	ba 12       	cpse	r11, r26
      ac:	71 13       	cpse	r23, r17
      ae:	51 34       	cpi	r21, 0x41	; 65
      b0:	07 35       	cpi	r16, 0x57	; 87
      b2:	bd 35       	cpi	r27, 0x5D	; 93
      b4:	73 36       	cpi	r23, 0x63	; 99
      b6:	29 37       	cpi	r18, 0x79	; 121
      b8:	df 37       	cpi	r29, 0x7F	; 127
      ba:	95 38       	cpi	r25, 0x85	; 133
      bc:	4b 39       	cpi	r20, 0x9B	; 155
      be:	01 3a       	cpi	r16, 0xA1	; 161
      c0:	4a 07       	cpc	r20, r26
      c2:	01 08       	sbc	r0, r1
      c4:	b8 08       	sbc	r11, r8
      c6:	6f 09       	sbc	r22, r15
      c8:	26 0a       	sbc	r2, r22
      ca:	dd 0a       	sbc	r13, r29
      cc:	94 0b       	sbc	r25, r20
      ce:	4b 0c       	add	r4, r11
      d0:	02 0d       	add	r16, r2
      d2:	e4 2d       	mov	r30, r4
      d4:	9b 2e       	mov	r9, r27
      d6:	52 2f       	mov	r21, r18
      d8:	09 30       	cpi	r16, 0x09	; 9
      da:	c0 30       	cpi	r28, 0x00	; 0
      dc:	77 31       	cpi	r23, 0x17	; 23
      de:	2e 32       	cpi	r18, 0x2E	; 46
      e0:	e5 32       	cpi	r30, 0x25	; 37
      e2:	9b 33       	cpi	r25, 0x3B	; 59
      e4:	db 00       	.word	0x00db	; ????
      e6:	92 01       	movw	r18, r4
      e8:	49 02       	muls	r20, r25
      ea:	00 03       	mulsu	r16, r16
      ec:	b7 03       	fmuls	r19, r23
      ee:	6e 04       	cpc	r6, r14
      f0:	25 05       	cpc	r18, r5
      f2:	dc 05       	cpc	r29, r12
      f4:	93 06       	cpc	r9, r19

000000f6 <__ctors_end>:
      f6:	11 24       	eor	r1, r1
      f8:	1f be       	out	0x3f, r1	; 63
      fa:	cf e5       	ldi	r28, 0x5F	; 95
      fc:	d8 e0       	ldi	r29, 0x08	; 8
      fe:	de bf       	out	0x3e, r29	; 62
     100:	cd bf       	out	0x3d, r28	; 61
     102:	0e 94 87 00 	call	0x10e	; 0x10e <main>
     106:	0c 94 36 3b 	jmp	0x766c	; 0x766c <_exit>

0000010a <__bad_interrupt>:
     10a:	0c 94 00 00 	jmp	0	; 0x0 <__vectors>

0000010e <main>:
#include <util/delay.h> // delay library
#include <avr/interrupt.h>
#include <stdlib.h>

int main(void) //main starts
{
     10e:	cf 93       	push	r28
	DDRD = 0x0F;
     110:	8f e0       	ldi	r24, 0x0F	; 15
     112:	81 bb       	out	0x11, r24	; 17
	DDRA = 0x00;
     114:	1a ba       	out	0x1a, r1	; 26
	DDRC = 0xFF;
     116:	8f ef       	ldi	r24, 0xFF	; 255
     118:	84 bb       	out	0x14, r24	; 20
	DDRB = 0xFF;
     11a:	87 bb       	out	0x17, r24	; 23
	
	//getting curry number and number of person as bitwise
	int curryNum = 0, personNum = 0;
	while (personNum == 0)
	{
		if (PINA & (1 << 0))
     11c:	c8 9b       	sbis	0x19, 0	; 25
     11e:	14 c0       	rjmp	.+40     	; 0x148 <main+0x3a>
		{
			if (PINA & (1 << 1))
     120:	c9 9b       	sbis	0x19, 1	; 25
     122:	07 c0       	rjmp	.+14     	; 0x132 <main+0x24>
			{
				if (PINA & (1 << 2))
     124:	ca 9b       	sbis	0x19, 2	; 25
     126:	02 c0       	rjmp	.+4      	; 0x12c <main+0x1e>
     128:	0c 94 b7 3a 	jmp	0x756e	; 0x756e <__stack+0x6d0f>
				{
					personNum = 7;
				}
				else
				{
					personNum = 3;
     12c:	e3 e0       	ldi	r30, 0x03	; 3
     12e:	f0 e0       	ldi	r31, 0x00	; 0
     130:	1d c0       	rjmp	.+58     	; 0x16c <main+0x5e>
				}
			}
			else if (PINA & (1 << 2))
     132:	ca 9b       	sbis	0x19, 2	; 25
     134:	02 c0       	rjmp	.+4      	; 0x13a <main+0x2c>
     136:	0c 94 bb 3a 	jmp	0x7576	; 0x7576 <__stack+0x6d17>
			{
				personNum = 5;
			}
			else if (PINA & (1 << 3))
     13a:	cb 9b       	sbis	0x19, 3	; 25
     13c:	02 c0       	rjmp	.+4      	; 0x142 <main+0x34>
     13e:	0c 94 bf 3a 	jmp	0x757e	; 0x757e <__stack+0x6d1f>
			{
				personNum = 9;
			}
			else
			{
				personNum = 1;
     142:	e1 e0       	ldi	r30, 0x01	; 1
     144:	f0 e0       	ldi	r31, 0x00	; 0
     146:	12 c0       	rjmp	.+36     	; 0x16c <main+0x5e>
			}
		}
		else if (PINA & (1 << 1))
     148:	c9 9b       	sbis	0x19, 1	; 25
     14a:	07 c0       	rjmp	.+14     	; 0x15a <main+0x4c>
		{
			if (PINA & (1 << 2))
     14c:	ca 9b       	sbis	0x19, 2	; 25
     14e:	02 c0       	rjmp	.+4      	; 0x154 <main+0x46>
     150:	0c 94 c3 3a 	jmp	0x7586	; 0x7586 <__stack+0x6d27>
			{
				personNum = 6;
			}
			else
			{
				personNum = 2;
     154:	e2 e0       	ldi	r30, 0x02	; 2
     156:	f0 e0       	ldi	r31, 0x00	; 0
     158:	09 c0       	rjmp	.+18     	; 0x16c <main+0x5e>
			}
		}
		else if (PINA & (1 << 3))
     15a:	cb 9b       	sbis	0x19, 3	; 25
     15c:	02 c0       	rjmp	.+4      	; 0x162 <main+0x54>
     15e:	0c 94 c7 3a 	jmp	0x758e	; 0x758e <__stack+0x6d2f>
		{
			personNum = 8;
		}
		else if (PINA & (1 << 2))
     162:	ca 9b       	sbis	0x19, 2	; 25
     164:	02 c0       	rjmp	.+4      	; 0x16a <main+0x5c>
     166:	0c 94 cb 3a 	jmp	0x7596	; 0x7596 <__stack+0x6d37>
     16a:	d8 cf       	rjmp	.-80     	; 0x11c <main+0xe>
			personNum = 4;
		}
	}
	while (curryNum == 0)
	{
		if (PINA & (1 << 4))
     16c:	cc 9b       	sbis	0x19, 4	; 25
     16e:	12 c0       	rjmp	.+36     	; 0x194 <main+0x86>
		{
			if (PINA & (1 << 5))
     170:	cd 9b       	sbis	0x19, 5	; 25
     172:	06 c0       	rjmp	.+12     	; 0x180 <main+0x72>
			{
				if (PINA & (1 << 6))
     174:	ce 9b       	sbis	0x19, 6	; 25
     176:	02 c0       	rjmp	.+4      	; 0x17c <main+0x6e>
     178:	0c 94 cf 3a 	jmp	0x759e	; 0x759e <__stack+0x6d3f>
     17c:	0c 94 fa 3a 	jmp	0x75f4	; 0x75f4 <__stack+0x6d95>
				else
				{
					curryNum = 3;
				}
			}
			else if (PINA & (1 << 6))
     180:	ce 9b       	sbis	0x19, 6	; 25
     182:	02 c0       	rjmp	.+4      	; 0x188 <main+0x7a>
     184:	0c 94 e5 3a 	jmp	0x75ca	; 0x75ca <__stack+0x6d6b>
			{
				curryNum = 5;
			}
			else if (PINA & (1 << 7))
     188:	cf 99       	sbic	0x19, 7	; 25
     18a:	02 c0       	rjmp	.+4      	; 0x190 <main+0x82>
     18c:	0c 94 22 3b 	jmp	0x7644	; 0x7644 <__stack+0x6de5>
     190:	0c 94 04 3b 	jmp	0x7608	; 0x7608 <__stack+0x6da9>
			else
			{
				curryNum = 1;
			}
		}
		else if (PINA & (1 << 5))
     194:	cd 9b       	sbis	0x19, 5	; 25
     196:	06 c0       	rjmp	.+12     	; 0x1a4 <main+0x96>
		{
			if (PINA & (1 << 6))
     198:	ce 9b       	sbis	0x19, 6	; 25
     19a:	02 c0       	rjmp	.+4      	; 0x1a0 <main+0x92>
     19c:	0c 94 da 3a 	jmp	0x75b4	; 0x75b4 <__stack+0x6d55>
     1a0:	0c 94 0e 3b 	jmp	0x761c	; 0x761c <__stack+0x6dbd>
			else
			{
				curryNum = 2;
			}
		}
		else if (PINA & (1 << 7))
     1a4:	cf 9b       	sbis	0x19, 7	; 25
     1a6:	02 c0       	rjmp	.+4      	; 0x1ac <main+0x9e>
     1a8:	0c 94 18 3b 	jmp	0x7630	; 0x7630 <__stack+0x6dd1>
		{
			curryNum = 8;
		}
		else if (PINA & (1 << 6))
     1ac:	ce 9b       	sbis	0x19, 6	; 25
     1ae:	02 c0       	rjmp	.+4      	; 0x1b4 <main+0xa6>
     1b0:	0c 94 f0 3a 	jmp	0x75e0	; 0x75e0 <__stack+0x6d81>
     1b4:	db cf       	rjmp	.-74     	; 0x16c <main+0x5e>
	int period = 100; /* Set period in between two steps */
    PORTC =0x01;
	switch (curryNum)
	{
		case 1:
		switch (personNum)
     1b6:	8c e0       	ldi	r24, 0x0C	; 12
     1b8:	90 e0       	ldi	r25, 0x00	; 0
			case 1:
			{
				/* Rotate Stepper Motor clockwise with Half step sequence */
				for (int i = 0; i < 12; i++)
				{
					PORTD = 0x09;
     1ba:	f9 e0       	ldi	r31, 0x09	; 9
					_delay_ms(period);
					PORTD = 0x08;
     1bc:	e8 e0       	ldi	r30, 0x08	; 8
					_delay_ms(period);
					PORTD = 0x0C;
     1be:	7c e0       	ldi	r23, 0x0C	; 12
					_delay_ms(period);
					PORTD = 0x04;
     1c0:	64 e0       	ldi	r22, 0x04	; 4
					_delay_ms(period);
					PORTD = 0x06;
     1c2:	56 e0       	ldi	r21, 0x06	; 6
					_delay_ms(period);
					PORTD = 0x02;
     1c4:	42 e0       	ldi	r20, 0x02	; 2
					_delay_ms(period);
					PORTD = 0x03;
     1c6:	33 e0       	ldi	r19, 0x03	; 3
					_delay_ms(period);
					PORTD = 0x01;
     1c8:	21 e0       	ldi	r18, 0x01	; 1
			case 1:
			{
				/* Rotate Stepper Motor clockwise with Half step sequence */
				for (int i = 0; i < 12; i++)
				{
					PORTD = 0x09;
     1ca:	f2 bb       	out	0x12, r31	; 18
	#else
		//round up by default
		__ticks_dc = (uint32_t)(ceil(fabs(__tmp)));
	#endif

	__builtin_avr_delay_cycles(__ticks_dc);
     1cc:	af ef       	ldi	r26, 0xFF	; 255
     1ce:	b1 ee       	ldi	r27, 0xE1	; 225
     1d0:	c4 e0       	ldi	r28, 0x04	; 4
     1d2:	a1 50       	subi	r26, 0x01	; 1
     1d4:	b0 40       	sbci	r27, 0x00	; 0
     1d6:	c0 40       	sbci	r28, 0x00	; 0
     1d8:	e1 f7       	brne	.-8      	; 0x1d2 <main+0xc4>
     1da:	00 c0       	rjmp	.+0      	; 0x1dc <main+0xce>
     1dc:	00 00       	nop
					_delay_ms(period);
					PORTD = 0x08;
     1de:	e2 bb       	out	0x12, r30	; 18
     1e0:	af ef       	ldi	r26, 0xFF	; 255
     1e2:	b1 ee       	ldi	r27, 0xE1	; 225
     1e4:	c4 e0       	ldi	r28, 0x04	; 4
     1e6:	a1 50       	subi	r26, 0x01	; 1
     1e8:	b0 40       	sbci	r27, 0x00	; 0
     1ea:	c0 40       	sbci	r28, 0x00	; 0
     1ec:	e1 f7       	brne	.-8      	; 0x1e6 <main+0xd8>
     1ee:	00 c0       	rjmp	.+0      	; 0x1f0 <main+0xe2>
     1f0:	00 00       	nop
					_delay_ms(period);
					PORTD = 0x0C;
     1f2:	72 bb       	out	0x12, r23	; 18
     1f4:	af ef       	ldi	r26, 0xFF	; 255
     1f6:	b1 ee       	ldi	r27, 0xE1	; 225
     1f8:	c4 e0       	ldi	r28, 0x04	; 4
     1fa:	a1 50       	subi	r26, 0x01	; 1
     1fc:	b0 40       	sbci	r27, 0x00	; 0
     1fe:	c0 40       	sbci	r28, 0x00	; 0
     200:	e1 f7       	brne	.-8      	; 0x1fa <main+0xec>
     202:	00 c0       	rjmp	.+0      	; 0x204 <main+0xf6>
     204:	00 00       	nop
					_delay_ms(period);
					PORTD = 0x04;
     206:	62 bb       	out	0x12, r22	; 18
     208:	af ef       	ldi	r26, 0xFF	; 255
     20a:	b1 ee       	ldi	r27, 0xE1	; 225
     20c:	c4 e0       	ldi	r28, 0x04	; 4
     20e:	a1 50       	subi	r26, 0x01	; 1
     210:	b0 40       	sbci	r27, 0x00	; 0
     212:	c0 40       	sbci	r28, 0x00	; 0
     214:	e1 f7       	brne	.-8      	; 0x20e <main+0x100>
     216:	00 c0       	rjmp	.+0      	; 0x218 <main+0x10a>
     218:	00 00       	nop
					_delay_ms(period);
					PORTD = 0x06;
     21a:	52 bb       	out	0x12, r21	; 18
     21c:	af ef       	ldi	r26, 0xFF	; 255
     21e:	b1 ee       	ldi	r27, 0xE1	; 225
     220:	c4 e0       	ldi	r28, 0x04	; 4
     222:	a1 50       	subi	r26, 0x01	; 1
     224:	b0 40       	sbci	r27, 0x00	; 0
     226:	c0 40       	sbci	r28, 0x00	; 0
     228:	e1 f7       	brne	.-8      	; 0x222 <main+0x114>
     22a:	00 c0       	rjmp	.+0      	; 0x22c <main+0x11e>
     22c:	00 00       	nop
					_delay_ms(period);
					PORTD = 0x02;
     22e:	42 bb       	out	0x12, r20	; 18
     230:	af ef       	ldi	r26, 0xFF	; 255
     232:	b1 ee       	ldi	r27, 0xE1	; 225
     234:	c4 e0       	ldi	r28, 0x04	; 4
     236:	a1 50       	subi	r26, 0x01	; 1
     238:	b0 40       	sbci	r27, 0x00	; 0
     23a:	c0 40       	sbci	r28, 0x00	; 0
     23c:	e1 f7       	brne	.-8      	; 0x236 <main+0x128>
     23e:	00 c0       	rjmp	.+0      	; 0x240 <main+0x132>
     240:	00 00       	nop
					_delay_ms(period);
					PORTD = 0x03;
     242:	32 bb       	out	0x12, r19	; 18
     244:	af ef       	ldi	r26, 0xFF	; 255
     246:	b1 ee       	ldi	r27, 0xE1	; 225
     248:	c4 e0       	ldi	r28, 0x04	; 4
     24a:	a1 50       	subi	r26, 0x01	; 1
     24c:	b0 40       	sbci	r27, 0x00	; 0
     24e:	c0 40       	sbci	r28, 0x00	; 0
     250:	e1 f7       	brne	.-8      	; 0x24a <main+0x13c>
     252:	00 c0       	rjmp	.+0      	; 0x254 <main+0x146>
     254:	00 00       	nop
					_delay_ms(period);
					PORTD = 0x01;
     256:	22 bb       	out	0x12, r18	; 18
     258:	af ef       	ldi	r26, 0xFF	; 255
     25a:	b1 ee       	ldi	r27, 0xE1	; 225
     25c:	c4 e0       	ldi	r28, 0x04	; 4
     25e:	a1 50       	subi	r26, 0x01	; 1
     260:	b0 40       	sbci	r27, 0x00	; 0
     262:	c0 40       	sbci	r28, 0x00	; 0
     264:	e1 f7       	brne	.-8      	; 0x25e <main+0x150>
     266:	00 c0       	rjmp	.+0      	; 0x268 <main+0x15a>
     268:	00 00       	nop
     26a:	01 97       	sbiw	r24, 0x01	; 1
		switch (personNum)
		{
			case 1:
			{
				/* Rotate Stepper Motor clockwise with Half step sequence */
				for (int i = 0; i < 12; i++)
     26c:	09 f0       	breq	.+2      	; 0x270 <main+0x162>
     26e:	ad cf       	rjmp	.-166    	; 0x1ca <main+0xbc>
					PORTD = 0x03;
					_delay_ms(period);
					PORTD = 0x01;
					_delay_ms(period);
				}
				PORTD = 0x09; /* Last step to initial position */
     270:	89 e0       	ldi	r24, 0x09	; 9
     272:	82 bb       	out	0x12, r24	; 18
     274:	ef ef       	ldi	r30, 0xFF	; 255
     276:	21 ee       	ldi	r18, 0xE1	; 225
     278:	64 e0       	ldi	r22, 0x04	; 4
     27a:	e1 50       	subi	r30, 0x01	; 1
     27c:	20 40       	sbci	r18, 0x00	; 0
     27e:	60 40       	sbci	r22, 0x00	; 0
     280:	e1 f7       	brne	.-8      	; 0x27a <main+0x16c>
     282:	00 c0       	rjmp	.+0      	; 0x284 <main+0x176>
     284:	00 00       	nop
     286:	7f ef       	ldi	r23, 0xFF	; 255
     288:	83 ed       	ldi	r24, 0xD3	; 211
     28a:	90 e3       	ldi	r25, 0x30	; 48
     28c:	71 50       	subi	r23, 0x01	; 1
     28e:	80 40       	sbci	r24, 0x00	; 0
     290:	90 40       	sbci	r25, 0x00	; 0
     292:	e1 f7       	brne	.-8      	; 0x28c <main+0x17e>
     294:	00 c0       	rjmp	.+0      	; 0x296 <main+0x188>
     296:	00 00       	nop
     298:	8c e0       	ldi	r24, 0x0C	; 12
     29a:	90 e0       	ldi	r25, 0x00	; 0
				_delay_ms(1000);

				/* Rotate Stepper Motor Anticlockwise with Full step sequence */
				for (int i = 0; i < 12; i++)
				{
					PORTD = 0x09;
     29c:	59 e0       	ldi	r21, 0x09	; 9
					_delay_ms(period);
					PORTD = 0x03;
     29e:	43 e0       	ldi	r20, 0x03	; 3
					_delay_ms(period);
					PORTD = 0x06;
     2a0:	36 e0       	ldi	r19, 0x06	; 6
					_delay_ms(period);
					PORTD = 0x0C;
     2a2:	2c e0       	ldi	r18, 0x0C	; 12
				_delay_ms(1000);

				/* Rotate Stepper Motor Anticlockwise with Full step sequence */
				for (int i = 0; i < 12; i++)
				{
					PORTD = 0x09;
     2a4:	52 bb       	out	0x12, r21	; 18
     2a6:	af ef       	ldi	r26, 0xFF	; 255
     2a8:	b1 ee       	ldi	r27, 0xE1	; 225
     2aa:	c4 e0       	ldi	r28, 0x04	; 4
     2ac:	a1 50       	subi	r26, 0x01	; 1
     2ae:	b0 40       	sbci	r27, 0x00	; 0
     2b0:	c0 40       	sbci	r28, 0x00	; 0
     2b2:	e1 f7       	brne	.-8      	; 0x2ac <main+0x19e>
     2b4:	00 c0       	rjmp	.+0      	; 0x2b6 <main+0x1a8>
     2b6:	00 00       	nop
					_delay_ms(period);
					PORTD = 0x03;
     2b8:	42 bb       	out	0x12, r20	; 18
     2ba:	ef ef       	ldi	r30, 0xFF	; 255
     2bc:	61 ee       	ldi	r22, 0xE1	; 225
     2be:	74 e0       	ldi	r23, 0x04	; 4
     2c0:	e1 50       	subi	r30, 0x01	; 1
     2c2:	60 40       	sbci	r22, 0x00	; 0
     2c4:	70 40       	sbci	r23, 0x00	; 0
     2c6:	e1 f7       	brne	.-8      	; 0x2c0 <main+0x1b2>
     2c8:	00 c0       	rjmp	.+0      	; 0x2ca <main+0x1bc>
     2ca:	00 00       	nop
					_delay_ms(period);
					PORTD = 0x06;
     2cc:	32 bb       	out	0x12, r19	; 18
     2ce:	af ef       	ldi	r26, 0xFF	; 255
     2d0:	b1 ee       	ldi	r27, 0xE1	; 225
     2d2:	c4 e0       	ldi	r28, 0x04	; 4
     2d4:	a1 50       	subi	r26, 0x01	; 1
     2d6:	b0 40       	sbci	r27, 0x00	; 0
     2d8:	c0 40       	sbci	r28, 0x00	; 0
     2da:	e1 f7       	brne	.-8      	; 0x2d4 <main+0x1c6>
     2dc:	00 c0       	rjmp	.+0      	; 0x2de <main+0x1d0>
     2de:	00 00       	nop
					_delay_ms(period);
					PORTD = 0x0C;
     2e0:	22 bb       	out	0x12, r18	; 18
     2e2:	ef ef       	ldi	r30, 0xFF	; 255
     2e4:	61 ee       	ldi	r22, 0xE1	; 225
     2e6:	74 e0       	ldi	r23, 0x04	; 4
     2e8:	e1 50       	subi	r30, 0x01	; 1
     2ea:	60 40       	sbci	r22, 0x00	; 0
     2ec:	70 40       	sbci	r23, 0x00	; 0
     2ee:	e1 f7       	brne	.-8      	; 0x2e8 <main+0x1da>
     2f0:	00 c0       	rjmp	.+0      	; 0x2f2 <main+0x1e4>
     2f2:	00 00       	nop
     2f4:	01 97       	sbiw	r24, 0x01	; 1
				PORTD = 0x09; /* Last step to initial position */
				_delay_ms(period);
				_delay_ms(1000);

				/* Rotate Stepper Motor Anticlockwise with Full step sequence */
				for (int i = 0; i < 12; i++)
     2f6:	b1 f6       	brne	.-84     	; 0x2a4 <main+0x196>
					PORTD = 0x06;
					_delay_ms(period);
					PORTD = 0x0C;
					_delay_ms(period);
				}
				PORTD = 0x09;
     2f8:	89 e0       	ldi	r24, 0x09	; 9
     2fa:	82 bb       	out	0x12, r24	; 18
     2fc:	8f ef       	ldi	r24, 0xFF	; 255
     2fe:	91 ee       	ldi	r25, 0xE1	; 225
     300:	a4 e0       	ldi	r26, 0x04	; 4
     302:	81 50       	subi	r24, 0x01	; 1
     304:	90 40       	sbci	r25, 0x00	; 0
     306:	a0 40       	sbci	r26, 0x00	; 0
     308:	e1 f7       	brne	.-8      	; 0x302 <main+0x1f4>
     30a:	00 c0       	rjmp	.+0      	; 0x30c <main+0x1fe>
     30c:	00 00       	nop
     30e:	bf ef       	ldi	r27, 0xFF	; 255
     310:	c3 ed       	ldi	r28, 0xD3	; 211
     312:	e0 e3       	ldi	r30, 0x30	; 48
     314:	b1 50       	subi	r27, 0x01	; 1
     316:	c0 40       	sbci	r28, 0x00	; 0
     318:	e0 40       	sbci	r30, 0x00	; 0
     31a:	e1 f7       	brne	.-8      	; 0x314 <main+0x206>
     31c:	00 c0       	rjmp	.+0      	; 0x31e <main+0x210>
     31e:	00 00       	nop
     320:	0c 94 2c 3b 	jmp	0x7658	; 0x7658 <__stack+0x6df9>
	int period = 100; /* Set period in between two steps */
    PORTC =0x01;
	switch (curryNum)
	{
		case 1:
		switch (personNum)
     324:	8c e0       	ldi	r24, 0x0C	; 12
     326:	90 e0       	ldi	r25, 0x00	; 0
			case 2:
			{
				/* Rotate Stepper Motor clockwise with Half step sequence */
				for (int i = 0; i < 12; i++)
				{
					PORTD = 0x09;
     328:	f9 e0       	ldi	r31, 0x09	; 9
					_delay_ms(period);
					PORTD = 0x08;
     32a:	e8 e0       	ldi	r30, 0x08	; 8
					_delay_ms(period);
					PORTD = 0x0C;
     32c:	7c e0       	ldi	r23, 0x0C	; 12
					_delay_ms(period);
					PORTD = 0x04;
     32e:	64 e0       	ldi	r22, 0x04	; 4
					_delay_ms(period);
					PORTD = 0x06;
     330:	56 e0       	ldi	r21, 0x06	; 6
					_delay_ms(period);
					PORTD = 0x02;
     332:	42 e0       	ldi	r20, 0x02	; 2
					_delay_ms(period);
					PORTD = 0x03;
     334:	33 e0       	ldi	r19, 0x03	; 3
					_delay_ms(period);
					PORTD = 0x01;
     336:	21 e0       	ldi	r18, 0x01	; 1
			case 2:
			{
				/* Rotate Stepper Motor clockwise with Half step sequence */
				for (int i = 0; i < 12; i++)
				{
					PORTD = 0x09;
     338:	f2 bb       	out	0x12, r31	; 18
     33a:	af ef       	ldi	r26, 0xFF	; 255
     33c:	b1 ee       	ldi	r27, 0xE1	; 225
     33e:	c4 e0       	ldi	r28, 0x04	; 4
     340:	a1 50       	subi	r26, 0x01	; 1
     342:	b0 40       	sbci	r27, 0x00	; 0
     344:	c0 40       	sbci	r28, 0x00	; 0
     346:	e1 f7       	brne	.-8      	; 0x340 <main+0x232>
     348:	00 c0       	rjmp	.+0      	; 0x34a <main+0x23c>
     34a:	00 00       	nop
					_delay_ms(period);
					PORTD = 0x08;
     34c:	e2 bb       	out	0x12, r30	; 18
     34e:	af ef       	ldi	r26, 0xFF	; 255
     350:	b1 ee       	ldi	r27, 0xE1	; 225
     352:	c4 e0       	ldi	r28, 0x04	; 4
     354:	a1 50       	subi	r26, 0x01	; 1
     356:	b0 40       	sbci	r27, 0x00	; 0
     358:	c0 40       	sbci	r28, 0x00	; 0
     35a:	e1 f7       	brne	.-8      	; 0x354 <main+0x246>
     35c:	00 c0       	rjmp	.+0      	; 0x35e <main+0x250>
     35e:	00 00       	nop
					_delay_ms(period);
					PORTD = 0x0C;
     360:	72 bb       	out	0x12, r23	; 18
     362:	af ef       	ldi	r26, 0xFF	; 255
     364:	b1 ee       	ldi	r27, 0xE1	; 225
     366:	c4 e0       	ldi	r28, 0x04	; 4
     368:	a1 50       	subi	r26, 0x01	; 1
     36a:	b0 40       	sbci	r27, 0x00	; 0
     36c:	c0 40       	sbci	r28, 0x00	; 0
     36e:	e1 f7       	brne	.-8      	; 0x368 <main+0x25a>
     370:	00 c0       	rjmp	.+0      	; 0x372 <main+0x264>
     372:	00 00       	nop
					_delay_ms(period);
					PORTD = 0x04;
     374:	62 bb       	out	0x12, r22	; 18
     376:	af ef       	ldi	r26, 0xFF	; 255
     378:	b1 ee       	ldi	r27, 0xE1	; 225
     37a:	c4 e0       	ldi	r28, 0x04	; 4
     37c:	a1 50       	subi	r26, 0x01	; 1
     37e:	b0 40       	sbci	r27, 0x00	; 0
     380:	c0 40       	sbci	r28, 0x00	; 0
     382:	e1 f7       	brne	.-8      	; 0x37c <main+0x26e>
     384:	00 c0       	rjmp	.+0      	; 0x386 <main+0x278>
     386:	00 00       	nop
					_delay_ms(period);
					PORTD = 0x06;
     388:	52 bb       	out	0x12, r21	; 18
     38a:	af ef       	ldi	r26, 0xFF	; 255
     38c:	b1 ee       	ldi	r27, 0xE1	; 225
     38e:	c4 e0       	ldi	r28, 0x04	; 4
     390:	a1 50       	subi	r26, 0x01	; 1
     392:	b0 40       	sbci	r27, 0x00	; 0
     394:	c0 40       	sbci	r28, 0x00	; 0
     396:	e1 f7       	brne	.-8      	; 0x390 <main+0x282>
     398:	00 c0       	rjmp	.+0      	; 0x39a <main+0x28c>
     39a:	00 00       	nop
					_delay_ms(period);
					PORTD = 0x02;
     39c:	42 bb       	out	0x12, r20	; 18
     39e:	af ef       	ldi	r26, 0xFF	; 255
     3a0:	b1 ee       	ldi	r27, 0xE1	; 225
     3a2:	c4 e0       	ldi	r28, 0x04	; 4
     3a4:	a1 50       	subi	r26, 0x01	; 1
     3a6:	b0 40       	sbci	r27, 0x00	; 0
     3a8:	c0 40       	sbci	r28, 0x00	; 0
     3aa:	e1 f7       	brne	.-8      	; 0x3a4 <main+0x296>
     3ac:	00 c0       	rjmp	.+0      	; 0x3ae <main+0x2a0>
     3ae:	00 00       	nop
					_delay_ms(period);
					PORTD = 0x03;
     3b0:	32 bb       	out	0x12, r19	; 18
     3b2:	af ef       	ldi	r26, 0xFF	; 255
     3b4:	b1 ee       	ldi	r27, 0xE1	; 225
     3b6:	c4 e0       	ldi	r28, 0x04	; 4
     3b8:	a1 50       	subi	r26, 0x01	; 1
     3ba:	b0 40       	sbci	r27, 0x00	; 0
     3bc:	c0 40       	sbci	r28, 0x00	; 0
     3be:	e1 f7       	brne	.-8      	; 0x3b8 <main+0x2aa>
     3c0:	00 c0       	rjmp	.+0      	; 0x3c2 <main+0x2b4>
     3c2:	00 00       	nop
					_delay_ms(period);
					PORTD = 0x01;
     3c4:	22 bb       	out	0x12, r18	; 18
     3c6:	af ef       	ldi	r26, 0xFF	; 255
     3c8:	b1 ee       	ldi	r27, 0xE1	; 225
     3ca:	c4 e0       	ldi	r28, 0x04	; 4
     3cc:	a1 50       	subi	r26, 0x01	; 1
     3ce:	b0 40       	sbci	r27, 0x00	; 0
     3d0:	c0 40       	sbci	r28, 0x00	; 0
     3d2:	e1 f7       	brne	.-8      	; 0x3cc <main+0x2be>
     3d4:	00 c0       	rjmp	.+0      	; 0x3d6 <main+0x2c8>
     3d6:	00 00       	nop
     3d8:	01 97       	sbiw	r24, 0x01	; 1
				break;
			}
			case 2:
			{
				/* Rotate Stepper Motor clockwise with Half step sequence */
				for (int i = 0; i < 12; i++)
     3da:	09 f0       	breq	.+2      	; 0x3de <main+0x2d0>
     3dc:	ad cf       	rjmp	.-166    	; 0x338 <main+0x22a>
					PORTD = 0x03;
					_delay_ms(period);
					PORTD = 0x01;
					_delay_ms(period);
				}
				PORTD = 0x09; /* Last step to initial position */
     3de:	89 e0       	ldi	r24, 0x09	; 9
     3e0:	82 bb       	out	0x12, r24	; 18
     3e2:	ef ef       	ldi	r30, 0xFF	; 255
     3e4:	21 ee       	ldi	r18, 0xE1	; 225
     3e6:	64 e0       	ldi	r22, 0x04	; 4
     3e8:	e1 50       	subi	r30, 0x01	; 1
     3ea:	20 40       	sbci	r18, 0x00	; 0
     3ec:	60 40       	sbci	r22, 0x00	; 0
     3ee:	e1 f7       	brne	.-8      	; 0x3e8 <main+0x2da>
     3f0:	00 c0       	rjmp	.+0      	; 0x3f2 <main+0x2e4>
     3f2:	00 00       	nop
     3f4:	7f ef       	ldi	r23, 0xFF	; 255
     3f6:	83 ed       	ldi	r24, 0xD3	; 211
     3f8:	90 e3       	ldi	r25, 0x30	; 48
     3fa:	71 50       	subi	r23, 0x01	; 1
     3fc:	80 40       	sbci	r24, 0x00	; 0
     3fe:	90 40       	sbci	r25, 0x00	; 0
     400:	e1 f7       	brne	.-8      	; 0x3fa <main+0x2ec>
     402:	00 c0       	rjmp	.+0      	; 0x404 <__LOCK_REGION_LENGTH__+0x4>
     404:	00 00       	nop
     406:	8c e0       	ldi	r24, 0x0C	; 12
     408:	90 e0       	ldi	r25, 0x00	; 0
				_delay_ms(1000);

				/* Rotate Stepper Motor Anticlockwise with Full step sequence */
				for (int i = 0; i < 12; i++)
				{
					PORTD = 0x09;
     40a:	59 e0       	ldi	r21, 0x09	; 9
					_delay_ms(period);
					PORTD = 0x03;
     40c:	43 e0       	ldi	r20, 0x03	; 3
					_delay_ms(period);
					PORTD = 0x06;
     40e:	36 e0       	ldi	r19, 0x06	; 6
					_delay_ms(period);
					PORTD = 0x0C;
     410:	2c e0       	ldi	r18, 0x0C	; 12
				_delay_ms(1000);

				/* Rotate Stepper Motor Anticlockwise with Full step sequence */
				for (int i = 0; i < 12; i++)
				{
					PORTD = 0x09;
     412:	52 bb       	out	0x12, r21	; 18
     414:	af ef       	ldi	r26, 0xFF	; 255
     416:	b1 ee       	ldi	r27, 0xE1	; 225
     418:	c4 e0       	ldi	r28, 0x04	; 4
     41a:	a1 50       	subi	r26, 0x01	; 1
     41c:	b0 40       	sbci	r27, 0x00	; 0
     41e:	c0 40       	sbci	r28, 0x00	; 0
     420:	e1 f7       	brne	.-8      	; 0x41a <__LOCK_REGION_LENGTH__+0x1a>
     422:	00 c0       	rjmp	.+0      	; 0x424 <__LOCK_REGION_LENGTH__+0x24>
     424:	00 00       	nop
					_delay_ms(period);
					PORTD = 0x03;
     426:	42 bb       	out	0x12, r20	; 18
     428:	ef ef       	ldi	r30, 0xFF	; 255
     42a:	61 ee       	ldi	r22, 0xE1	; 225
     42c:	74 e0       	ldi	r23, 0x04	; 4
     42e:	e1 50       	subi	r30, 0x01	; 1
     430:	60 40       	sbci	r22, 0x00	; 0
     432:	70 40       	sbci	r23, 0x00	; 0
     434:	e1 f7       	brne	.-8      	; 0x42e <__LOCK_REGION_LENGTH__+0x2e>
     436:	00 c0       	rjmp	.+0      	; 0x438 <__LOCK_REGION_LENGTH__+0x38>
     438:	00 00       	nop
					_delay_ms(period);
					PORTD = 0x06;
     43a:	32 bb       	out	0x12, r19	; 18
     43c:	af ef       	ldi	r26, 0xFF	; 255
     43e:	b1 ee       	ldi	r27, 0xE1	; 225
     440:	c4 e0       	ldi	r28, 0x04	; 4
     442:	a1 50       	subi	r26, 0x01	; 1
     444:	b0 40       	sbci	r27, 0x00	; 0
     446:	c0 40       	sbci	r28, 0x00	; 0
     448:	e1 f7       	brne	.-8      	; 0x442 <__LOCK_REGION_LENGTH__+0x42>
     44a:	00 c0       	rjmp	.+0      	; 0x44c <__LOCK_REGION_LENGTH__+0x4c>
     44c:	00 00       	nop
					_delay_ms(period);
					PORTD = 0x0C;
     44e:	22 bb       	out	0x12, r18	; 18
     450:	ef ef       	ldi	r30, 0xFF	; 255
     452:	61 ee       	ldi	r22, 0xE1	; 225
     454:	74 e0       	ldi	r23, 0x04	; 4
     456:	e1 50       	subi	r30, 0x01	; 1
     458:	60 40       	sbci	r22, 0x00	; 0
     45a:	70 40       	sbci	r23, 0x00	; 0
     45c:	e1 f7       	brne	.-8      	; 0x456 <__LOCK_REGION_LENGTH__+0x56>
     45e:	00 c0       	rjmp	.+0      	; 0x460 <__LOCK_REGION_LENGTH__+0x60>
     460:	00 00       	nop
     462:	01 97       	sbiw	r24, 0x01	; 1
				PORTD = 0x09; /* Last step to initial position */
				_delay_ms(period);
				_delay_ms(1000);

				/* Rotate Stepper Motor Anticlockwise with Full step sequence */
				for (int i = 0; i < 12; i++)
     464:	b1 f6       	brne	.-84     	; 0x412 <__LOCK_REGION_LENGTH__+0x12>
					PORTD = 0x06;
					_delay_ms(period);
					PORTD = 0x0C;
					_delay_ms(period);
				}
				PORTD = 0x09;
     466:	89 e0       	ldi	r24, 0x09	; 9
     468:	82 bb       	out	0x12, r24	; 18
     46a:	8f ef       	ldi	r24, 0xFF	; 255
     46c:	91 ee       	ldi	r25, 0xE1	; 225
     46e:	a4 e0       	ldi	r26, 0x04	; 4
     470:	81 50       	subi	r24, 0x01	; 1
     472:	90 40       	sbci	r25, 0x00	; 0
     474:	a0 40       	sbci	r26, 0x00	; 0
     476:	e1 f7       	brne	.-8      	; 0x470 <__LOCK_REGION_LENGTH__+0x70>
     478:	00 c0       	rjmp	.+0      	; 0x47a <__LOCK_REGION_LENGTH__+0x7a>
     47a:	00 00       	nop
     47c:	bf ef       	ldi	r27, 0xFF	; 255
     47e:	c3 ed       	ldi	r28, 0xD3	; 211
     480:	e0 e3       	ldi	r30, 0x30	; 48
     482:	b1 50       	subi	r27, 0x01	; 1
     484:	c0 40       	sbci	r28, 0x00	; 0
     486:	e0 40       	sbci	r30, 0x00	; 0
     488:	e1 f7       	brne	.-8      	; 0x482 <__LOCK_REGION_LENGTH__+0x82>
     48a:	00 c0       	rjmp	.+0      	; 0x48c <__LOCK_REGION_LENGTH__+0x8c>
     48c:	00 00       	nop
     48e:	0c 94 2c 3b 	jmp	0x7658	; 0x7658 <__stack+0x6df9>
	int period = 100; /* Set period in between two steps */
    PORTC =0x01;
	switch (curryNum)
	{
		case 1:
		switch (personNum)
     492:	8c e0       	ldi	r24, 0x0C	; 12
     494:	90 e0       	ldi	r25, 0x00	; 0
			case 3:
			{
				/* Rotate Stepper Motor clockwise with Half step sequence */
				for (int i = 0; i < 12; i++)
				{
					PORTD = 0x09;
     496:	f9 e0       	ldi	r31, 0x09	; 9
					_delay_ms(period);
					PORTD = 0x08;
     498:	e8 e0       	ldi	r30, 0x08	; 8
					_delay_ms(period);
					PORTD = 0x0C;
     49a:	7c e0       	ldi	r23, 0x0C	; 12
					_delay_ms(period);
					PORTD = 0x04;
     49c:	64 e0       	ldi	r22, 0x04	; 4
					_delay_ms(period);
					PORTD = 0x06;
     49e:	56 e0       	ldi	r21, 0x06	; 6
					_delay_ms(period);
					PORTD = 0x02;
     4a0:	42 e0       	ldi	r20, 0x02	; 2
					_delay_ms(period);
					PORTD = 0x03;
     4a2:	33 e0       	ldi	r19, 0x03	; 3
					_delay_ms(period);
					PORTD = 0x01;
     4a4:	21 e0       	ldi	r18, 0x01	; 1
			case 3:
			{
				/* Rotate Stepper Motor clockwise with Half step sequence */
				for (int i = 0; i < 12; i++)
				{
					PORTD = 0x09;
     4a6:	f2 bb       	out	0x12, r31	; 18
     4a8:	af ef       	ldi	r26, 0xFF	; 255
     4aa:	b1 ee       	ldi	r27, 0xE1	; 225
     4ac:	c4 e0       	ldi	r28, 0x04	; 4
     4ae:	a1 50       	subi	r26, 0x01	; 1
     4b0:	b0 40       	sbci	r27, 0x00	; 0
     4b2:	c0 40       	sbci	r28, 0x00	; 0
     4b4:	e1 f7       	brne	.-8      	; 0x4ae <__LOCK_REGION_LENGTH__+0xae>
     4b6:	00 c0       	rjmp	.+0      	; 0x4b8 <__LOCK_REGION_LENGTH__+0xb8>
     4b8:	00 00       	nop
					_delay_ms(period);
					PORTD = 0x08;
     4ba:	e2 bb       	out	0x12, r30	; 18
     4bc:	af ef       	ldi	r26, 0xFF	; 255
     4be:	b1 ee       	ldi	r27, 0xE1	; 225
     4c0:	c4 e0       	ldi	r28, 0x04	; 4
     4c2:	a1 50       	subi	r26, 0x01	; 1
     4c4:	b0 40       	sbci	r27, 0x00	; 0
     4c6:	c0 40       	sbci	r28, 0x00	; 0
     4c8:	e1 f7       	brne	.-8      	; 0x4c2 <__LOCK_REGION_LENGTH__+0xc2>
     4ca:	00 c0       	rjmp	.+0      	; 0x4cc <__LOCK_REGION_LENGTH__+0xcc>
     4cc:	00 00       	nop
					_delay_ms(period);
					PORTD = 0x0C;
     4ce:	72 bb       	out	0x12, r23	; 18
     4d0:	af ef       	ldi	r26, 0xFF	; 255
     4d2:	b1 ee       	ldi	r27, 0xE1	; 225
     4d4:	c4 e0       	ldi	r28, 0x04	; 4
     4d6:	a1 50       	subi	r26, 0x01	; 1
     4d8:	b0 40       	sbci	r27, 0x00	; 0
     4da:	c0 40       	sbci	r28, 0x00	; 0
     4dc:	e1 f7       	brne	.-8      	; 0x4d6 <__LOCK_REGION_LENGTH__+0xd6>
     4de:	00 c0       	rjmp	.+0      	; 0x4e0 <__LOCK_REGION_LENGTH__+0xe0>
     4e0:	00 00       	nop
					_delay_ms(period);
					PORTD = 0x04;
     4e2:	62 bb       	out	0x12, r22	; 18
     4e4:	af ef       	ldi	r26, 0xFF	; 255
     4e6:	b1 ee       	ldi	r27, 0xE1	; 225
     4e8:	c4 e0       	ldi	r28, 0x04	; 4
     4ea:	a1 50       	subi	r26, 0x01	; 1
     4ec:	b0 40       	sbci	r27, 0x00	; 0
     4ee:	c0 40       	sbci	r28, 0x00	; 0
     4f0:	e1 f7       	brne	.-8      	; 0x4ea <__LOCK_REGION_LENGTH__+0xea>
     4f2:	00 c0       	rjmp	.+0      	; 0x4f4 <__LOCK_REGION_LENGTH__+0xf4>
     4f4:	00 00       	nop
					_delay_ms(period);
					PORTD = 0x06;
     4f6:	52 bb       	out	0x12, r21	; 18
     4f8:	af ef       	ldi	r26, 0xFF	; 255
     4fa:	b1 ee       	ldi	r27, 0xE1	; 225
     4fc:	c4 e0       	ldi	r28, 0x04	; 4
     4fe:	a1 50       	subi	r26, 0x01	; 1
     500:	b0 40       	sbci	r27, 0x00	; 0
     502:	c0 40       	sbci	r28, 0x00	; 0
     504:	e1 f7       	brne	.-8      	; 0x4fe <__LOCK_REGION_LENGTH__+0xfe>
     506:	00 c0       	rjmp	.+0      	; 0x508 <__LOCK_REGION_LENGTH__+0x108>
     508:	00 00       	nop
					_delay_ms(period);
					PORTD = 0x02;
     50a:	42 bb       	out	0x12, r20	; 18
     50c:	af ef       	ldi	r26, 0xFF	; 255
     50e:	b1 ee       	ldi	r27, 0xE1	; 225
     510:	c4 e0       	ldi	r28, 0x04	; 4
     512:	a1 50       	subi	r26, 0x01	; 1
     514:	b0 40       	sbci	r27, 0x00	; 0
     516:	c0 40       	sbci	r28, 0x00	; 0
     518:	e1 f7       	brne	.-8      	; 0x512 <__LOCK_REGION_LENGTH__+0x112>
     51a:	00 c0       	rjmp	.+0      	; 0x51c <__LOCK_REGION_LENGTH__+0x11c>
     51c:	00 00       	nop
					_delay_ms(period);
					PORTD = 0x03;
     51e:	32 bb       	out	0x12, r19	; 18
     520:	af ef       	ldi	r26, 0xFF	; 255
     522:	b1 ee       	ldi	r27, 0xE1	; 225
     524:	c4 e0       	ldi	r28, 0x04	; 4
     526:	a1 50       	subi	r26, 0x01	; 1
     528:	b0 40       	sbci	r27, 0x00	; 0
     52a:	c0 40       	sbci	r28, 0x00	; 0
     52c:	e1 f7       	brne	.-8      	; 0x526 <__LOCK_REGION_LENGTH__+0x126>
     52e:	00 c0       	rjmp	.+0      	; 0x530 <__LOCK_REGION_LENGTH__+0x130>
     530:	00 00       	nop
					_delay_ms(period);
					PORTD = 0x01;
     532:	22 bb       	out	0x12, r18	; 18
     534:	af ef       	ldi	r26, 0xFF	; 255
     536:	b1 ee       	ldi	r27, 0xE1	; 225
     538:	c4 e0       	ldi	r28, 0x04	; 4
     53a:	a1 50       	subi	r26, 0x01	; 1
     53c:	b0 40       	sbci	r27, 0x00	; 0
     53e:	c0 40       	sbci	r28, 0x00	; 0
     540:	e1 f7       	brne	.-8      	; 0x53a <__LOCK_REGION_LENGTH__+0x13a>
     542:	00 c0       	rjmp	.+0      	; 0x544 <__LOCK_REGION_LENGTH__+0x144>
     544:	00 00       	nop
     546:	01 97       	sbiw	r24, 0x01	; 1
				break;
			}
			case 3:
			{
				/* Rotate Stepper Motor clockwise with Half step sequence */
				for (int i = 0; i < 12; i++)
     548:	09 f0       	breq	.+2      	; 0x54c <__LOCK_REGION_LENGTH__+0x14c>
     54a:	ad cf       	rjmp	.-166    	; 0x4a6 <__LOCK_REGION_LENGTH__+0xa6>
					PORTD = 0x03;
					_delay_ms(period);
					PORTD = 0x01;
					_delay_ms(period);
				}
				PORTD = 0x09; /* Last step to initial position */
     54c:	89 e0       	ldi	r24, 0x09	; 9
     54e:	82 bb       	out	0x12, r24	; 18
     550:	ef ef       	ldi	r30, 0xFF	; 255
     552:	21 ee       	ldi	r18, 0xE1	; 225
     554:	64 e0       	ldi	r22, 0x04	; 4
     556:	e1 50       	subi	r30, 0x01	; 1
     558:	20 40       	sbci	r18, 0x00	; 0
     55a:	60 40       	sbci	r22, 0x00	; 0
     55c:	e1 f7       	brne	.-8      	; 0x556 <__LOCK_REGION_LENGTH__+0x156>
     55e:	00 c0       	rjmp	.+0      	; 0x560 <__LOCK_REGION_LENGTH__+0x160>
     560:	00 00       	nop
     562:	7f ef       	ldi	r23, 0xFF	; 255
     564:	83 ed       	ldi	r24, 0xD3	; 211
     566:	90 e3       	ldi	r25, 0x30	; 48
     568:	71 50       	subi	r23, 0x01	; 1
     56a:	80 40       	sbci	r24, 0x00	; 0
     56c:	90 40       	sbci	r25, 0x00	; 0
     56e:	e1 f7       	brne	.-8      	; 0x568 <__LOCK_REGION_LENGTH__+0x168>
     570:	00 c0       	rjmp	.+0      	; 0x572 <__LOCK_REGION_LENGTH__+0x172>
     572:	00 00       	nop
     574:	8c e0       	ldi	r24, 0x0C	; 12
     576:	90 e0       	ldi	r25, 0x00	; 0
				_delay_ms(1000);

				/* Rotate Stepper Motor Anticlockwise with Full step sequence */
				for (int i = 0; i < 12; i++)
				{
					PORTD = 0x09;
     578:	59 e0       	ldi	r21, 0x09	; 9
					_delay_ms(period);
					PORTD = 0x03;
     57a:	43 e0       	ldi	r20, 0x03	; 3
					_delay_ms(period);
					PORTD = 0x06;
     57c:	36 e0       	ldi	r19, 0x06	; 6
					_delay_ms(period);
					PORTD = 0x0C;
     57e:	2c e0       	ldi	r18, 0x0C	; 12
				_delay_ms(1000);

				/* Rotate Stepper Motor Anticlockwise with Full step sequence */
				for (int i = 0; i < 12; i++)
				{
					PORTD = 0x09;
     580:	52 bb       	out	0x12, r21	; 18
     582:	af ef       	ldi	r26, 0xFF	; 255
     584:	b1 ee       	ldi	r27, 0xE1	; 225
     586:	c4 e0       	ldi	r28, 0x04	; 4
     588:	a1 50       	subi	r26, 0x01	; 1
     58a:	b0 40       	sbci	r27, 0x00	; 0
     58c:	c0 40       	sbci	r28, 0x00	; 0
     58e:	e1 f7       	brne	.-8      	; 0x588 <__LOCK_REGION_LENGTH__+0x188>
     590:	00 c0       	rjmp	.+0      	; 0x592 <__LOCK_REGION_LENGTH__+0x192>
     592:	00 00       	nop
					_delay_ms(period);
					PORTD = 0x03;
     594:	42 bb       	out	0x12, r20	; 18
     596:	ef ef       	ldi	r30, 0xFF	; 255
     598:	61 ee       	ldi	r22, 0xE1	; 225
     59a:	74 e0       	ldi	r23, 0x04	; 4
     59c:	e1 50       	subi	r30, 0x01	; 1
     59e:	60 40       	sbci	r22, 0x00	; 0
     5a0:	70 40       	sbci	r23, 0x00	; 0
     5a2:	e1 f7       	brne	.-8      	; 0x59c <__LOCK_REGION_LENGTH__+0x19c>
     5a4:	00 c0       	rjmp	.+0      	; 0x5a6 <__LOCK_REGION_LENGTH__+0x1a6>
     5a6:	00 00       	nop
					_delay_ms(period);
					PORTD = 0x06;
     5a8:	32 bb       	out	0x12, r19	; 18
     5aa:	af ef       	ldi	r26, 0xFF	; 255
     5ac:	b1 ee       	ldi	r27, 0xE1	; 225
     5ae:	c4 e0       	ldi	r28, 0x04	; 4
     5b0:	a1 50       	subi	r26, 0x01	; 1
     5b2:	b0 40       	sbci	r27, 0x00	; 0
     5b4:	c0 40       	sbci	r28, 0x00	; 0
     5b6:	e1 f7       	brne	.-8      	; 0x5b0 <__LOCK_REGION_LENGTH__+0x1b0>
     5b8:	00 c0       	rjmp	.+0      	; 0x5ba <__LOCK_REGION_LENGTH__+0x1ba>
     5ba:	00 00       	nop
					_delay_ms(period);
					PORTD = 0x0C;
     5bc:	22 bb       	out	0x12, r18	; 18
     5be:	ef ef       	ldi	r30, 0xFF	; 255
     5c0:	61 ee       	ldi	r22, 0xE1	; 225
     5c2:	74 e0       	ldi	r23, 0x04	; 4
     5c4:	e1 50       	subi	r30, 0x01	; 1
     5c6:	60 40       	sbci	r22, 0x00	; 0
     5c8:	70 40       	sbci	r23, 0x00	; 0
     5ca:	e1 f7       	brne	.-8      	; 0x5c4 <__LOCK_REGION_LENGTH__+0x1c4>
     5cc:	00 c0       	rjmp	.+0      	; 0x5ce <__LOCK_REGION_LENGTH__+0x1ce>
     5ce:	00 00       	nop
     5d0:	01 97       	sbiw	r24, 0x01	; 1
				PORTD = 0x09; /* Last step to initial position */
				_delay_ms(period);
				_delay_ms(1000);

				/* Rotate Stepper Motor Anticlockwise with Full step sequence */
				for (int i = 0; i < 12; i++)
     5d2:	b1 f6       	brne	.-84     	; 0x580 <__LOCK_REGION_LENGTH__+0x180>
					PORTD = 0x06;
					_delay_ms(period);
					PORTD = 0x0C;
					_delay_ms(period);
				}
				PORTD = 0x09;
     5d4:	89 e0       	ldi	r24, 0x09	; 9
     5d6:	82 bb       	out	0x12, r24	; 18
     5d8:	8f ef       	ldi	r24, 0xFF	; 255
     5da:	91 ee       	ldi	r25, 0xE1	; 225
     5dc:	a4 e0       	ldi	r26, 0x04	; 4
     5de:	81 50       	subi	r24, 0x01	; 1
     5e0:	90 40       	sbci	r25, 0x00	; 0
     5e2:	a0 40       	sbci	r26, 0x00	; 0
     5e4:	e1 f7       	brne	.-8      	; 0x5de <__LOCK_REGION_LENGTH__+0x1de>
     5e6:	00 c0       	rjmp	.+0      	; 0x5e8 <__LOCK_REGION_LENGTH__+0x1e8>
     5e8:	00 00       	nop
     5ea:	bf ef       	ldi	r27, 0xFF	; 255
     5ec:	c3 ed       	ldi	r28, 0xD3	; 211
     5ee:	e0 e3       	ldi	r30, 0x30	; 48
     5f0:	b1 50       	subi	r27, 0x01	; 1
     5f2:	c0 40       	sbci	r28, 0x00	; 0
     5f4:	e0 40       	sbci	r30, 0x00	; 0
     5f6:	e1 f7       	brne	.-8      	; 0x5f0 <__LOCK_REGION_LENGTH__+0x1f0>
     5f8:	00 c0       	rjmp	.+0      	; 0x5fa <__LOCK_REGION_LENGTH__+0x1fa>
     5fa:	00 00       	nop
     5fc:	0c 94 2c 3b 	jmp	0x7658	; 0x7658 <__stack+0x6df9>
	int period = 100; /* Set period in between two steps */
    PORTC =0x01;
	switch (curryNum)
	{
		case 1:
		switch (personNum)
     600:	8c e0       	ldi	r24, 0x0C	; 12
     602:	90 e0       	ldi	r25, 0x00	; 0
			case 4:
			{
				/* Rotate Stepper Motor clockwise with Half step sequence */
				for (int i = 0; i < 12; i++)
				{
					PORTD = 0x09;
     604:	f9 e0       	ldi	r31, 0x09	; 9
					_delay_ms(period);
					PORTD = 0x08;
     606:	e8 e0       	ldi	r30, 0x08	; 8
					_delay_ms(period);
					PORTD = 0x0C;
     608:	7c e0       	ldi	r23, 0x0C	; 12
					_delay_ms(period);
					PORTD = 0x04;
     60a:	64 e0       	ldi	r22, 0x04	; 4
					_delay_ms(period);
					PORTD = 0x06;
     60c:	56 e0       	ldi	r21, 0x06	; 6
					_delay_ms(period);
					PORTD = 0x02;
     60e:	42 e0       	ldi	r20, 0x02	; 2
					_delay_ms(period);
					PORTD = 0x03;
     610:	33 e0       	ldi	r19, 0x03	; 3
					_delay_ms(period);
					PORTD = 0x01;
     612:	21 e0       	ldi	r18, 0x01	; 1
			case 4:
			{
				/* Rotate Stepper Motor clockwise with Half step sequence */
				for (int i = 0; i < 12; i++)
				{
					PORTD = 0x09;
     614:	f2 bb       	out	0x12, r31	; 18
     616:	af ef       	ldi	r26, 0xFF	; 255
     618:	b1 ee       	ldi	r27, 0xE1	; 225
     61a:	c4 e0       	ldi	r28, 0x04	; 4
     61c:	a1 50       	subi	r26, 0x01	; 1
     61e:	b0 40       	sbci	r27, 0x00	; 0
     620:	c0 40       	sbci	r28, 0x00	; 0
     622:	e1 f7       	brne	.-8      	; 0x61c <__LOCK_REGION_LENGTH__+0x21c>
     624:	00 c0       	rjmp	.+0      	; 0x626 <__LOCK_REGION_LENGTH__+0x226>
     626:	00 00       	nop
					_delay_ms(period);
					PORTD = 0x08;
     628:	e2 bb       	out	0x12, r30	; 18
     62a:	af ef       	ldi	r26, 0xFF	; 255
     62c:	b1 ee       	ldi	r27, 0xE1	; 225
     62e:	c4 e0       	ldi	r28, 0x04	; 4
     630:	a1 50       	subi	r26, 0x01	; 1
     632:	b0 40       	sbci	r27, 0x00	; 0
     634:	c0 40       	sbci	r28, 0x00	; 0
     636:	e1 f7       	brne	.-8      	; 0x630 <__LOCK_REGION_LENGTH__+0x230>
     638:	00 c0       	rjmp	.+0      	; 0x63a <__LOCK_REGION_LENGTH__+0x23a>
     63a:	00 00       	nop
					_delay_ms(period);
					PORTD = 0x0C;
     63c:	72 bb       	out	0x12, r23	; 18
     63e:	af ef       	ldi	r26, 0xFF	; 255
     640:	b1 ee       	ldi	r27, 0xE1	; 225
     642:	c4 e0       	ldi	r28, 0x04	; 4
     644:	a1 50       	subi	r26, 0x01	; 1
     646:	b0 40       	sbci	r27, 0x00	; 0
     648:	c0 40       	sbci	r28, 0x00	; 0
     64a:	e1 f7       	brne	.-8      	; 0x644 <__LOCK_REGION_LENGTH__+0x244>
     64c:	00 c0       	rjmp	.+0      	; 0x64e <__LOCK_REGION_LENGTH__+0x24e>
     64e:	00 00       	nop
					_delay_ms(period);
					PORTD = 0x04;
     650:	62 bb       	out	0x12, r22	; 18
     652:	af ef       	ldi	r26, 0xFF	; 255
     654:	b1 ee       	ldi	r27, 0xE1	; 225
     656:	c4 e0       	ldi	r28, 0x04	; 4
     658:	a1 50       	subi	r26, 0x01	; 1
     65a:	b0 40       	sbci	r27, 0x00	; 0
     65c:	c0 40       	sbci	r28, 0x00	; 0
     65e:	e1 f7       	brne	.-8      	; 0x658 <__LOCK_REGION_LENGTH__+0x258>
     660:	00 c0       	rjmp	.+0      	; 0x662 <__LOCK_REGION_LENGTH__+0x262>
     662:	00 00       	nop
					_delay_ms(period);
					PORTD = 0x06;
     664:	52 bb       	out	0x12, r21	; 18
     666:	af ef       	ldi	r26, 0xFF	; 255
     668:	b1 ee       	ldi	r27, 0xE1	; 225
     66a:	c4 e0       	ldi	r28, 0x04	; 4
     66c:	a1 50       	subi	r26, 0x01	; 1
     66e:	b0 40       	sbci	r27, 0x00	; 0
     670:	c0 40       	sbci	r28, 0x00	; 0
     672:	e1 f7       	brne	.-8      	; 0x66c <__LOCK_REGION_LENGTH__+0x26c>
     674:	00 c0       	rjmp	.+0      	; 0x676 <__LOCK_REGION_LENGTH__+0x276>
     676:	00 00       	nop
					_delay_ms(period);
					PORTD = 0x02;
     678:	42 bb       	out	0x12, r20	; 18
     67a:	af ef       	ldi	r26, 0xFF	; 255
     67c:	b1 ee       	ldi	r27, 0xE1	; 225
     67e:	c4 e0       	ldi	r28, 0x04	; 4
     680:	a1 50       	subi	r26, 0x01	; 1
     682:	b0 40       	sbci	r27, 0x00	; 0
     684:	c0 40       	sbci	r28, 0x00	; 0
     686:	e1 f7       	brne	.-8      	; 0x680 <__LOCK_REGION_LENGTH__+0x280>
     688:	00 c0       	rjmp	.+0      	; 0x68a <__LOCK_REGION_LENGTH__+0x28a>
     68a:	00 00       	nop
					_delay_ms(period);
					PORTD = 0x03;
     68c:	32 bb       	out	0x12, r19	; 18
     68e:	af ef       	ldi	r26, 0xFF	; 255
     690:	b1 ee       	ldi	r27, 0xE1	; 225
     692:	c4 e0       	ldi	r28, 0x04	; 4
     694:	a1 50       	subi	r26, 0x01	; 1
     696:	b0 40       	sbci	r27, 0x00	; 0
     698:	c0 40       	sbci	r28, 0x00	; 0
     69a:	e1 f7       	brne	.-8      	; 0x694 <__LOCK_REGION_LENGTH__+0x294>
     69c:	00 c0       	rjmp	.+0      	; 0x69e <__LOCK_REGION_LENGTH__+0x29e>
     69e:	00 00       	nop
					_delay_ms(period);
					PORTD = 0x01;
     6a0:	22 bb       	out	0x12, r18	; 18
     6a2:	af ef       	ldi	r26, 0xFF	; 255
     6a4:	b1 ee       	ldi	r27, 0xE1	; 225
     6a6:	c4 e0       	ldi	r28, 0x04	; 4
     6a8:	a1 50       	subi	r26, 0x01	; 1
     6aa:	b0 40       	sbci	r27, 0x00	; 0
     6ac:	c0 40       	sbci	r28, 0x00	; 0
     6ae:	e1 f7       	brne	.-8      	; 0x6a8 <__LOCK_REGION_LENGTH__+0x2a8>
     6b0:	00 c0       	rjmp	.+0      	; 0x6b2 <__LOCK_REGION_LENGTH__+0x2b2>
     6b2:	00 00       	nop
     6b4:	01 97       	sbiw	r24, 0x01	; 1
				break;
			}
			case 4:
			{
				/* Rotate Stepper Motor clockwise with Half step sequence */
				for (int i = 0; i < 12; i++)
     6b6:	09 f0       	breq	.+2      	; 0x6ba <__LOCK_REGION_LENGTH__+0x2ba>
     6b8:	ad cf       	rjmp	.-166    	; 0x614 <__LOCK_REGION_LENGTH__+0x214>
					PORTD = 0x03;
					_delay_ms(period);
					PORTD = 0x01;
					_delay_ms(period);
				}
				PORTD = 0x09; /* Last step to initial position */
     6ba:	89 e0       	ldi	r24, 0x09	; 9
     6bc:	82 bb       	out	0x12, r24	; 18
     6be:	ef ef       	ldi	r30, 0xFF	; 255
     6c0:	21 ee       	ldi	r18, 0xE1	; 225
     6c2:	64 e0       	ldi	r22, 0x04	; 4
     6c4:	e1 50       	subi	r30, 0x01	; 1
     6c6:	20 40       	sbci	r18, 0x00	; 0
     6c8:	60 40       	sbci	r22, 0x00	; 0
     6ca:	e1 f7       	brne	.-8      	; 0x6c4 <__LOCK_REGION_LENGTH__+0x2c4>
     6cc:	00 c0       	rjmp	.+0      	; 0x6ce <__LOCK_REGION_LENGTH__+0x2ce>
     6ce:	00 00       	nop
     6d0:	7f ef       	ldi	r23, 0xFF	; 255
     6d2:	83 ed       	ldi	r24, 0xD3	; 211
     6d4:	90 e3       	ldi	r25, 0x30	; 48
     6d6:	71 50       	subi	r23, 0x01	; 1
     6d8:	80 40       	sbci	r24, 0x00	; 0
     6da:	90 40       	sbci	r25, 0x00	; 0
     6dc:	e1 f7       	brne	.-8      	; 0x6d6 <__LOCK_REGION_LENGTH__+0x2d6>
     6de:	00 c0       	rjmp	.+0      	; 0x6e0 <__LOCK_REGION_LENGTH__+0x2e0>
     6e0:	00 00       	nop
     6e2:	8c e0       	ldi	r24, 0x0C	; 12
     6e4:	90 e0       	ldi	r25, 0x00	; 0
				_delay_ms(1000);

				/* Rotate Stepper Motor Anticlockwise with Full step sequence */
				for (int i = 0; i < 12; i++)
				{
					PORTD = 0x09;
     6e6:	59 e0       	ldi	r21, 0x09	; 9
					_delay_ms(period);
					PORTD = 0x03;
     6e8:	43 e0       	ldi	r20, 0x03	; 3
					_delay_ms(period);
					PORTD = 0x06;
     6ea:	36 e0       	ldi	r19, 0x06	; 6
					_delay_ms(period);
					PORTD = 0x0C;
     6ec:	2c e0       	ldi	r18, 0x0C	; 12
				_delay_ms(1000);

				/* Rotate Stepper Motor Anticlockwise with Full step sequence */
				for (int i = 0; i < 12; i++)
				{
					PORTD = 0x09;
     6ee:	52 bb       	out	0x12, r21	; 18
     6f0:	af ef       	ldi	r26, 0xFF	; 255
     6f2:	b1 ee       	ldi	r27, 0xE1	; 225
     6f4:	c4 e0       	ldi	r28, 0x04	; 4
     6f6:	a1 50       	subi	r26, 0x01	; 1
     6f8:	b0 40       	sbci	r27, 0x00	; 0
     6fa:	c0 40       	sbci	r28, 0x00	; 0
     6fc:	e1 f7       	brne	.-8      	; 0x6f6 <__LOCK_REGION_LENGTH__+0x2f6>
     6fe:	00 c0       	rjmp	.+0      	; 0x700 <__LOCK_REGION_LENGTH__+0x300>
     700:	00 00       	nop
					_delay_ms(period);
					PORTD = 0x03;
     702:	42 bb       	out	0x12, r20	; 18
     704:	ef ef       	ldi	r30, 0xFF	; 255
     706:	61 ee       	ldi	r22, 0xE1	; 225
     708:	74 e0       	ldi	r23, 0x04	; 4
     70a:	e1 50       	subi	r30, 0x01	; 1
     70c:	60 40       	sbci	r22, 0x00	; 0
     70e:	70 40       	sbci	r23, 0x00	; 0
     710:	e1 f7       	brne	.-8      	; 0x70a <__LOCK_REGION_LENGTH__+0x30a>
     712:	00 c0       	rjmp	.+0      	; 0x714 <__LOCK_REGION_LENGTH__+0x314>
     714:	00 00       	nop
					_delay_ms(period);
					PORTD = 0x06;
     716:	32 bb       	out	0x12, r19	; 18
     718:	af ef       	ldi	r26, 0xFF	; 255
     71a:	b1 ee       	ldi	r27, 0xE1	; 225
     71c:	c4 e0       	ldi	r28, 0x04	; 4
     71e:	a1 50       	subi	r26, 0x01	; 1
     720:	b0 40       	sbci	r27, 0x00	; 0
     722:	c0 40       	sbci	r28, 0x00	; 0
     724:	e1 f7       	brne	.-8      	; 0x71e <__LOCK_REGION_LENGTH__+0x31e>
     726:	00 c0       	rjmp	.+0      	; 0x728 <__LOCK_REGION_LENGTH__+0x328>
     728:	00 00       	nop
					_delay_ms(period);
					PORTD = 0x0C;
     72a:	22 bb       	out	0x12, r18	; 18
     72c:	ef ef       	ldi	r30, 0xFF	; 255
     72e:	61 ee       	ldi	r22, 0xE1	; 225
     730:	74 e0       	ldi	r23, 0x04	; 4
     732:	e1 50       	subi	r30, 0x01	; 1
     734:	60 40       	sbci	r22, 0x00	; 0
     736:	70 40       	sbci	r23, 0x00	; 0
     738:	e1 f7       	brne	.-8      	; 0x732 <__LOCK_REGION_LENGTH__+0x332>
     73a:	00 c0       	rjmp	.+0      	; 0x73c <__LOCK_REGION_LENGTH__+0x33c>
     73c:	00 00       	nop
     73e:	01 97       	sbiw	r24, 0x01	; 1
				PORTD = 0x09; /* Last step to initial position */
				_delay_ms(period);
				_delay_ms(1000);

				/* Rotate Stepper Motor Anticlockwise with Full step sequence */
				for (int i = 0; i < 12; i++)
     740:	b1 f6       	brne	.-84     	; 0x6ee <__LOCK_REGION_LENGTH__+0x2ee>
					PORTD = 0x06;
					_delay_ms(period);
					PORTD = 0x0C;
					_delay_ms(period);
				}
				PORTD = 0x09;
     742:	89 e0       	ldi	r24, 0x09	; 9
     744:	82 bb       	out	0x12, r24	; 18
     746:	8f ef       	ldi	r24, 0xFF	; 255
     748:	91 ee       	ldi	r25, 0xE1	; 225
     74a:	a4 e0       	ldi	r26, 0x04	; 4
     74c:	81 50       	subi	r24, 0x01	; 1
     74e:	90 40       	sbci	r25, 0x00	; 0
     750:	a0 40       	sbci	r26, 0x00	; 0
     752:	e1 f7       	brne	.-8      	; 0x74c <__LOCK_REGION_LENGTH__+0x34c>
     754:	00 c0       	rjmp	.+0      	; 0x756 <__LOCK_REGION_LENGTH__+0x356>
     756:	00 00       	nop
     758:	bf ef       	ldi	r27, 0xFF	; 255
     75a:	c3 ed       	ldi	r28, 0xD3	; 211
     75c:	e0 e3       	ldi	r30, 0x30	; 48
     75e:	b1 50       	subi	r27, 0x01	; 1
     760:	c0 40       	sbci	r28, 0x00	; 0
     762:	e0 40       	sbci	r30, 0x00	; 0
     764:	e1 f7       	brne	.-8      	; 0x75e <__LOCK_REGION_LENGTH__+0x35e>
     766:	00 c0       	rjmp	.+0      	; 0x768 <__LOCK_REGION_LENGTH__+0x368>
     768:	00 00       	nop
     76a:	0c 94 2c 3b 	jmp	0x7658	; 0x7658 <__stack+0x6df9>
	int period = 100; /* Set period in between two steps */
    PORTC =0x01;
	switch (curryNum)
	{
		case 1:
		switch (personNum)
     76e:	8c e0       	ldi	r24, 0x0C	; 12
     770:	90 e0       	ldi	r25, 0x00	; 0
			case 5:
			{
				/* Rotate Stepper Motor clockwise with Half step sequence */
				for (int i = 0; i < 12; i++)
				{
					PORTD = 0x09;
     772:	f9 e0       	ldi	r31, 0x09	; 9
					_delay_ms(period);
					PORTD = 0x08;
     774:	e8 e0       	ldi	r30, 0x08	; 8
					_delay_ms(period);
					PORTD = 0x0C;
     776:	7c e0       	ldi	r23, 0x0C	; 12
					_delay_ms(period);
					PORTD = 0x04;
     778:	64 e0       	ldi	r22, 0x04	; 4
					_delay_ms(period);
					PORTD = 0x06;
     77a:	56 e0       	ldi	r21, 0x06	; 6
					_delay_ms(period);
					PORTD = 0x02;
     77c:	42 e0       	ldi	r20, 0x02	; 2
					_delay_ms(period);
					PORTD = 0x03;
     77e:	33 e0       	ldi	r19, 0x03	; 3
					_delay_ms(period);
					PORTD = 0x01;
     780:	21 e0       	ldi	r18, 0x01	; 1
			case 5:
			{
				/* Rotate Stepper Motor clockwise with Half step sequence */
				for (int i = 0; i < 12; i++)
				{
					PORTD = 0x09;
     782:	f2 bb       	out	0x12, r31	; 18
     784:	af ef       	ldi	r26, 0xFF	; 255
     786:	b1 ee       	ldi	r27, 0xE1	; 225
     788:	c4 e0       	ldi	r28, 0x04	; 4
     78a:	a1 50       	subi	r26, 0x01	; 1
     78c:	b0 40       	sbci	r27, 0x00	; 0
     78e:	c0 40       	sbci	r28, 0x00	; 0
     790:	e1 f7       	brne	.-8      	; 0x78a <__LOCK_REGION_LENGTH__+0x38a>
     792:	00 c0       	rjmp	.+0      	; 0x794 <__LOCK_REGION_LENGTH__+0x394>
     794:	00 00       	nop
					_delay_ms(period);
					PORTD = 0x08;
     796:	e2 bb       	out	0x12, r30	; 18
     798:	af ef       	ldi	r26, 0xFF	; 255
     79a:	b1 ee       	ldi	r27, 0xE1	; 225
     79c:	c4 e0       	ldi	r28, 0x04	; 4
     79e:	a1 50       	subi	r26, 0x01	; 1
     7a0:	b0 40       	sbci	r27, 0x00	; 0
     7a2:	c0 40       	sbci	r28, 0x00	; 0
     7a4:	e1 f7       	brne	.-8      	; 0x79e <__LOCK_REGION_LENGTH__+0x39e>
     7a6:	00 c0       	rjmp	.+0      	; 0x7a8 <__LOCK_REGION_LENGTH__+0x3a8>
     7a8:	00 00       	nop
					_delay_ms(period);
					PORTD = 0x0C;
     7aa:	72 bb       	out	0x12, r23	; 18
     7ac:	af ef       	ldi	r26, 0xFF	; 255
     7ae:	b1 ee       	ldi	r27, 0xE1	; 225
     7b0:	c4 e0       	ldi	r28, 0x04	; 4
     7b2:	a1 50       	subi	r26, 0x01	; 1
     7b4:	b0 40       	sbci	r27, 0x00	; 0
     7b6:	c0 40       	sbci	r28, 0x00	; 0
     7b8:	e1 f7       	brne	.-8      	; 0x7b2 <__LOCK_REGION_LENGTH__+0x3b2>
     7ba:	00 c0       	rjmp	.+0      	; 0x7bc <__LOCK_REGION_LENGTH__+0x3bc>
     7bc:	00 00       	nop
					_delay_ms(period);
					PORTD = 0x04;
     7be:	62 bb       	out	0x12, r22	; 18
     7c0:	af ef       	ldi	r26, 0xFF	; 255
     7c2:	b1 ee       	ldi	r27, 0xE1	; 225
     7c4:	c4 e0       	ldi	r28, 0x04	; 4
     7c6:	a1 50       	subi	r26, 0x01	; 1
     7c8:	b0 40       	sbci	r27, 0x00	; 0
     7ca:	c0 40       	sbci	r28, 0x00	; 0
     7cc:	e1 f7       	brne	.-8      	; 0x7c6 <__LOCK_REGION_LENGTH__+0x3c6>
     7ce:	00 c0       	rjmp	.+0      	; 0x7d0 <__LOCK_REGION_LENGTH__+0x3d0>
     7d0:	00 00       	nop
					_delay_ms(period);
					PORTD = 0x06;
     7d2:	52 bb       	out	0x12, r21	; 18
     7d4:	af ef       	ldi	r26, 0xFF	; 255
     7d6:	b1 ee       	ldi	r27, 0xE1	; 225
     7d8:	c4 e0       	ldi	r28, 0x04	; 4
     7da:	a1 50       	subi	r26, 0x01	; 1
     7dc:	b0 40       	sbci	r27, 0x00	; 0
     7de:	c0 40       	sbci	r28, 0x00	; 0
     7e0:	e1 f7       	brne	.-8      	; 0x7da <__LOCK_REGION_LENGTH__+0x3da>
     7e2:	00 c0       	rjmp	.+0      	; 0x7e4 <__LOCK_REGION_LENGTH__+0x3e4>
     7e4:	00 00       	nop
					_delay_ms(period);
					PORTD = 0x02;
     7e6:	42 bb       	out	0x12, r20	; 18
     7e8:	af ef       	ldi	r26, 0xFF	; 255
     7ea:	b1 ee       	ldi	r27, 0xE1	; 225
     7ec:	c4 e0       	ldi	r28, 0x04	; 4
     7ee:	a1 50       	subi	r26, 0x01	; 1
     7f0:	b0 40       	sbci	r27, 0x00	; 0
     7f2:	c0 40       	sbci	r28, 0x00	; 0
     7f4:	e1 f7       	brne	.-8      	; 0x7ee <__LOCK_REGION_LENGTH__+0x3ee>
     7f6:	00 c0       	rjmp	.+0      	; 0x7f8 <__LOCK_REGION_LENGTH__+0x3f8>
     7f8:	00 00       	nop
					_delay_ms(period);
					PORTD = 0x03;
     7fa:	32 bb       	out	0x12, r19	; 18
     7fc:	af ef       	ldi	r26, 0xFF	; 255
     7fe:	b1 ee       	ldi	r27, 0xE1	; 225
     800:	c4 e0       	ldi	r28, 0x04	; 4
     802:	a1 50       	subi	r26, 0x01	; 1
     804:	b0 40       	sbci	r27, 0x00	; 0
     806:	c0 40       	sbci	r28, 0x00	; 0
     808:	e1 f7       	brne	.-8      	; 0x802 <__LOCK_REGION_LENGTH__+0x402>
     80a:	00 c0       	rjmp	.+0      	; 0x80c <__LOCK_REGION_LENGTH__+0x40c>
     80c:	00 00       	nop
					_delay_ms(period);
					PORTD = 0x01;
     80e:	22 bb       	out	0x12, r18	; 18
     810:	af ef       	ldi	r26, 0xFF	; 255
     812:	b1 ee       	ldi	r27, 0xE1	; 225
     814:	c4 e0       	ldi	r28, 0x04	; 4
     816:	a1 50       	subi	r26, 0x01	; 1
     818:	b0 40       	sbci	r27, 0x00	; 0
     81a:	c0 40       	sbci	r28, 0x00	; 0
     81c:	e1 f7       	brne	.-8      	; 0x816 <__LOCK_REGION_LENGTH__+0x416>
     81e:	00 c0       	rjmp	.+0      	; 0x820 <__LOCK_REGION_LENGTH__+0x420>
     820:	00 00       	nop
     822:	01 97       	sbiw	r24, 0x01	; 1
				break;
			}
			case 5:
			{
				/* Rotate Stepper Motor clockwise with Half step sequence */
				for (int i = 0; i < 12; i++)
     824:	09 f0       	breq	.+2      	; 0x828 <__LOCK_REGION_LENGTH__+0x428>
     826:	ad cf       	rjmp	.-166    	; 0x782 <__LOCK_REGION_LENGTH__+0x382>
					PORTD = 0x03;
					_delay_ms(period);
					PORTD = 0x01;
					_delay_ms(period);
				}
				PORTD = 0x09; /* Last step to initial position */
     828:	89 e0       	ldi	r24, 0x09	; 9
     82a:	82 bb       	out	0x12, r24	; 18
     82c:	ef ef       	ldi	r30, 0xFF	; 255
     82e:	21 ee       	ldi	r18, 0xE1	; 225
     830:	64 e0       	ldi	r22, 0x04	; 4
     832:	e1 50       	subi	r30, 0x01	; 1
     834:	20 40       	sbci	r18, 0x00	; 0
     836:	60 40       	sbci	r22, 0x00	; 0
     838:	e1 f7       	brne	.-8      	; 0x832 <__LOCK_REGION_LENGTH__+0x432>
     83a:	00 c0       	rjmp	.+0      	; 0x83c <__LOCK_REGION_LENGTH__+0x43c>
     83c:	00 00       	nop
     83e:	7f ef       	ldi	r23, 0xFF	; 255
     840:	83 ed       	ldi	r24, 0xD3	; 211
     842:	90 e3       	ldi	r25, 0x30	; 48
     844:	71 50       	subi	r23, 0x01	; 1
     846:	80 40       	sbci	r24, 0x00	; 0
     848:	90 40       	sbci	r25, 0x00	; 0
     84a:	e1 f7       	brne	.-8      	; 0x844 <__LOCK_REGION_LENGTH__+0x444>
     84c:	00 c0       	rjmp	.+0      	; 0x84e <__LOCK_REGION_LENGTH__+0x44e>
     84e:	00 00       	nop
     850:	8c e0       	ldi	r24, 0x0C	; 12
     852:	90 e0       	ldi	r25, 0x00	; 0
				_delay_ms(1000);

				/* Rotate Stepper Motor Anticlockwise with Full step sequence */
				for (int i = 0; i < 12; i++)
				{
					PORTD = 0x09;
     854:	59 e0       	ldi	r21, 0x09	; 9
					_delay_ms(period);
					PORTD = 0x03;
     856:	43 e0       	ldi	r20, 0x03	; 3
					_delay_ms(period);
					PORTD = 0x06;
     858:	36 e0       	ldi	r19, 0x06	; 6
					_delay_ms(period);
					PORTD = 0x0C;
     85a:	2c e0       	ldi	r18, 0x0C	; 12
				_delay_ms(1000);

				/* Rotate Stepper Motor Anticlockwise with Full step sequence */
				for (int i = 0; i < 12; i++)
				{
					PORTD = 0x09;
     85c:	52 bb       	out	0x12, r21	; 18
     85e:	af ef       	ldi	r26, 0xFF	; 255
     860:	b1 ee       	ldi	r27, 0xE1	; 225
     862:	c4 e0       	ldi	r28, 0x04	; 4
     864:	a1 50       	subi	r26, 0x01	; 1
     866:	b0 40       	sbci	r27, 0x00	; 0
     868:	c0 40       	sbci	r28, 0x00	; 0
     86a:	e1 f7       	brne	.-8      	; 0x864 <__stack+0x5>
     86c:	00 c0       	rjmp	.+0      	; 0x86e <__stack+0xf>
     86e:	00 00       	nop
					_delay_ms(period);
					PORTD = 0x03;
     870:	42 bb       	out	0x12, r20	; 18
     872:	ef ef       	ldi	r30, 0xFF	; 255
     874:	61 ee       	ldi	r22, 0xE1	; 225
     876:	74 e0       	ldi	r23, 0x04	; 4
     878:	e1 50       	subi	r30, 0x01	; 1
     87a:	60 40       	sbci	r22, 0x00	; 0
     87c:	70 40       	sbci	r23, 0x00	; 0
     87e:	e1 f7       	brne	.-8      	; 0x878 <__stack+0x19>
     880:	00 c0       	rjmp	.+0      	; 0x882 <__stack+0x23>
     882:	00 00       	nop
					_delay_ms(period);
					PORTD = 0x06;
     884:	32 bb       	out	0x12, r19	; 18
     886:	af ef       	ldi	r26, 0xFF	; 255
     888:	b1 ee       	ldi	r27, 0xE1	; 225
     88a:	c4 e0       	ldi	r28, 0x04	; 4
     88c:	a1 50       	subi	r26, 0x01	; 1
     88e:	b0 40       	sbci	r27, 0x00	; 0
     890:	c0 40       	sbci	r28, 0x00	; 0
     892:	e1 f7       	brne	.-8      	; 0x88c <__stack+0x2d>
     894:	00 c0       	rjmp	.+0      	; 0x896 <__stack+0x37>
     896:	00 00       	nop
					_delay_ms(period);
					PORTD = 0x0C;
     898:	22 bb       	out	0x12, r18	; 18
     89a:	ef ef       	ldi	r30, 0xFF	; 255
     89c:	61 ee       	ldi	r22, 0xE1	; 225
     89e:	74 e0       	ldi	r23, 0x04	; 4
     8a0:	e1 50       	subi	r30, 0x01	; 1
     8a2:	60 40       	sbci	r22, 0x00	; 0
     8a4:	70 40       	sbci	r23, 0x00	; 0
     8a6:	e1 f7       	brne	.-8      	; 0x8a0 <__stack+0x41>
     8a8:	00 c0       	rjmp	.+0      	; 0x8aa <__stack+0x4b>
     8aa:	00 00       	nop
     8ac:	01 97       	sbiw	r24, 0x01	; 1
				PORTD = 0x09; /* Last step to initial position */
				_delay_ms(period);
				_delay_ms(1000);

				/* Rotate Stepper Motor Anticlockwise with Full step sequence */
				for (int i = 0; i < 12; i++)
     8ae:	b1 f6       	brne	.-84     	; 0x85c <__LOCK_REGION_LENGTH__+0x45c>
					PORTD = 0x06;
					_delay_ms(period);
					PORTD = 0x0C;
					_delay_ms(period);
				}
				PORTD = 0x09;
     8b0:	89 e0       	ldi	r24, 0x09	; 9
     8b2:	82 bb       	out	0x12, r24	; 18
     8b4:	8f ef       	ldi	r24, 0xFF	; 255
     8b6:	91 ee       	ldi	r25, 0xE1	; 225
     8b8:	a4 e0       	ldi	r26, 0x04	; 4
     8ba:	81 50       	subi	r24, 0x01	; 1
     8bc:	90 40       	sbci	r25, 0x00	; 0
     8be:	a0 40       	sbci	r26, 0x00	; 0
     8c0:	e1 f7       	brne	.-8      	; 0x8ba <__stack+0x5b>
     8c2:	00 c0       	rjmp	.+0      	; 0x8c4 <__stack+0x65>
     8c4:	00 00       	nop
     8c6:	bf ef       	ldi	r27, 0xFF	; 255
     8c8:	c3 ed       	ldi	r28, 0xD3	; 211
     8ca:	e0 e3       	ldi	r30, 0x30	; 48
     8cc:	b1 50       	subi	r27, 0x01	; 1
     8ce:	c0 40       	sbci	r28, 0x00	; 0
     8d0:	e0 40       	sbci	r30, 0x00	; 0
     8d2:	e1 f7       	brne	.-8      	; 0x8cc <__stack+0x6d>
     8d4:	00 c0       	rjmp	.+0      	; 0x8d6 <__stack+0x77>
     8d6:	00 00       	nop
     8d8:	0c 94 2c 3b 	jmp	0x7658	; 0x7658 <__stack+0x6df9>
	int period = 100; /* Set period in between two steps */
    PORTC =0x01;
	switch (curryNum)
	{
		case 1:
		switch (personNum)
     8dc:	8c e0       	ldi	r24, 0x0C	; 12
     8de:	90 e0       	ldi	r25, 0x00	; 0
			case 6:
			{
				/* Rotate Stepper Motor clockwise with Half step sequence */
				for (int i = 0; i < 12; i++)
				{
					PORTD = 0x09;
     8e0:	f9 e0       	ldi	r31, 0x09	; 9
					_delay_ms(period);
					PORTD = 0x08;
     8e2:	e8 e0       	ldi	r30, 0x08	; 8
					_delay_ms(period);
					PORTD = 0x0C;
     8e4:	7c e0       	ldi	r23, 0x0C	; 12
					_delay_ms(period);
					PORTD = 0x04;
     8e6:	64 e0       	ldi	r22, 0x04	; 4
					_delay_ms(period);
					PORTD = 0x06;
     8e8:	56 e0       	ldi	r21, 0x06	; 6
					_delay_ms(period);
					PORTD = 0x02;
     8ea:	42 e0       	ldi	r20, 0x02	; 2
					_delay_ms(period);
					PORTD = 0x03;
     8ec:	33 e0       	ldi	r19, 0x03	; 3
					_delay_ms(period);
					PORTD = 0x01;
     8ee:	21 e0       	ldi	r18, 0x01	; 1
			case 6:
			{
				/* Rotate Stepper Motor clockwise with Half step sequence */
				for (int i = 0; i < 12; i++)
				{
					PORTD = 0x09;
     8f0:	f2 bb       	out	0x12, r31	; 18
     8f2:	af ef       	ldi	r26, 0xFF	; 255
     8f4:	b1 ee       	ldi	r27, 0xE1	; 225
     8f6:	c4 e0       	ldi	r28, 0x04	; 4
     8f8:	a1 50       	subi	r26, 0x01	; 1
     8fa:	b0 40       	sbci	r27, 0x00	; 0
     8fc:	c0 40       	sbci	r28, 0x00	; 0
     8fe:	e1 f7       	brne	.-8      	; 0x8f8 <__stack+0x99>
     900:	00 c0       	rjmp	.+0      	; 0x902 <__stack+0xa3>
     902:	00 00       	nop
					_delay_ms(period);
					PORTD = 0x08;
     904:	e2 bb       	out	0x12, r30	; 18
     906:	af ef       	ldi	r26, 0xFF	; 255
     908:	b1 ee       	ldi	r27, 0xE1	; 225
     90a:	c4 e0       	ldi	r28, 0x04	; 4
     90c:	a1 50       	subi	r26, 0x01	; 1
     90e:	b0 40       	sbci	r27, 0x00	; 0
     910:	c0 40       	sbci	r28, 0x00	; 0
     912:	e1 f7       	brne	.-8      	; 0x90c <__stack+0xad>
     914:	00 c0       	rjmp	.+0      	; 0x916 <__stack+0xb7>
     916:	00 00       	nop
					_delay_ms(period);
					PORTD = 0x0C;
     918:	72 bb       	out	0x12, r23	; 18
     91a:	af ef       	ldi	r26, 0xFF	; 255
     91c:	b1 ee       	ldi	r27, 0xE1	; 225
     91e:	c4 e0       	ldi	r28, 0x04	; 4
     920:	a1 50       	subi	r26, 0x01	; 1
     922:	b0 40       	sbci	r27, 0x00	; 0
     924:	c0 40       	sbci	r28, 0x00	; 0
     926:	e1 f7       	brne	.-8      	; 0x920 <__stack+0xc1>
     928:	00 c0       	rjmp	.+0      	; 0x92a <__stack+0xcb>
     92a:	00 00       	nop
					_delay_ms(period);
					PORTD = 0x04;
     92c:	62 bb       	out	0x12, r22	; 18
     92e:	af ef       	ldi	r26, 0xFF	; 255
     930:	b1 ee       	ldi	r27, 0xE1	; 225
     932:	c4 e0       	ldi	r28, 0x04	; 4
     934:	a1 50       	subi	r26, 0x01	; 1
     936:	b0 40       	sbci	r27, 0x00	; 0
     938:	c0 40       	sbci	r28, 0x00	; 0
     93a:	e1 f7       	brne	.-8      	; 0x934 <__stack+0xd5>
     93c:	00 c0       	rjmp	.+0      	; 0x93e <__stack+0xdf>
     93e:	00 00       	nop
					_delay_ms(period);
					PORTD = 0x06;
     940:	52 bb       	out	0x12, r21	; 18
     942:	af ef       	ldi	r26, 0xFF	; 255
     944:	b1 ee       	ldi	r27, 0xE1	; 225
     946:	c4 e0       	ldi	r28, 0x04	; 4
     948:	a1 50       	subi	r26, 0x01	; 1
     94a:	b0 40       	sbci	r27, 0x00	; 0
     94c:	c0 40       	sbci	r28, 0x00	; 0
     94e:	e1 f7       	brne	.-8      	; 0x948 <__stack+0xe9>
     950:	00 c0       	rjmp	.+0      	; 0x952 <__stack+0xf3>
     952:	00 00       	nop
					_delay_ms(period);
					PORTD = 0x02;
     954:	42 bb       	out	0x12, r20	; 18
     956:	af ef       	ldi	r26, 0xFF	; 255
     958:	b1 ee       	ldi	r27, 0xE1	; 225
     95a:	c4 e0       	ldi	r28, 0x04	; 4
     95c:	a1 50       	subi	r26, 0x01	; 1
     95e:	b0 40       	sbci	r27, 0x00	; 0
     960:	c0 40       	sbci	r28, 0x00	; 0
     962:	e1 f7       	brne	.-8      	; 0x95c <__stack+0xfd>
     964:	00 c0       	rjmp	.+0      	; 0x966 <__stack+0x107>
     966:	00 00       	nop
					_delay_ms(period);
					PORTD = 0x03;
     968:	32 bb       	out	0x12, r19	; 18
     96a:	af ef       	ldi	r26, 0xFF	; 255
     96c:	b1 ee       	ldi	r27, 0xE1	; 225
     96e:	c4 e0       	ldi	r28, 0x04	; 4
     970:	a1 50       	subi	r26, 0x01	; 1
     972:	b0 40       	sbci	r27, 0x00	; 0
     974:	c0 40       	sbci	r28, 0x00	; 0
     976:	e1 f7       	brne	.-8      	; 0x970 <__stack+0x111>
     978:	00 c0       	rjmp	.+0      	; 0x97a <__stack+0x11b>
     97a:	00 00       	nop
					_delay_ms(period);
					PORTD = 0x01;
     97c:	22 bb       	out	0x12, r18	; 18
     97e:	af ef       	ldi	r26, 0xFF	; 255
     980:	b1 ee       	ldi	r27, 0xE1	; 225
     982:	c4 e0       	ldi	r28, 0x04	; 4
     984:	a1 50       	subi	r26, 0x01	; 1
     986:	b0 40       	sbci	r27, 0x00	; 0
     988:	c0 40       	sbci	r28, 0x00	; 0
     98a:	e1 f7       	brne	.-8      	; 0x984 <__stack+0x125>
     98c:	00 c0       	rjmp	.+0      	; 0x98e <__stack+0x12f>
     98e:	00 00       	nop
     990:	01 97       	sbiw	r24, 0x01	; 1
				break;
			}
			case 6:
			{
				/* Rotate Stepper Motor clockwise with Half step sequence */
				for (int i = 0; i < 12; i++)
     992:	09 f0       	breq	.+2      	; 0x996 <__stack+0x137>
     994:	ad cf       	rjmp	.-166    	; 0x8f0 <__stack+0x91>
					PORTD = 0x03;
					_delay_ms(period);
					PORTD = 0x01;
					_delay_ms(period);
				}
				PORTD = 0x09; /* Last step to initial position */
     996:	89 e0       	ldi	r24, 0x09	; 9
     998:	82 bb       	out	0x12, r24	; 18
     99a:	ef ef       	ldi	r30, 0xFF	; 255
     99c:	21 ee       	ldi	r18, 0xE1	; 225
     99e:	64 e0       	ldi	r22, 0x04	; 4
     9a0:	e1 50       	subi	r30, 0x01	; 1
     9a2:	20 40       	sbci	r18, 0x00	; 0
     9a4:	60 40       	sbci	r22, 0x00	; 0
     9a6:	e1 f7       	brne	.-8      	; 0x9a0 <__stack+0x141>
     9a8:	00 c0       	rjmp	.+0      	; 0x9aa <__stack+0x14b>
     9aa:	00 00       	nop
     9ac:	7f ef       	ldi	r23, 0xFF	; 255
     9ae:	83 ed       	ldi	r24, 0xD3	; 211
     9b0:	90 e3       	ldi	r25, 0x30	; 48
     9b2:	71 50       	subi	r23, 0x01	; 1
     9b4:	80 40       	sbci	r24, 0x00	; 0
     9b6:	90 40       	sbci	r25, 0x00	; 0
     9b8:	e1 f7       	brne	.-8      	; 0x9b2 <__stack+0x153>
     9ba:	00 c0       	rjmp	.+0      	; 0x9bc <__stack+0x15d>
     9bc:	00 00       	nop
     9be:	8c e0       	ldi	r24, 0x0C	; 12
     9c0:	90 e0       	ldi	r25, 0x00	; 0
				_delay_ms(1000);

				/* Rotate Stepper Motor Anticlockwise with Full step sequence */
				for (int i = 0; i < 12; i++)
				{
					PORTD = 0x09;
     9c2:	59 e0       	ldi	r21, 0x09	; 9
					_delay_ms(period);
					PORTD = 0x03;
     9c4:	43 e0       	ldi	r20, 0x03	; 3
					_delay_ms(period);
					PORTD = 0x06;
     9c6:	36 e0       	ldi	r19, 0x06	; 6
					_delay_ms(period);
					PORTD = 0x0C;
     9c8:	2c e0       	ldi	r18, 0x0C	; 12
				_delay_ms(1000);

				/* Rotate Stepper Motor Anticlockwise with Full step sequence */
				for (int i = 0; i < 12; i++)
				{
					PORTD = 0x09;
     9ca:	52 bb       	out	0x12, r21	; 18
     9cc:	af ef       	ldi	r26, 0xFF	; 255
     9ce:	b1 ee       	ldi	r27, 0xE1	; 225
     9d0:	c4 e0       	ldi	r28, 0x04	; 4
     9d2:	a1 50       	subi	r26, 0x01	; 1
     9d4:	b0 40       	sbci	r27, 0x00	; 0
     9d6:	c0 40       	sbci	r28, 0x00	; 0
     9d8:	e1 f7       	brne	.-8      	; 0x9d2 <__stack+0x173>
     9da:	00 c0       	rjmp	.+0      	; 0x9dc <__stack+0x17d>
     9dc:	00 00       	nop
					_delay_ms(period);
					PORTD = 0x03;
     9de:	42 bb       	out	0x12, r20	; 18
     9e0:	ef ef       	ldi	r30, 0xFF	; 255
     9e2:	61 ee       	ldi	r22, 0xE1	; 225
     9e4:	74 e0       	ldi	r23, 0x04	; 4
     9e6:	e1 50       	subi	r30, 0x01	; 1
     9e8:	60 40       	sbci	r22, 0x00	; 0
     9ea:	70 40       	sbci	r23, 0x00	; 0
     9ec:	e1 f7       	brne	.-8      	; 0x9e6 <__stack+0x187>
     9ee:	00 c0       	rjmp	.+0      	; 0x9f0 <__stack+0x191>
     9f0:	00 00       	nop
					_delay_ms(period);
					PORTD = 0x06;
     9f2:	32 bb       	out	0x12, r19	; 18
     9f4:	af ef       	ldi	r26, 0xFF	; 255
     9f6:	b1 ee       	ldi	r27, 0xE1	; 225
     9f8:	c4 e0       	ldi	r28, 0x04	; 4
     9fa:	a1 50       	subi	r26, 0x01	; 1
     9fc:	b0 40       	sbci	r27, 0x00	; 0
     9fe:	c0 40       	sbci	r28, 0x00	; 0
     a00:	e1 f7       	brne	.-8      	; 0x9fa <__stack+0x19b>
     a02:	00 c0       	rjmp	.+0      	; 0xa04 <__stack+0x1a5>
     a04:	00 00       	nop
					_delay_ms(period);
					PORTD = 0x0C;
     a06:	22 bb       	out	0x12, r18	; 18
     a08:	ef ef       	ldi	r30, 0xFF	; 255
     a0a:	61 ee       	ldi	r22, 0xE1	; 225
     a0c:	74 e0       	ldi	r23, 0x04	; 4
     a0e:	e1 50       	subi	r30, 0x01	; 1
     a10:	60 40       	sbci	r22, 0x00	; 0
     a12:	70 40       	sbci	r23, 0x00	; 0
     a14:	e1 f7       	brne	.-8      	; 0xa0e <__stack+0x1af>
     a16:	00 c0       	rjmp	.+0      	; 0xa18 <__stack+0x1b9>
     a18:	00 00       	nop
     a1a:	01 97       	sbiw	r24, 0x01	; 1
				PORTD = 0x09; /* Last step to initial position */
				_delay_ms(period);
				_delay_ms(1000);

				/* Rotate Stepper Motor Anticlockwise with Full step sequence */
				for (int i = 0; i < 12; i++)
     a1c:	b1 f6       	brne	.-84     	; 0x9ca <__stack+0x16b>
					PORTD = 0x06;
					_delay_ms(period);
					PORTD = 0x0C;
					_delay_ms(period);
				}
				PORTD = 0x09;
     a1e:	89 e0       	ldi	r24, 0x09	; 9
     a20:	82 bb       	out	0x12, r24	; 18
     a22:	8f ef       	ldi	r24, 0xFF	; 255
     a24:	91 ee       	ldi	r25, 0xE1	; 225
     a26:	a4 e0       	ldi	r26, 0x04	; 4
     a28:	81 50       	subi	r24, 0x01	; 1
     a2a:	90 40       	sbci	r25, 0x00	; 0
     a2c:	a0 40       	sbci	r26, 0x00	; 0
     a2e:	e1 f7       	brne	.-8      	; 0xa28 <__stack+0x1c9>
     a30:	00 c0       	rjmp	.+0      	; 0xa32 <__stack+0x1d3>
     a32:	00 00       	nop
     a34:	bf ef       	ldi	r27, 0xFF	; 255
     a36:	c3 ed       	ldi	r28, 0xD3	; 211
     a38:	e0 e3       	ldi	r30, 0x30	; 48
     a3a:	b1 50       	subi	r27, 0x01	; 1
     a3c:	c0 40       	sbci	r28, 0x00	; 0
     a3e:	e0 40       	sbci	r30, 0x00	; 0
     a40:	e1 f7       	brne	.-8      	; 0xa3a <__stack+0x1db>
     a42:	00 c0       	rjmp	.+0      	; 0xa44 <__stack+0x1e5>
     a44:	00 00       	nop
     a46:	0c 94 2c 3b 	jmp	0x7658	; 0x7658 <__stack+0x6df9>
	int period = 100; /* Set period in between two steps */
    PORTC =0x01;
	switch (curryNum)
	{
		case 1:
		switch (personNum)
     a4a:	8c e0       	ldi	r24, 0x0C	; 12
     a4c:	90 e0       	ldi	r25, 0x00	; 0
			case 7:
			{
				/* Rotate Stepper Motor clockwise with Half step sequence */
				for (int i = 0; i < 12; i++)
				{
					PORTD = 0x09;
     a4e:	f9 e0       	ldi	r31, 0x09	; 9
					_delay_ms(period);
					PORTD = 0x08;
     a50:	e8 e0       	ldi	r30, 0x08	; 8
					_delay_ms(period);
					PORTD = 0x0C;
     a52:	7c e0       	ldi	r23, 0x0C	; 12
					_delay_ms(period);
					PORTD = 0x04;
     a54:	64 e0       	ldi	r22, 0x04	; 4
					_delay_ms(period);
					PORTD = 0x06;
     a56:	56 e0       	ldi	r21, 0x06	; 6
					_delay_ms(period);
					PORTD = 0x02;
     a58:	42 e0       	ldi	r20, 0x02	; 2
					_delay_ms(period);
					PORTD = 0x03;
     a5a:	33 e0       	ldi	r19, 0x03	; 3
					_delay_ms(period);
					PORTD = 0x01;
     a5c:	21 e0       	ldi	r18, 0x01	; 1
			case 7:
			{
				/* Rotate Stepper Motor clockwise with Half step sequence */
				for (int i = 0; i < 12; i++)
				{
					PORTD = 0x09;
     a5e:	f2 bb       	out	0x12, r31	; 18
     a60:	af ef       	ldi	r26, 0xFF	; 255
     a62:	b1 ee       	ldi	r27, 0xE1	; 225
     a64:	c4 e0       	ldi	r28, 0x04	; 4
     a66:	a1 50       	subi	r26, 0x01	; 1
     a68:	b0 40       	sbci	r27, 0x00	; 0
     a6a:	c0 40       	sbci	r28, 0x00	; 0
     a6c:	e1 f7       	brne	.-8      	; 0xa66 <__stack+0x207>
     a6e:	00 c0       	rjmp	.+0      	; 0xa70 <__stack+0x211>
     a70:	00 00       	nop
					_delay_ms(period);
					PORTD = 0x08;
     a72:	e2 bb       	out	0x12, r30	; 18
     a74:	af ef       	ldi	r26, 0xFF	; 255
     a76:	b1 ee       	ldi	r27, 0xE1	; 225
     a78:	c4 e0       	ldi	r28, 0x04	; 4
     a7a:	a1 50       	subi	r26, 0x01	; 1
     a7c:	b0 40       	sbci	r27, 0x00	; 0
     a7e:	c0 40       	sbci	r28, 0x00	; 0
     a80:	e1 f7       	brne	.-8      	; 0xa7a <__stack+0x21b>
     a82:	00 c0       	rjmp	.+0      	; 0xa84 <__stack+0x225>
     a84:	00 00       	nop
					_delay_ms(period);
					PORTD = 0x0C;
     a86:	72 bb       	out	0x12, r23	; 18
     a88:	af ef       	ldi	r26, 0xFF	; 255
     a8a:	b1 ee       	ldi	r27, 0xE1	; 225
     a8c:	c4 e0       	ldi	r28, 0x04	; 4
     a8e:	a1 50       	subi	r26, 0x01	; 1
     a90:	b0 40       	sbci	r27, 0x00	; 0
     a92:	c0 40       	sbci	r28, 0x00	; 0
     a94:	e1 f7       	brne	.-8      	; 0xa8e <__stack+0x22f>
     a96:	00 c0       	rjmp	.+0      	; 0xa98 <__stack+0x239>
     a98:	00 00       	nop
					_delay_ms(period);
					PORTD = 0x04;
     a9a:	62 bb       	out	0x12, r22	; 18
     a9c:	af ef       	ldi	r26, 0xFF	; 255
     a9e:	b1 ee       	ldi	r27, 0xE1	; 225
     aa0:	c4 e0       	ldi	r28, 0x04	; 4
     aa2:	a1 50       	subi	r26, 0x01	; 1
     aa4:	b0 40       	sbci	r27, 0x00	; 0
     aa6:	c0 40       	sbci	r28, 0x00	; 0
     aa8:	e1 f7       	brne	.-8      	; 0xaa2 <__stack+0x243>
     aaa:	00 c0       	rjmp	.+0      	; 0xaac <__stack+0x24d>
     aac:	00 00       	nop
					_delay_ms(period);
					PORTD = 0x06;
     aae:	52 bb       	out	0x12, r21	; 18
     ab0:	af ef       	ldi	r26, 0xFF	; 255
     ab2:	b1 ee       	ldi	r27, 0xE1	; 225
     ab4:	c4 e0       	ldi	r28, 0x04	; 4
     ab6:	a1 50       	subi	r26, 0x01	; 1
     ab8:	b0 40       	sbci	r27, 0x00	; 0
     aba:	c0 40       	sbci	r28, 0x00	; 0
     abc:	e1 f7       	brne	.-8      	; 0xab6 <__stack+0x257>
     abe:	00 c0       	rjmp	.+0      	; 0xac0 <__stack+0x261>
     ac0:	00 00       	nop
					_delay_ms(period);
					PORTD = 0x02;
     ac2:	42 bb       	out	0x12, r20	; 18
     ac4:	af ef       	ldi	r26, 0xFF	; 255
     ac6:	b1 ee       	ldi	r27, 0xE1	; 225
     ac8:	c4 e0       	ldi	r28, 0x04	; 4
     aca:	a1 50       	subi	r26, 0x01	; 1
     acc:	b0 40       	sbci	r27, 0x00	; 0
     ace:	c0 40       	sbci	r28, 0x00	; 0
     ad0:	e1 f7       	brne	.-8      	; 0xaca <__stack+0x26b>
     ad2:	00 c0       	rjmp	.+0      	; 0xad4 <__stack+0x275>
     ad4:	00 00       	nop
					_delay_ms(period);
					PORTD = 0x03;
     ad6:	32 bb       	out	0x12, r19	; 18
     ad8:	af ef       	ldi	r26, 0xFF	; 255
     ada:	b1 ee       	ldi	r27, 0xE1	; 225
     adc:	c4 e0       	ldi	r28, 0x04	; 4
     ade:	a1 50       	subi	r26, 0x01	; 1
     ae0:	b0 40       	sbci	r27, 0x00	; 0
     ae2:	c0 40       	sbci	r28, 0x00	; 0
     ae4:	e1 f7       	brne	.-8      	; 0xade <__stack+0x27f>
     ae6:	00 c0       	rjmp	.+0      	; 0xae8 <__stack+0x289>
     ae8:	00 00       	nop
					_delay_ms(period);
					PORTD = 0x01;
     aea:	22 bb       	out	0x12, r18	; 18
     aec:	af ef       	ldi	r26, 0xFF	; 255
     aee:	b1 ee       	ldi	r27, 0xE1	; 225
     af0:	c4 e0       	ldi	r28, 0x04	; 4
     af2:	a1 50       	subi	r26, 0x01	; 1
     af4:	b0 40       	sbci	r27, 0x00	; 0
     af6:	c0 40       	sbci	r28, 0x00	; 0
     af8:	e1 f7       	brne	.-8      	; 0xaf2 <__stack+0x293>
     afa:	00 c0       	rjmp	.+0      	; 0xafc <__stack+0x29d>
     afc:	00 00       	nop
     afe:	01 97       	sbiw	r24, 0x01	; 1
				break;
			}
			case 7:
			{
				/* Rotate Stepper Motor clockwise with Half step sequence */
				for (int i = 0; i < 12; i++)
     b00:	09 f0       	breq	.+2      	; 0xb04 <__stack+0x2a5>
     b02:	ad cf       	rjmp	.-166    	; 0xa5e <__stack+0x1ff>
					PORTD = 0x03;
					_delay_ms(period);
					PORTD = 0x01;
					_delay_ms(period);
				}
				PORTD = 0x09; /* Last step to initial position */
     b04:	89 e0       	ldi	r24, 0x09	; 9
     b06:	82 bb       	out	0x12, r24	; 18
     b08:	ef ef       	ldi	r30, 0xFF	; 255
     b0a:	21 ee       	ldi	r18, 0xE1	; 225
     b0c:	64 e0       	ldi	r22, 0x04	; 4
     b0e:	e1 50       	subi	r30, 0x01	; 1
     b10:	20 40       	sbci	r18, 0x00	; 0
     b12:	60 40       	sbci	r22, 0x00	; 0
     b14:	e1 f7       	brne	.-8      	; 0xb0e <__stack+0x2af>
     b16:	00 c0       	rjmp	.+0      	; 0xb18 <__stack+0x2b9>
     b18:	00 00       	nop
     b1a:	7f ef       	ldi	r23, 0xFF	; 255
     b1c:	83 ed       	ldi	r24, 0xD3	; 211
     b1e:	90 e3       	ldi	r25, 0x30	; 48
     b20:	71 50       	subi	r23, 0x01	; 1
     b22:	80 40       	sbci	r24, 0x00	; 0
     b24:	90 40       	sbci	r25, 0x00	; 0
     b26:	e1 f7       	brne	.-8      	; 0xb20 <__stack+0x2c1>
     b28:	00 c0       	rjmp	.+0      	; 0xb2a <__stack+0x2cb>
     b2a:	00 00       	nop
     b2c:	8c e0       	ldi	r24, 0x0C	; 12
     b2e:	90 e0       	ldi	r25, 0x00	; 0
				_delay_ms(1000);

				/* Rotate Stepper Motor Anticlockwise with Full step sequence */
				for (int i = 0; i < 12; i++)
				{
					PORTD = 0x09;
     b30:	59 e0       	ldi	r21, 0x09	; 9
					_delay_ms(period);
					PORTD = 0x03;
     b32:	43 e0       	ldi	r20, 0x03	; 3
					_delay_ms(period);
					PORTD = 0x06;
     b34:	36 e0       	ldi	r19, 0x06	; 6
					_delay_ms(period);
					PORTD = 0x0C;
     b36:	2c e0       	ldi	r18, 0x0C	; 12
				_delay_ms(1000);

				/* Rotate Stepper Motor Anticlockwise with Full step sequence */
				for (int i = 0; i < 12; i++)
				{
					PORTD = 0x09;
     b38:	52 bb       	out	0x12, r21	; 18
     b3a:	af ef       	ldi	r26, 0xFF	; 255
     b3c:	b1 ee       	ldi	r27, 0xE1	; 225
     b3e:	c4 e0       	ldi	r28, 0x04	; 4
     b40:	a1 50       	subi	r26, 0x01	; 1
     b42:	b0 40       	sbci	r27, 0x00	; 0
     b44:	c0 40       	sbci	r28, 0x00	; 0
     b46:	e1 f7       	brne	.-8      	; 0xb40 <__stack+0x2e1>
     b48:	00 c0       	rjmp	.+0      	; 0xb4a <__stack+0x2eb>
     b4a:	00 00       	nop
					_delay_ms(period);
					PORTD = 0x03;
     b4c:	42 bb       	out	0x12, r20	; 18
     b4e:	ef ef       	ldi	r30, 0xFF	; 255
     b50:	61 ee       	ldi	r22, 0xE1	; 225
     b52:	74 e0       	ldi	r23, 0x04	; 4
     b54:	e1 50       	subi	r30, 0x01	; 1
     b56:	60 40       	sbci	r22, 0x00	; 0
     b58:	70 40       	sbci	r23, 0x00	; 0
     b5a:	e1 f7       	brne	.-8      	; 0xb54 <__stack+0x2f5>
     b5c:	00 c0       	rjmp	.+0      	; 0xb5e <__stack+0x2ff>
     b5e:	00 00       	nop
					_delay_ms(period);
					PORTD = 0x06;
     b60:	32 bb       	out	0x12, r19	; 18
     b62:	af ef       	ldi	r26, 0xFF	; 255
     b64:	b1 ee       	ldi	r27, 0xE1	; 225
     b66:	c4 e0       	ldi	r28, 0x04	; 4
     b68:	a1 50       	subi	r26, 0x01	; 1
     b6a:	b0 40       	sbci	r27, 0x00	; 0
     b6c:	c0 40       	sbci	r28, 0x00	; 0
     b6e:	e1 f7       	brne	.-8      	; 0xb68 <__stack+0x309>
     b70:	00 c0       	rjmp	.+0      	; 0xb72 <__stack+0x313>
     b72:	00 00       	nop
					_delay_ms(period);
					PORTD = 0x0C;
     b74:	22 bb       	out	0x12, r18	; 18
     b76:	ef ef       	ldi	r30, 0xFF	; 255
     b78:	61 ee       	ldi	r22, 0xE1	; 225
     b7a:	74 e0       	ldi	r23, 0x04	; 4
     b7c:	e1 50       	subi	r30, 0x01	; 1
     b7e:	60 40       	sbci	r22, 0x00	; 0
     b80:	70 40       	sbci	r23, 0x00	; 0
     b82:	e1 f7       	brne	.-8      	; 0xb7c <__stack+0x31d>
     b84:	00 c0       	rjmp	.+0      	; 0xb86 <__stack+0x327>
     b86:	00 00       	nop
     b88:	01 97       	sbiw	r24, 0x01	; 1
				PORTD = 0x09; /* Last step to initial position */
				_delay_ms(period);
				_delay_ms(1000);

				/* Rotate Stepper Motor Anticlockwise with Full step sequence */
				for (int i = 0; i < 12; i++)
     b8a:	b1 f6       	brne	.-84     	; 0xb38 <__stack+0x2d9>
					PORTD = 0x06;
					_delay_ms(period);
					PORTD = 0x0C;
					_delay_ms(period);
				}
				PORTD = 0x09;
     b8c:	89 e0       	ldi	r24, 0x09	; 9
     b8e:	82 bb       	out	0x12, r24	; 18
     b90:	8f ef       	ldi	r24, 0xFF	; 255
     b92:	91 ee       	ldi	r25, 0xE1	; 225
     b94:	a4 e0       	ldi	r26, 0x04	; 4
     b96:	81 50       	subi	r24, 0x01	; 1
     b98:	90 40       	sbci	r25, 0x00	; 0
     b9a:	a0 40       	sbci	r26, 0x00	; 0
     b9c:	e1 f7       	brne	.-8      	; 0xb96 <__stack+0x337>
     b9e:	00 c0       	rjmp	.+0      	; 0xba0 <__stack+0x341>
     ba0:	00 00       	nop
     ba2:	bf ef       	ldi	r27, 0xFF	; 255
     ba4:	c3 ed       	ldi	r28, 0xD3	; 211
     ba6:	e0 e3       	ldi	r30, 0x30	; 48
     ba8:	b1 50       	subi	r27, 0x01	; 1
     baa:	c0 40       	sbci	r28, 0x00	; 0
     bac:	e0 40       	sbci	r30, 0x00	; 0
     bae:	e1 f7       	brne	.-8      	; 0xba8 <__stack+0x349>
     bb0:	00 c0       	rjmp	.+0      	; 0xbb2 <__stack+0x353>
     bb2:	00 00       	nop
     bb4:	0c 94 2c 3b 	jmp	0x7658	; 0x7658 <__stack+0x6df9>
	int period = 100; /* Set period in between two steps */
    PORTC =0x01;
	switch (curryNum)
	{
		case 1:
		switch (personNum)
     bb8:	8c e0       	ldi	r24, 0x0C	; 12
     bba:	90 e0       	ldi	r25, 0x00	; 0
			case 8:
			{
				/* Rotate Stepper Motor clockwise with Half step sequence */
				for (int i = 0; i < 12; i++)
				{
					PORTD = 0x09;
     bbc:	f9 e0       	ldi	r31, 0x09	; 9
					_delay_ms(period);
					PORTD = 0x08;
     bbe:	e8 e0       	ldi	r30, 0x08	; 8
					_delay_ms(period);
					PORTD = 0x0C;
     bc0:	7c e0       	ldi	r23, 0x0C	; 12
					_delay_ms(period);
					PORTD = 0x04;
     bc2:	64 e0       	ldi	r22, 0x04	; 4
					_delay_ms(period);
					PORTD = 0x06;
     bc4:	56 e0       	ldi	r21, 0x06	; 6
					_delay_ms(period);
					PORTD = 0x02;
     bc6:	42 e0       	ldi	r20, 0x02	; 2
					_delay_ms(period);
					PORTD = 0x03;
     bc8:	33 e0       	ldi	r19, 0x03	; 3
					_delay_ms(period);
					PORTD = 0x01;
     bca:	21 e0       	ldi	r18, 0x01	; 1
			case 8:
			{
				/* Rotate Stepper Motor clockwise with Half step sequence */
				for (int i = 0; i < 12; i++)
				{
					PORTD = 0x09;
     bcc:	f2 bb       	out	0x12, r31	; 18
     bce:	af ef       	ldi	r26, 0xFF	; 255
     bd0:	b1 ee       	ldi	r27, 0xE1	; 225
     bd2:	c4 e0       	ldi	r28, 0x04	; 4
     bd4:	a1 50       	subi	r26, 0x01	; 1
     bd6:	b0 40       	sbci	r27, 0x00	; 0
     bd8:	c0 40       	sbci	r28, 0x00	; 0
     bda:	e1 f7       	brne	.-8      	; 0xbd4 <__stack+0x375>
     bdc:	00 c0       	rjmp	.+0      	; 0xbde <__stack+0x37f>
     bde:	00 00       	nop
					_delay_ms(period);
					PORTD = 0x08;
     be0:	e2 bb       	out	0x12, r30	; 18
     be2:	af ef       	ldi	r26, 0xFF	; 255
     be4:	b1 ee       	ldi	r27, 0xE1	; 225
     be6:	c4 e0       	ldi	r28, 0x04	; 4
     be8:	a1 50       	subi	r26, 0x01	; 1
     bea:	b0 40       	sbci	r27, 0x00	; 0
     bec:	c0 40       	sbci	r28, 0x00	; 0
     bee:	e1 f7       	brne	.-8      	; 0xbe8 <__stack+0x389>
     bf0:	00 c0       	rjmp	.+0      	; 0xbf2 <__stack+0x393>
     bf2:	00 00       	nop
					_delay_ms(period);
					PORTD = 0x0C;
     bf4:	72 bb       	out	0x12, r23	; 18
     bf6:	af ef       	ldi	r26, 0xFF	; 255
     bf8:	b1 ee       	ldi	r27, 0xE1	; 225
     bfa:	c4 e0       	ldi	r28, 0x04	; 4
     bfc:	a1 50       	subi	r26, 0x01	; 1
     bfe:	b0 40       	sbci	r27, 0x00	; 0
     c00:	c0 40       	sbci	r28, 0x00	; 0
     c02:	e1 f7       	brne	.-8      	; 0xbfc <__stack+0x39d>
     c04:	00 c0       	rjmp	.+0      	; 0xc06 <__stack+0x3a7>
     c06:	00 00       	nop
					_delay_ms(period);
					PORTD = 0x04;
     c08:	62 bb       	out	0x12, r22	; 18
     c0a:	af ef       	ldi	r26, 0xFF	; 255
     c0c:	b1 ee       	ldi	r27, 0xE1	; 225
     c0e:	c4 e0       	ldi	r28, 0x04	; 4
     c10:	a1 50       	subi	r26, 0x01	; 1
     c12:	b0 40       	sbci	r27, 0x00	; 0
     c14:	c0 40       	sbci	r28, 0x00	; 0
     c16:	e1 f7       	brne	.-8      	; 0xc10 <__stack+0x3b1>
     c18:	00 c0       	rjmp	.+0      	; 0xc1a <__stack+0x3bb>
     c1a:	00 00       	nop
					_delay_ms(period);
					PORTD = 0x06;
     c1c:	52 bb       	out	0x12, r21	; 18
     c1e:	af ef       	ldi	r26, 0xFF	; 255
     c20:	b1 ee       	ldi	r27, 0xE1	; 225
     c22:	c4 e0       	ldi	r28, 0x04	; 4
     c24:	a1 50       	subi	r26, 0x01	; 1
     c26:	b0 40       	sbci	r27, 0x00	; 0
     c28:	c0 40       	sbci	r28, 0x00	; 0
     c2a:	e1 f7       	brne	.-8      	; 0xc24 <__stack+0x3c5>
     c2c:	00 c0       	rjmp	.+0      	; 0xc2e <__stack+0x3cf>
     c2e:	00 00       	nop
					_delay_ms(period);
					PORTD = 0x02;
     c30:	42 bb       	out	0x12, r20	; 18
     c32:	af ef       	ldi	r26, 0xFF	; 255
     c34:	b1 ee       	ldi	r27, 0xE1	; 225
     c36:	c4 e0       	ldi	r28, 0x04	; 4
     c38:	a1 50       	subi	r26, 0x01	; 1
     c3a:	b0 40       	sbci	r27, 0x00	; 0
     c3c:	c0 40       	sbci	r28, 0x00	; 0
     c3e:	e1 f7       	brne	.-8      	; 0xc38 <__stack+0x3d9>
     c40:	00 c0       	rjmp	.+0      	; 0xc42 <__stack+0x3e3>
     c42:	00 00       	nop
					_delay_ms(period);
					PORTD = 0x03;
     c44:	32 bb       	out	0x12, r19	; 18
     c46:	af ef       	ldi	r26, 0xFF	; 255
     c48:	b1 ee       	ldi	r27, 0xE1	; 225
     c4a:	c4 e0       	ldi	r28, 0x04	; 4
     c4c:	a1 50       	subi	r26, 0x01	; 1
     c4e:	b0 40       	sbci	r27, 0x00	; 0
     c50:	c0 40       	sbci	r28, 0x00	; 0
     c52:	e1 f7       	brne	.-8      	; 0xc4c <__stack+0x3ed>
     c54:	00 c0       	rjmp	.+0      	; 0xc56 <__stack+0x3f7>
     c56:	00 00       	nop
					_delay_ms(period);
					PORTD = 0x01;
     c58:	22 bb       	out	0x12, r18	; 18
     c5a:	af ef       	ldi	r26, 0xFF	; 255
     c5c:	b1 ee       	ldi	r27, 0xE1	; 225
     c5e:	c4 e0       	ldi	r28, 0x04	; 4
     c60:	a1 50       	subi	r26, 0x01	; 1
     c62:	b0 40       	sbci	r27, 0x00	; 0
     c64:	c0 40       	sbci	r28, 0x00	; 0
     c66:	e1 f7       	brne	.-8      	; 0xc60 <__stack+0x401>
     c68:	00 c0       	rjmp	.+0      	; 0xc6a <__stack+0x40b>
     c6a:	00 00       	nop
     c6c:	01 97       	sbiw	r24, 0x01	; 1
				break;
			}
			case 8:
			{
				/* Rotate Stepper Motor clockwise with Half step sequence */
				for (int i = 0; i < 12; i++)
     c6e:	09 f0       	breq	.+2      	; 0xc72 <__stack+0x413>
     c70:	ad cf       	rjmp	.-166    	; 0xbcc <__stack+0x36d>
					PORTD = 0x03;
					_delay_ms(period);
					PORTD = 0x01;
					_delay_ms(period);
				}
				PORTD = 0x09; /* Last step to initial position */
     c72:	89 e0       	ldi	r24, 0x09	; 9
     c74:	82 bb       	out	0x12, r24	; 18
     c76:	ef ef       	ldi	r30, 0xFF	; 255
     c78:	21 ee       	ldi	r18, 0xE1	; 225
     c7a:	64 e0       	ldi	r22, 0x04	; 4
     c7c:	e1 50       	subi	r30, 0x01	; 1
     c7e:	20 40       	sbci	r18, 0x00	; 0
     c80:	60 40       	sbci	r22, 0x00	; 0
     c82:	e1 f7       	brne	.-8      	; 0xc7c <__stack+0x41d>
     c84:	00 c0       	rjmp	.+0      	; 0xc86 <__stack+0x427>
     c86:	00 00       	nop
     c88:	7f ef       	ldi	r23, 0xFF	; 255
     c8a:	83 ed       	ldi	r24, 0xD3	; 211
     c8c:	90 e3       	ldi	r25, 0x30	; 48
     c8e:	71 50       	subi	r23, 0x01	; 1
     c90:	80 40       	sbci	r24, 0x00	; 0
     c92:	90 40       	sbci	r25, 0x00	; 0
     c94:	e1 f7       	brne	.-8      	; 0xc8e <__stack+0x42f>
     c96:	00 c0       	rjmp	.+0      	; 0xc98 <__stack+0x439>
     c98:	00 00       	nop
     c9a:	8c e0       	ldi	r24, 0x0C	; 12
     c9c:	90 e0       	ldi	r25, 0x00	; 0
				_delay_ms(1000);

				/* Rotate Stepper Motor Anticlockwise with Full step sequence */
				for (int i = 0; i < 12; i++)
				{
					PORTD = 0x09;
     c9e:	59 e0       	ldi	r21, 0x09	; 9
					_delay_ms(period);
					PORTD = 0x03;
     ca0:	43 e0       	ldi	r20, 0x03	; 3
					_delay_ms(period);
					PORTD = 0x06;
     ca2:	36 e0       	ldi	r19, 0x06	; 6
					_delay_ms(period);
					PORTD = 0x0C;
     ca4:	2c e0       	ldi	r18, 0x0C	; 12
				_delay_ms(1000);

				/* Rotate Stepper Motor Anticlockwise with Full step sequence */
				for (int i = 0; i < 12; i++)
				{
					PORTD = 0x09;
     ca6:	52 bb       	out	0x12, r21	; 18
     ca8:	af ef       	ldi	r26, 0xFF	; 255
     caa:	b1 ee       	ldi	r27, 0xE1	; 225
     cac:	c4 e0       	ldi	r28, 0x04	; 4
     cae:	a1 50       	subi	r26, 0x01	; 1
     cb0:	b0 40       	sbci	r27, 0x00	; 0
     cb2:	c0 40       	sbci	r28, 0x00	; 0
     cb4:	e1 f7       	brne	.-8      	; 0xcae <__stack+0x44f>
     cb6:	00 c0       	rjmp	.+0      	; 0xcb8 <__stack+0x459>
     cb8:	00 00       	nop
					_delay_ms(period);
					PORTD = 0x03;
     cba:	42 bb       	out	0x12, r20	; 18
     cbc:	ef ef       	ldi	r30, 0xFF	; 255
     cbe:	61 ee       	ldi	r22, 0xE1	; 225
     cc0:	74 e0       	ldi	r23, 0x04	; 4
     cc2:	e1 50       	subi	r30, 0x01	; 1
     cc4:	60 40       	sbci	r22, 0x00	; 0
     cc6:	70 40       	sbci	r23, 0x00	; 0
     cc8:	e1 f7       	brne	.-8      	; 0xcc2 <__stack+0x463>
     cca:	00 c0       	rjmp	.+0      	; 0xccc <__stack+0x46d>
     ccc:	00 00       	nop
					_delay_ms(period);
					PORTD = 0x06;
     cce:	32 bb       	out	0x12, r19	; 18
     cd0:	af ef       	ldi	r26, 0xFF	; 255
     cd2:	b1 ee       	ldi	r27, 0xE1	; 225
     cd4:	c4 e0       	ldi	r28, 0x04	; 4
     cd6:	a1 50       	subi	r26, 0x01	; 1
     cd8:	b0 40       	sbci	r27, 0x00	; 0
     cda:	c0 40       	sbci	r28, 0x00	; 0
     cdc:	e1 f7       	brne	.-8      	; 0xcd6 <__stack+0x477>
     cde:	00 c0       	rjmp	.+0      	; 0xce0 <__stack+0x481>
     ce0:	00 00       	nop
					_delay_ms(period);
					PORTD = 0x0C;
     ce2:	22 bb       	out	0x12, r18	; 18
     ce4:	ef ef       	ldi	r30, 0xFF	; 255
     ce6:	61 ee       	ldi	r22, 0xE1	; 225
     ce8:	74 e0       	ldi	r23, 0x04	; 4
     cea:	e1 50       	subi	r30, 0x01	; 1
     cec:	60 40       	sbci	r22, 0x00	; 0
     cee:	70 40       	sbci	r23, 0x00	; 0
     cf0:	e1 f7       	brne	.-8      	; 0xcea <__stack+0x48b>
     cf2:	00 c0       	rjmp	.+0      	; 0xcf4 <__stack+0x495>
     cf4:	00 00       	nop
     cf6:	01 97       	sbiw	r24, 0x01	; 1
				PORTD = 0x09; /* Last step to initial position */
				_delay_ms(period);
				_delay_ms(1000);

				/* Rotate Stepper Motor Anticlockwise with Full step sequence */
				for (int i = 0; i < 12; i++)
     cf8:	b1 f6       	brne	.-84     	; 0xca6 <__stack+0x447>
					PORTD = 0x06;
					_delay_ms(period);
					PORTD = 0x0C;
					_delay_ms(period);
				}
				PORTD = 0x09;
     cfa:	89 e0       	ldi	r24, 0x09	; 9
     cfc:	82 bb       	out	0x12, r24	; 18
     cfe:	8f ef       	ldi	r24, 0xFF	; 255
     d00:	91 ee       	ldi	r25, 0xE1	; 225
     d02:	a4 e0       	ldi	r26, 0x04	; 4
     d04:	81 50       	subi	r24, 0x01	; 1
     d06:	90 40       	sbci	r25, 0x00	; 0
     d08:	a0 40       	sbci	r26, 0x00	; 0
     d0a:	e1 f7       	brne	.-8      	; 0xd04 <__stack+0x4a5>
     d0c:	00 c0       	rjmp	.+0      	; 0xd0e <__stack+0x4af>
     d0e:	00 00       	nop
     d10:	bf ef       	ldi	r27, 0xFF	; 255
     d12:	c3 ed       	ldi	r28, 0xD3	; 211
     d14:	e0 e3       	ldi	r30, 0x30	; 48
     d16:	b1 50       	subi	r27, 0x01	; 1
     d18:	c0 40       	sbci	r28, 0x00	; 0
     d1a:	e0 40       	sbci	r30, 0x00	; 0
     d1c:	e1 f7       	brne	.-8      	; 0xd16 <__stack+0x4b7>
     d1e:	00 c0       	rjmp	.+0      	; 0xd20 <__stack+0x4c1>
     d20:	00 00       	nop
     d22:	0c 94 2c 3b 	jmp	0x7658	; 0x7658 <__stack+0x6df9>
	int period = 100; /* Set period in between two steps */
    PORTC =0x01;
	switch (curryNum)
	{
		case 1:
		switch (personNum)
     d26:	8c e0       	ldi	r24, 0x0C	; 12
     d28:	90 e0       	ldi	r25, 0x00	; 0
			case 9:
			{
				/* Rotate Stepper Motor clockwise with Half step sequence */
				for (int i = 0; i < 12; i++)
				{
					PORTD = 0x09;
     d2a:	f9 e0       	ldi	r31, 0x09	; 9
					_delay_ms(period);
					PORTD = 0x08;
     d2c:	e8 e0       	ldi	r30, 0x08	; 8
					_delay_ms(period);
					PORTD = 0x0C;
     d2e:	7c e0       	ldi	r23, 0x0C	; 12
					_delay_ms(period);
					PORTD = 0x04;
     d30:	64 e0       	ldi	r22, 0x04	; 4
					_delay_ms(period);
					PORTD = 0x06;
     d32:	56 e0       	ldi	r21, 0x06	; 6
					_delay_ms(period);
					PORTD = 0x02;
     d34:	42 e0       	ldi	r20, 0x02	; 2
					_delay_ms(period);
					PORTD = 0x03;
     d36:	33 e0       	ldi	r19, 0x03	; 3
					_delay_ms(period);
					PORTD = 0x01;
     d38:	21 e0       	ldi	r18, 0x01	; 1
			case 9:
			{
				/* Rotate Stepper Motor clockwise with Half step sequence */
				for (int i = 0; i < 12; i++)
				{
					PORTD = 0x09;
     d3a:	f2 bb       	out	0x12, r31	; 18
     d3c:	af ef       	ldi	r26, 0xFF	; 255
     d3e:	b1 ee       	ldi	r27, 0xE1	; 225
     d40:	c4 e0       	ldi	r28, 0x04	; 4
     d42:	a1 50       	subi	r26, 0x01	; 1
     d44:	b0 40       	sbci	r27, 0x00	; 0
     d46:	c0 40       	sbci	r28, 0x00	; 0
     d48:	e1 f7       	brne	.-8      	; 0xd42 <__stack+0x4e3>
     d4a:	00 c0       	rjmp	.+0      	; 0xd4c <__stack+0x4ed>
     d4c:	00 00       	nop
					_delay_ms(period);
					PORTD = 0x08;
     d4e:	e2 bb       	out	0x12, r30	; 18
     d50:	af ef       	ldi	r26, 0xFF	; 255
     d52:	b1 ee       	ldi	r27, 0xE1	; 225
     d54:	c4 e0       	ldi	r28, 0x04	; 4
     d56:	a1 50       	subi	r26, 0x01	; 1
     d58:	b0 40       	sbci	r27, 0x00	; 0
     d5a:	c0 40       	sbci	r28, 0x00	; 0
     d5c:	e1 f7       	brne	.-8      	; 0xd56 <__stack+0x4f7>
     d5e:	00 c0       	rjmp	.+0      	; 0xd60 <__stack+0x501>
     d60:	00 00       	nop
					_delay_ms(period);
					PORTD = 0x0C;
     d62:	72 bb       	out	0x12, r23	; 18
     d64:	af ef       	ldi	r26, 0xFF	; 255
     d66:	b1 ee       	ldi	r27, 0xE1	; 225
     d68:	c4 e0       	ldi	r28, 0x04	; 4
     d6a:	a1 50       	subi	r26, 0x01	; 1
     d6c:	b0 40       	sbci	r27, 0x00	; 0
     d6e:	c0 40       	sbci	r28, 0x00	; 0
     d70:	e1 f7       	brne	.-8      	; 0xd6a <__stack+0x50b>
     d72:	00 c0       	rjmp	.+0      	; 0xd74 <__stack+0x515>
     d74:	00 00       	nop
					_delay_ms(period);
					PORTD = 0x04;
     d76:	62 bb       	out	0x12, r22	; 18
     d78:	af ef       	ldi	r26, 0xFF	; 255
     d7a:	b1 ee       	ldi	r27, 0xE1	; 225
     d7c:	c4 e0       	ldi	r28, 0x04	; 4
     d7e:	a1 50       	subi	r26, 0x01	; 1
     d80:	b0 40       	sbci	r27, 0x00	; 0
     d82:	c0 40       	sbci	r28, 0x00	; 0
     d84:	e1 f7       	brne	.-8      	; 0xd7e <__stack+0x51f>
     d86:	00 c0       	rjmp	.+0      	; 0xd88 <__stack+0x529>
     d88:	00 00       	nop
					_delay_ms(period);
					PORTD = 0x06;
     d8a:	52 bb       	out	0x12, r21	; 18
     d8c:	af ef       	ldi	r26, 0xFF	; 255
     d8e:	b1 ee       	ldi	r27, 0xE1	; 225
     d90:	c4 e0       	ldi	r28, 0x04	; 4
     d92:	a1 50       	subi	r26, 0x01	; 1
     d94:	b0 40       	sbci	r27, 0x00	; 0
     d96:	c0 40       	sbci	r28, 0x00	; 0
     d98:	e1 f7       	brne	.-8      	; 0xd92 <__stack+0x533>
     d9a:	00 c0       	rjmp	.+0      	; 0xd9c <__stack+0x53d>
     d9c:	00 00       	nop
					_delay_ms(period);
					PORTD = 0x02;
     d9e:	42 bb       	out	0x12, r20	; 18
     da0:	af ef       	ldi	r26, 0xFF	; 255
     da2:	b1 ee       	ldi	r27, 0xE1	; 225
     da4:	c4 e0       	ldi	r28, 0x04	; 4
     da6:	a1 50       	subi	r26, 0x01	; 1
     da8:	b0 40       	sbci	r27, 0x00	; 0
     daa:	c0 40       	sbci	r28, 0x00	; 0
     dac:	e1 f7       	brne	.-8      	; 0xda6 <__stack+0x547>
     dae:	00 c0       	rjmp	.+0      	; 0xdb0 <__stack+0x551>
     db0:	00 00       	nop
					_delay_ms(period);
					PORTD = 0x03;
     db2:	32 bb       	out	0x12, r19	; 18
     db4:	af ef       	ldi	r26, 0xFF	; 255
     db6:	b1 ee       	ldi	r27, 0xE1	; 225
     db8:	c4 e0       	ldi	r28, 0x04	; 4
     dba:	a1 50       	subi	r26, 0x01	; 1
     dbc:	b0 40       	sbci	r27, 0x00	; 0
     dbe:	c0 40       	sbci	r28, 0x00	; 0
     dc0:	e1 f7       	brne	.-8      	; 0xdba <__stack+0x55b>
     dc2:	00 c0       	rjmp	.+0      	; 0xdc4 <__stack+0x565>
     dc4:	00 00       	nop
					_delay_ms(period);
					PORTD = 0x01;
     dc6:	22 bb       	out	0x12, r18	; 18
     dc8:	af ef       	ldi	r26, 0xFF	; 255
     dca:	b1 ee       	ldi	r27, 0xE1	; 225
     dcc:	c4 e0       	ldi	r28, 0x04	; 4
     dce:	a1 50       	subi	r26, 0x01	; 1
     dd0:	b0 40       	sbci	r27, 0x00	; 0
     dd2:	c0 40       	sbci	r28, 0x00	; 0
     dd4:	e1 f7       	brne	.-8      	; 0xdce <__stack+0x56f>
     dd6:	00 c0       	rjmp	.+0      	; 0xdd8 <__stack+0x579>
     dd8:	00 00       	nop
     dda:	01 97       	sbiw	r24, 0x01	; 1
				break;
			}
			case 9:
			{
				/* Rotate Stepper Motor clockwise with Half step sequence */
				for (int i = 0; i < 12; i++)
     ddc:	09 f0       	breq	.+2      	; 0xde0 <__stack+0x581>
     dde:	ad cf       	rjmp	.-166    	; 0xd3a <__stack+0x4db>
					PORTD = 0x03;
					_delay_ms(period);
					PORTD = 0x01;
					_delay_ms(period);
				}
				PORTD = 0x09; /* Last step to initial position */
     de0:	89 e0       	ldi	r24, 0x09	; 9
     de2:	82 bb       	out	0x12, r24	; 18
     de4:	ef ef       	ldi	r30, 0xFF	; 255
     de6:	21 ee       	ldi	r18, 0xE1	; 225
     de8:	64 e0       	ldi	r22, 0x04	; 4
     dea:	e1 50       	subi	r30, 0x01	; 1
     dec:	20 40       	sbci	r18, 0x00	; 0
     dee:	60 40       	sbci	r22, 0x00	; 0
     df0:	e1 f7       	brne	.-8      	; 0xdea <__stack+0x58b>
     df2:	00 c0       	rjmp	.+0      	; 0xdf4 <__stack+0x595>
     df4:	00 00       	nop
     df6:	7f ef       	ldi	r23, 0xFF	; 255
     df8:	83 ed       	ldi	r24, 0xD3	; 211
     dfa:	90 e3       	ldi	r25, 0x30	; 48
     dfc:	71 50       	subi	r23, 0x01	; 1
     dfe:	80 40       	sbci	r24, 0x00	; 0
     e00:	90 40       	sbci	r25, 0x00	; 0
     e02:	e1 f7       	brne	.-8      	; 0xdfc <__stack+0x59d>
     e04:	00 c0       	rjmp	.+0      	; 0xe06 <__stack+0x5a7>
     e06:	00 00       	nop
     e08:	8c e0       	ldi	r24, 0x0C	; 12
     e0a:	90 e0       	ldi	r25, 0x00	; 0
				_delay_ms(1000);

				/* Rotate Stepper Motor Anticlockwise with Full step sequence */
				for (int i = 0; i < 12; i++)
				{
					PORTD = 0x09;
     e0c:	59 e0       	ldi	r21, 0x09	; 9
					_delay_ms(period);
					PORTD = 0x03;
     e0e:	43 e0       	ldi	r20, 0x03	; 3
					_delay_ms(period);
					PORTD = 0x06;
     e10:	36 e0       	ldi	r19, 0x06	; 6
					_delay_ms(period);
					PORTD = 0x0C;
     e12:	2c e0       	ldi	r18, 0x0C	; 12
				_delay_ms(1000);

				/* Rotate Stepper Motor Anticlockwise with Full step sequence */
				for (int i = 0; i < 12; i++)
				{
					PORTD = 0x09;
     e14:	52 bb       	out	0x12, r21	; 18
     e16:	af ef       	ldi	r26, 0xFF	; 255
     e18:	b1 ee       	ldi	r27, 0xE1	; 225
     e1a:	c4 e0       	ldi	r28, 0x04	; 4
     e1c:	a1 50       	subi	r26, 0x01	; 1
     e1e:	b0 40       	sbci	r27, 0x00	; 0
     e20:	c0 40       	sbci	r28, 0x00	; 0
     e22:	e1 f7       	brne	.-8      	; 0xe1c <__stack+0x5bd>
     e24:	00 c0       	rjmp	.+0      	; 0xe26 <__stack+0x5c7>
     e26:	00 00       	nop
					_delay_ms(period);
					PORTD = 0x03;
     e28:	42 bb       	out	0x12, r20	; 18
     e2a:	ef ef       	ldi	r30, 0xFF	; 255
     e2c:	61 ee       	ldi	r22, 0xE1	; 225
     e2e:	74 e0       	ldi	r23, 0x04	; 4
     e30:	e1 50       	subi	r30, 0x01	; 1
     e32:	60 40       	sbci	r22, 0x00	; 0
     e34:	70 40       	sbci	r23, 0x00	; 0
     e36:	e1 f7       	brne	.-8      	; 0xe30 <__stack+0x5d1>
     e38:	00 c0       	rjmp	.+0      	; 0xe3a <__stack+0x5db>
     e3a:	00 00       	nop
					_delay_ms(period);
					PORTD = 0x06;
     e3c:	32 bb       	out	0x12, r19	; 18
     e3e:	af ef       	ldi	r26, 0xFF	; 255
     e40:	b1 ee       	ldi	r27, 0xE1	; 225
     e42:	c4 e0       	ldi	r28, 0x04	; 4
     e44:	a1 50       	subi	r26, 0x01	; 1
     e46:	b0 40       	sbci	r27, 0x00	; 0
     e48:	c0 40       	sbci	r28, 0x00	; 0
     e4a:	e1 f7       	brne	.-8      	; 0xe44 <__stack+0x5e5>
     e4c:	00 c0       	rjmp	.+0      	; 0xe4e <__stack+0x5ef>
     e4e:	00 00       	nop
					_delay_ms(period);
					PORTD = 0x0C;
     e50:	22 bb       	out	0x12, r18	; 18
     e52:	ef ef       	ldi	r30, 0xFF	; 255
     e54:	61 ee       	ldi	r22, 0xE1	; 225
     e56:	74 e0       	ldi	r23, 0x04	; 4
     e58:	e1 50       	subi	r30, 0x01	; 1
     e5a:	60 40       	sbci	r22, 0x00	; 0
     e5c:	70 40       	sbci	r23, 0x00	; 0
     e5e:	e1 f7       	brne	.-8      	; 0xe58 <__stack+0x5f9>
     e60:	00 c0       	rjmp	.+0      	; 0xe62 <__stack+0x603>
     e62:	00 00       	nop
     e64:	01 97       	sbiw	r24, 0x01	; 1
				PORTD = 0x09; /* Last step to initial position */
				_delay_ms(period);
				_delay_ms(1000);

				/* Rotate Stepper Motor Anticlockwise with Full step sequence */
				for (int i = 0; i < 12; i++)
     e66:	b1 f6       	brne	.-84     	; 0xe14 <__stack+0x5b5>
					PORTD = 0x06;
					_delay_ms(period);
					PORTD = 0x0C;
					_delay_ms(period);
				}
				PORTD = 0x09;
     e68:	89 e0       	ldi	r24, 0x09	; 9
     e6a:	82 bb       	out	0x12, r24	; 18
     e6c:	8f ef       	ldi	r24, 0xFF	; 255
     e6e:	91 ee       	ldi	r25, 0xE1	; 225
     e70:	a4 e0       	ldi	r26, 0x04	; 4
     e72:	81 50       	subi	r24, 0x01	; 1
     e74:	90 40       	sbci	r25, 0x00	; 0
     e76:	a0 40       	sbci	r26, 0x00	; 0
     e78:	e1 f7       	brne	.-8      	; 0xe72 <__stack+0x613>
     e7a:	00 c0       	rjmp	.+0      	; 0xe7c <__stack+0x61d>
     e7c:	00 00       	nop
     e7e:	bf ef       	ldi	r27, 0xFF	; 255
     e80:	c3 ed       	ldi	r28, 0xD3	; 211
     e82:	e0 e3       	ldi	r30, 0x30	; 48
     e84:	b1 50       	subi	r27, 0x01	; 1
     e86:	c0 40       	sbci	r28, 0x00	; 0
     e88:	e0 40       	sbci	r30, 0x00	; 0
     e8a:	e1 f7       	brne	.-8      	; 0xe84 <__stack+0x625>
     e8c:	00 c0       	rjmp	.+0      	; 0xe8e <__stack+0x62f>
     e8e:	00 00       	nop
     e90:	0c 94 2c 3b 	jmp	0x7658	; 0x7658 <__stack+0x6df9>
				break;
			}
		}
		break;
		case 2:
		switch (personNum)
     e94:	8c e0       	ldi	r24, 0x0C	; 12
     e96:	90 e0       	ldi	r25, 0x00	; 0
			case 1:
			{
				/* Rotate Stepper Motor clockwise with Half step sequence */
				for (int i = 0; i < 12; i++)
				{
					PORTD = 0x09;
     e98:	f9 e0       	ldi	r31, 0x09	; 9
					_delay_ms(period);
					PORTD = 0x08;
     e9a:	e8 e0       	ldi	r30, 0x08	; 8
					_delay_ms(period);
					PORTD = 0x0C;
     e9c:	7c e0       	ldi	r23, 0x0C	; 12
					_delay_ms(period);
					PORTD = 0x04;
     e9e:	64 e0       	ldi	r22, 0x04	; 4
					_delay_ms(period);
					PORTD = 0x06;
     ea0:	56 e0       	ldi	r21, 0x06	; 6
					_delay_ms(period);
					PORTD = 0x02;
     ea2:	42 e0       	ldi	r20, 0x02	; 2
					_delay_ms(period);
					PORTD = 0x03;
     ea4:	33 e0       	ldi	r19, 0x03	; 3
					_delay_ms(period);
					PORTD = 0x01;
     ea6:	21 e0       	ldi	r18, 0x01	; 1
			case 1:
			{
				/* Rotate Stepper Motor clockwise with Half step sequence */
				for (int i = 0; i < 12; i++)
				{
					PORTD = 0x09;
     ea8:	f2 bb       	out	0x12, r31	; 18
     eaa:	af ef       	ldi	r26, 0xFF	; 255
     eac:	b1 ee       	ldi	r27, 0xE1	; 225
     eae:	c4 e0       	ldi	r28, 0x04	; 4
     eb0:	a1 50       	subi	r26, 0x01	; 1
     eb2:	b0 40       	sbci	r27, 0x00	; 0
     eb4:	c0 40       	sbci	r28, 0x00	; 0
     eb6:	e1 f7       	brne	.-8      	; 0xeb0 <__stack+0x651>
     eb8:	00 c0       	rjmp	.+0      	; 0xeba <__stack+0x65b>
     eba:	00 00       	nop
					_delay_ms(period);
					PORTD = 0x08;
     ebc:	e2 bb       	out	0x12, r30	; 18
     ebe:	af ef       	ldi	r26, 0xFF	; 255
     ec0:	b1 ee       	ldi	r27, 0xE1	; 225
     ec2:	c4 e0       	ldi	r28, 0x04	; 4
     ec4:	a1 50       	subi	r26, 0x01	; 1
     ec6:	b0 40       	sbci	r27, 0x00	; 0
     ec8:	c0 40       	sbci	r28, 0x00	; 0
     eca:	e1 f7       	brne	.-8      	; 0xec4 <__stack+0x665>
     ecc:	00 c0       	rjmp	.+0      	; 0xece <__stack+0x66f>
     ece:	00 00       	nop
					_delay_ms(period);
					PORTD = 0x0C;
     ed0:	72 bb       	out	0x12, r23	; 18
     ed2:	af ef       	ldi	r26, 0xFF	; 255
     ed4:	b1 ee       	ldi	r27, 0xE1	; 225
     ed6:	c4 e0       	ldi	r28, 0x04	; 4
     ed8:	a1 50       	subi	r26, 0x01	; 1
     eda:	b0 40       	sbci	r27, 0x00	; 0
     edc:	c0 40       	sbci	r28, 0x00	; 0
     ede:	e1 f7       	brne	.-8      	; 0xed8 <__stack+0x679>
     ee0:	00 c0       	rjmp	.+0      	; 0xee2 <__stack+0x683>
     ee2:	00 00       	nop
					_delay_ms(period);
					PORTD = 0x04;
     ee4:	62 bb       	out	0x12, r22	; 18
     ee6:	af ef       	ldi	r26, 0xFF	; 255
     ee8:	b1 ee       	ldi	r27, 0xE1	; 225
     eea:	c4 e0       	ldi	r28, 0x04	; 4
     eec:	a1 50       	subi	r26, 0x01	; 1
     eee:	b0 40       	sbci	r27, 0x00	; 0
     ef0:	c0 40       	sbci	r28, 0x00	; 0
     ef2:	e1 f7       	brne	.-8      	; 0xeec <__stack+0x68d>
     ef4:	00 c0       	rjmp	.+0      	; 0xef6 <__stack+0x697>
     ef6:	00 00       	nop
					_delay_ms(period);
					PORTD = 0x06;
     ef8:	52 bb       	out	0x12, r21	; 18
     efa:	af ef       	ldi	r26, 0xFF	; 255
     efc:	b1 ee       	ldi	r27, 0xE1	; 225
     efe:	c4 e0       	ldi	r28, 0x04	; 4
     f00:	a1 50       	subi	r26, 0x01	; 1
     f02:	b0 40       	sbci	r27, 0x00	; 0
     f04:	c0 40       	sbci	r28, 0x00	; 0
     f06:	e1 f7       	brne	.-8      	; 0xf00 <__stack+0x6a1>
     f08:	00 c0       	rjmp	.+0      	; 0xf0a <__stack+0x6ab>
     f0a:	00 00       	nop
					_delay_ms(period);
					PORTD = 0x02;
     f0c:	42 bb       	out	0x12, r20	; 18
     f0e:	af ef       	ldi	r26, 0xFF	; 255
     f10:	b1 ee       	ldi	r27, 0xE1	; 225
     f12:	c4 e0       	ldi	r28, 0x04	; 4
     f14:	a1 50       	subi	r26, 0x01	; 1
     f16:	b0 40       	sbci	r27, 0x00	; 0
     f18:	c0 40       	sbci	r28, 0x00	; 0
     f1a:	e1 f7       	brne	.-8      	; 0xf14 <__stack+0x6b5>
     f1c:	00 c0       	rjmp	.+0      	; 0xf1e <__stack+0x6bf>
     f1e:	00 00       	nop
					_delay_ms(period);
					PORTD = 0x03;
     f20:	32 bb       	out	0x12, r19	; 18
     f22:	af ef       	ldi	r26, 0xFF	; 255
     f24:	b1 ee       	ldi	r27, 0xE1	; 225
     f26:	c4 e0       	ldi	r28, 0x04	; 4
     f28:	a1 50       	subi	r26, 0x01	; 1
     f2a:	b0 40       	sbci	r27, 0x00	; 0
     f2c:	c0 40       	sbci	r28, 0x00	; 0
     f2e:	e1 f7       	brne	.-8      	; 0xf28 <__stack+0x6c9>
     f30:	00 c0       	rjmp	.+0      	; 0xf32 <__stack+0x6d3>
     f32:	00 00       	nop
					_delay_ms(period);
					PORTD = 0x01;
     f34:	22 bb       	out	0x12, r18	; 18
     f36:	af ef       	ldi	r26, 0xFF	; 255
     f38:	b1 ee       	ldi	r27, 0xE1	; 225
     f3a:	c4 e0       	ldi	r28, 0x04	; 4
     f3c:	a1 50       	subi	r26, 0x01	; 1
     f3e:	b0 40       	sbci	r27, 0x00	; 0
     f40:	c0 40       	sbci	r28, 0x00	; 0
     f42:	e1 f7       	brne	.-8      	; 0xf3c <__stack+0x6dd>
     f44:	00 c0       	rjmp	.+0      	; 0xf46 <__stack+0x6e7>
     f46:	00 00       	nop
     f48:	01 97       	sbiw	r24, 0x01	; 1
		switch (personNum)
		{
			case 1:
			{
				/* Rotate Stepper Motor clockwise with Half step sequence */
				for (int i = 0; i < 12; i++)
     f4a:	09 f0       	breq	.+2      	; 0xf4e <__stack+0x6ef>
     f4c:	ad cf       	rjmp	.-166    	; 0xea8 <__stack+0x649>
					PORTD = 0x03;
					_delay_ms(period);
					PORTD = 0x01;
					_delay_ms(period);
				}
				PORTD = 0x09; /* Last step to initial position */
     f4e:	89 e0       	ldi	r24, 0x09	; 9
     f50:	82 bb       	out	0x12, r24	; 18
     f52:	ef ef       	ldi	r30, 0xFF	; 255
     f54:	21 ee       	ldi	r18, 0xE1	; 225
     f56:	64 e0       	ldi	r22, 0x04	; 4
     f58:	e1 50       	subi	r30, 0x01	; 1
     f5a:	20 40       	sbci	r18, 0x00	; 0
     f5c:	60 40       	sbci	r22, 0x00	; 0
     f5e:	e1 f7       	brne	.-8      	; 0xf58 <__stack+0x6f9>
     f60:	00 c0       	rjmp	.+0      	; 0xf62 <__stack+0x703>
     f62:	00 00       	nop
     f64:	7f ef       	ldi	r23, 0xFF	; 255
     f66:	83 ed       	ldi	r24, 0xD3	; 211
     f68:	90 e3       	ldi	r25, 0x30	; 48
     f6a:	71 50       	subi	r23, 0x01	; 1
     f6c:	80 40       	sbci	r24, 0x00	; 0
     f6e:	90 40       	sbci	r25, 0x00	; 0
     f70:	e1 f7       	brne	.-8      	; 0xf6a <__stack+0x70b>
     f72:	00 c0       	rjmp	.+0      	; 0xf74 <__stack+0x715>
     f74:	00 00       	nop
     f76:	8c e0       	ldi	r24, 0x0C	; 12
     f78:	90 e0       	ldi	r25, 0x00	; 0
				_delay_ms(1000);

				/* Rotate Stepper Motor Anticlockwise with Full step sequence */
				for (int i = 0; i < 12; i++)
				{
					PORTD = 0x09;
     f7a:	59 e0       	ldi	r21, 0x09	; 9
					_delay_ms(period);
					PORTD = 0x03;
     f7c:	43 e0       	ldi	r20, 0x03	; 3
					_delay_ms(period);
					PORTD = 0x06;
     f7e:	36 e0       	ldi	r19, 0x06	; 6
					_delay_ms(period);
					PORTD = 0x0C;
     f80:	2c e0       	ldi	r18, 0x0C	; 12
				_delay_ms(1000);

				/* Rotate Stepper Motor Anticlockwise with Full step sequence */
				for (int i = 0; i < 12; i++)
				{
					PORTD = 0x09;
     f82:	52 bb       	out	0x12, r21	; 18
     f84:	af ef       	ldi	r26, 0xFF	; 255
     f86:	b1 ee       	ldi	r27, 0xE1	; 225
     f88:	c4 e0       	ldi	r28, 0x04	; 4
     f8a:	a1 50       	subi	r26, 0x01	; 1
     f8c:	b0 40       	sbci	r27, 0x00	; 0
     f8e:	c0 40       	sbci	r28, 0x00	; 0
     f90:	e1 f7       	brne	.-8      	; 0xf8a <__stack+0x72b>
     f92:	00 c0       	rjmp	.+0      	; 0xf94 <__stack+0x735>
     f94:	00 00       	nop
					_delay_ms(period);
					PORTD = 0x03;
     f96:	42 bb       	out	0x12, r20	; 18
     f98:	ef ef       	ldi	r30, 0xFF	; 255
     f9a:	61 ee       	ldi	r22, 0xE1	; 225
     f9c:	74 e0       	ldi	r23, 0x04	; 4
     f9e:	e1 50       	subi	r30, 0x01	; 1
     fa0:	60 40       	sbci	r22, 0x00	; 0
     fa2:	70 40       	sbci	r23, 0x00	; 0
     fa4:	e1 f7       	brne	.-8      	; 0xf9e <__stack+0x73f>
     fa6:	00 c0       	rjmp	.+0      	; 0xfa8 <__stack+0x749>
     fa8:	00 00       	nop
					_delay_ms(period);
					PORTD = 0x06;
     faa:	32 bb       	out	0x12, r19	; 18
     fac:	af ef       	ldi	r26, 0xFF	; 255
     fae:	b1 ee       	ldi	r27, 0xE1	; 225
     fb0:	c4 e0       	ldi	r28, 0x04	; 4
     fb2:	a1 50       	subi	r26, 0x01	; 1
     fb4:	b0 40       	sbci	r27, 0x00	; 0
     fb6:	c0 40       	sbci	r28, 0x00	; 0
     fb8:	e1 f7       	brne	.-8      	; 0xfb2 <__stack+0x753>
     fba:	00 c0       	rjmp	.+0      	; 0xfbc <__stack+0x75d>
     fbc:	00 00       	nop
					_delay_ms(period);
					PORTD = 0x0C;
     fbe:	22 bb       	out	0x12, r18	; 18
     fc0:	ef ef       	ldi	r30, 0xFF	; 255
     fc2:	61 ee       	ldi	r22, 0xE1	; 225
     fc4:	74 e0       	ldi	r23, 0x04	; 4
     fc6:	e1 50       	subi	r30, 0x01	; 1
     fc8:	60 40       	sbci	r22, 0x00	; 0
     fca:	70 40       	sbci	r23, 0x00	; 0
     fcc:	e1 f7       	brne	.-8      	; 0xfc6 <__stack+0x767>
     fce:	00 c0       	rjmp	.+0      	; 0xfd0 <__stack+0x771>
     fd0:	00 00       	nop
     fd2:	01 97       	sbiw	r24, 0x01	; 1
				PORTD = 0x09; /* Last step to initial position */
				_delay_ms(period);
				_delay_ms(1000);

				/* Rotate Stepper Motor Anticlockwise with Full step sequence */
				for (int i = 0; i < 12; i++)
     fd4:	b1 f6       	brne	.-84     	; 0xf82 <__stack+0x723>
					PORTD = 0x06;
					_delay_ms(period);
					PORTD = 0x0C;
					_delay_ms(period);
				}
				PORTD = 0x09;
     fd6:	89 e0       	ldi	r24, 0x09	; 9
     fd8:	82 bb       	out	0x12, r24	; 18
     fda:	8f ef       	ldi	r24, 0xFF	; 255
     fdc:	91 ee       	ldi	r25, 0xE1	; 225
     fde:	a4 e0       	ldi	r26, 0x04	; 4
     fe0:	81 50       	subi	r24, 0x01	; 1
     fe2:	90 40       	sbci	r25, 0x00	; 0
     fe4:	a0 40       	sbci	r26, 0x00	; 0
     fe6:	e1 f7       	brne	.-8      	; 0xfe0 <__stack+0x781>
     fe8:	00 c0       	rjmp	.+0      	; 0xfea <__stack+0x78b>
     fea:	00 00       	nop
     fec:	bf ef       	ldi	r27, 0xFF	; 255
     fee:	c3 ed       	ldi	r28, 0xD3	; 211
     ff0:	e0 e3       	ldi	r30, 0x30	; 48
     ff2:	b1 50       	subi	r27, 0x01	; 1
     ff4:	c0 40       	sbci	r28, 0x00	; 0
     ff6:	e0 40       	sbci	r30, 0x00	; 0
     ff8:	e1 f7       	brne	.-8      	; 0xff2 <__stack+0x793>
     ffa:	00 c0       	rjmp	.+0      	; 0xffc <__stack+0x79d>
     ffc:	00 00       	nop
     ffe:	0c 94 2c 3b 	jmp	0x7658	; 0x7658 <__stack+0x6df9>
				break;
			}
		}
		break;
		case 2:
		switch (personNum)
    1002:	8c e0       	ldi	r24, 0x0C	; 12
    1004:	90 e0       	ldi	r25, 0x00	; 0
			case 2:
			{
				/* Rotate Stepper Motor clockwise with Half step sequence */
				for (int i = 0; i < 12; i++)
				{
					PORTD = 0x09;
    1006:	f9 e0       	ldi	r31, 0x09	; 9
					_delay_ms(period);
					PORTD = 0x08;
    1008:	e8 e0       	ldi	r30, 0x08	; 8
					_delay_ms(period);
					PORTD = 0x0C;
    100a:	7c e0       	ldi	r23, 0x0C	; 12
					_delay_ms(period);
					PORTD = 0x04;
    100c:	64 e0       	ldi	r22, 0x04	; 4
					_delay_ms(period);
					PORTD = 0x06;
    100e:	56 e0       	ldi	r21, 0x06	; 6
					_delay_ms(period);
					PORTD = 0x02;
    1010:	42 e0       	ldi	r20, 0x02	; 2
					_delay_ms(period);
					PORTD = 0x03;
    1012:	33 e0       	ldi	r19, 0x03	; 3
					_delay_ms(period);
					PORTD = 0x01;
    1014:	21 e0       	ldi	r18, 0x01	; 1
			case 2:
			{
				/* Rotate Stepper Motor clockwise with Half step sequence */
				for (int i = 0; i < 12; i++)
				{
					PORTD = 0x09;
    1016:	f2 bb       	out	0x12, r31	; 18
    1018:	af ef       	ldi	r26, 0xFF	; 255
    101a:	b1 ee       	ldi	r27, 0xE1	; 225
    101c:	c4 e0       	ldi	r28, 0x04	; 4
    101e:	a1 50       	subi	r26, 0x01	; 1
    1020:	b0 40       	sbci	r27, 0x00	; 0
    1022:	c0 40       	sbci	r28, 0x00	; 0
    1024:	e1 f7       	brne	.-8      	; 0x101e <__stack+0x7bf>
    1026:	00 c0       	rjmp	.+0      	; 0x1028 <__stack+0x7c9>
    1028:	00 00       	nop
					_delay_ms(period);
					PORTD = 0x08;
    102a:	e2 bb       	out	0x12, r30	; 18
    102c:	af ef       	ldi	r26, 0xFF	; 255
    102e:	b1 ee       	ldi	r27, 0xE1	; 225
    1030:	c4 e0       	ldi	r28, 0x04	; 4
    1032:	a1 50       	subi	r26, 0x01	; 1
    1034:	b0 40       	sbci	r27, 0x00	; 0
    1036:	c0 40       	sbci	r28, 0x00	; 0
    1038:	e1 f7       	brne	.-8      	; 0x1032 <__stack+0x7d3>
    103a:	00 c0       	rjmp	.+0      	; 0x103c <__stack+0x7dd>
    103c:	00 00       	nop
					_delay_ms(period);
					PORTD = 0x0C;
    103e:	72 bb       	out	0x12, r23	; 18
    1040:	af ef       	ldi	r26, 0xFF	; 255
    1042:	b1 ee       	ldi	r27, 0xE1	; 225
    1044:	c4 e0       	ldi	r28, 0x04	; 4
    1046:	a1 50       	subi	r26, 0x01	; 1
    1048:	b0 40       	sbci	r27, 0x00	; 0
    104a:	c0 40       	sbci	r28, 0x00	; 0
    104c:	e1 f7       	brne	.-8      	; 0x1046 <__stack+0x7e7>
    104e:	00 c0       	rjmp	.+0      	; 0x1050 <__stack+0x7f1>
    1050:	00 00       	nop
					_delay_ms(period);
					PORTD = 0x04;
    1052:	62 bb       	out	0x12, r22	; 18
    1054:	af ef       	ldi	r26, 0xFF	; 255
    1056:	b1 ee       	ldi	r27, 0xE1	; 225
    1058:	c4 e0       	ldi	r28, 0x04	; 4
    105a:	a1 50       	subi	r26, 0x01	; 1
    105c:	b0 40       	sbci	r27, 0x00	; 0
    105e:	c0 40       	sbci	r28, 0x00	; 0
    1060:	e1 f7       	brne	.-8      	; 0x105a <__stack+0x7fb>
    1062:	00 c0       	rjmp	.+0      	; 0x1064 <__stack+0x805>
    1064:	00 00       	nop
					_delay_ms(period);
					PORTD = 0x06;
    1066:	52 bb       	out	0x12, r21	; 18
    1068:	af ef       	ldi	r26, 0xFF	; 255
    106a:	b1 ee       	ldi	r27, 0xE1	; 225
    106c:	c4 e0       	ldi	r28, 0x04	; 4
    106e:	a1 50       	subi	r26, 0x01	; 1
    1070:	b0 40       	sbci	r27, 0x00	; 0
    1072:	c0 40       	sbci	r28, 0x00	; 0
    1074:	e1 f7       	brne	.-8      	; 0x106e <__stack+0x80f>
    1076:	00 c0       	rjmp	.+0      	; 0x1078 <__stack+0x819>
    1078:	00 00       	nop
					_delay_ms(period);
					PORTD = 0x02;
    107a:	42 bb       	out	0x12, r20	; 18
    107c:	af ef       	ldi	r26, 0xFF	; 255
    107e:	b1 ee       	ldi	r27, 0xE1	; 225
    1080:	c4 e0       	ldi	r28, 0x04	; 4
    1082:	a1 50       	subi	r26, 0x01	; 1
    1084:	b0 40       	sbci	r27, 0x00	; 0
    1086:	c0 40       	sbci	r28, 0x00	; 0
    1088:	e1 f7       	brne	.-8      	; 0x1082 <__stack+0x823>
    108a:	00 c0       	rjmp	.+0      	; 0x108c <__stack+0x82d>
    108c:	00 00       	nop
					_delay_ms(period);
					PORTD = 0x03;
    108e:	32 bb       	out	0x12, r19	; 18
    1090:	af ef       	ldi	r26, 0xFF	; 255
    1092:	b1 ee       	ldi	r27, 0xE1	; 225
    1094:	c4 e0       	ldi	r28, 0x04	; 4
    1096:	a1 50       	subi	r26, 0x01	; 1
    1098:	b0 40       	sbci	r27, 0x00	; 0
    109a:	c0 40       	sbci	r28, 0x00	; 0
    109c:	e1 f7       	brne	.-8      	; 0x1096 <__stack+0x837>
    109e:	00 c0       	rjmp	.+0      	; 0x10a0 <__stack+0x841>
    10a0:	00 00       	nop
					_delay_ms(period);
					PORTD = 0x01;
    10a2:	22 bb       	out	0x12, r18	; 18
    10a4:	af ef       	ldi	r26, 0xFF	; 255
    10a6:	b1 ee       	ldi	r27, 0xE1	; 225
    10a8:	c4 e0       	ldi	r28, 0x04	; 4
    10aa:	a1 50       	subi	r26, 0x01	; 1
    10ac:	b0 40       	sbci	r27, 0x00	; 0
    10ae:	c0 40       	sbci	r28, 0x00	; 0
    10b0:	e1 f7       	brne	.-8      	; 0x10aa <__stack+0x84b>
    10b2:	00 c0       	rjmp	.+0      	; 0x10b4 <__stack+0x855>
    10b4:	00 00       	nop
    10b6:	01 97       	sbiw	r24, 0x01	; 1
				break;
			}
			case 2:
			{
				/* Rotate Stepper Motor clockwise with Half step sequence */
				for (int i = 0; i < 12; i++)
    10b8:	09 f0       	breq	.+2      	; 0x10bc <__stack+0x85d>
    10ba:	ad cf       	rjmp	.-166    	; 0x1016 <__stack+0x7b7>
					PORTD = 0x03;
					_delay_ms(period);
					PORTD = 0x01;
					_delay_ms(period);
				}
				PORTD = 0x09; /* Last step to initial position */
    10bc:	89 e0       	ldi	r24, 0x09	; 9
    10be:	82 bb       	out	0x12, r24	; 18
    10c0:	ef ef       	ldi	r30, 0xFF	; 255
    10c2:	21 ee       	ldi	r18, 0xE1	; 225
    10c4:	64 e0       	ldi	r22, 0x04	; 4
    10c6:	e1 50       	subi	r30, 0x01	; 1
    10c8:	20 40       	sbci	r18, 0x00	; 0
    10ca:	60 40       	sbci	r22, 0x00	; 0
    10cc:	e1 f7       	brne	.-8      	; 0x10c6 <__stack+0x867>
    10ce:	00 c0       	rjmp	.+0      	; 0x10d0 <__stack+0x871>
    10d0:	00 00       	nop
    10d2:	7f ef       	ldi	r23, 0xFF	; 255
    10d4:	83 ed       	ldi	r24, 0xD3	; 211
    10d6:	90 e3       	ldi	r25, 0x30	; 48
    10d8:	71 50       	subi	r23, 0x01	; 1
    10da:	80 40       	sbci	r24, 0x00	; 0
    10dc:	90 40       	sbci	r25, 0x00	; 0
    10de:	e1 f7       	brne	.-8      	; 0x10d8 <__stack+0x879>
    10e0:	00 c0       	rjmp	.+0      	; 0x10e2 <__stack+0x883>
    10e2:	00 00       	nop
    10e4:	8c e0       	ldi	r24, 0x0C	; 12
    10e6:	90 e0       	ldi	r25, 0x00	; 0
				_delay_ms(1000);

				/* Rotate Stepper Motor Anticlockwise with Full step sequence */
				for (int i = 0; i < 12; i++)
				{
					PORTD = 0x09;
    10e8:	59 e0       	ldi	r21, 0x09	; 9
					_delay_ms(period);
					PORTD = 0x03;
    10ea:	43 e0       	ldi	r20, 0x03	; 3
					_delay_ms(period);
					PORTD = 0x06;
    10ec:	36 e0       	ldi	r19, 0x06	; 6
					_delay_ms(period);
					PORTD = 0x0C;
    10ee:	2c e0       	ldi	r18, 0x0C	; 12
				_delay_ms(1000);

				/* Rotate Stepper Motor Anticlockwise with Full step sequence */
				for (int i = 0; i < 12; i++)
				{
					PORTD = 0x09;
    10f0:	52 bb       	out	0x12, r21	; 18
    10f2:	af ef       	ldi	r26, 0xFF	; 255
    10f4:	b1 ee       	ldi	r27, 0xE1	; 225
    10f6:	c4 e0       	ldi	r28, 0x04	; 4
    10f8:	a1 50       	subi	r26, 0x01	; 1
    10fa:	b0 40       	sbci	r27, 0x00	; 0
    10fc:	c0 40       	sbci	r28, 0x00	; 0
    10fe:	e1 f7       	brne	.-8      	; 0x10f8 <__stack+0x899>
    1100:	00 c0       	rjmp	.+0      	; 0x1102 <__stack+0x8a3>
    1102:	00 00       	nop
					_delay_ms(period);
					PORTD = 0x03;
    1104:	42 bb       	out	0x12, r20	; 18
    1106:	ef ef       	ldi	r30, 0xFF	; 255
    1108:	61 ee       	ldi	r22, 0xE1	; 225
    110a:	74 e0       	ldi	r23, 0x04	; 4
    110c:	e1 50       	subi	r30, 0x01	; 1
    110e:	60 40       	sbci	r22, 0x00	; 0
    1110:	70 40       	sbci	r23, 0x00	; 0
    1112:	e1 f7       	brne	.-8      	; 0x110c <__stack+0x8ad>
    1114:	00 c0       	rjmp	.+0      	; 0x1116 <__stack+0x8b7>
    1116:	00 00       	nop
					_delay_ms(period);
					PORTD = 0x06;
    1118:	32 bb       	out	0x12, r19	; 18
    111a:	af ef       	ldi	r26, 0xFF	; 255
    111c:	b1 ee       	ldi	r27, 0xE1	; 225
    111e:	c4 e0       	ldi	r28, 0x04	; 4
    1120:	a1 50       	subi	r26, 0x01	; 1
    1122:	b0 40       	sbci	r27, 0x00	; 0
    1124:	c0 40       	sbci	r28, 0x00	; 0
    1126:	e1 f7       	brne	.-8      	; 0x1120 <__stack+0x8c1>
    1128:	00 c0       	rjmp	.+0      	; 0x112a <__stack+0x8cb>
    112a:	00 00       	nop
					_delay_ms(period);
					PORTD = 0x0C;
    112c:	22 bb       	out	0x12, r18	; 18
    112e:	ef ef       	ldi	r30, 0xFF	; 255
    1130:	61 ee       	ldi	r22, 0xE1	; 225
    1132:	74 e0       	ldi	r23, 0x04	; 4
    1134:	e1 50       	subi	r30, 0x01	; 1
    1136:	60 40       	sbci	r22, 0x00	; 0
    1138:	70 40       	sbci	r23, 0x00	; 0
    113a:	e1 f7       	brne	.-8      	; 0x1134 <__stack+0x8d5>
    113c:	00 c0       	rjmp	.+0      	; 0x113e <__stack+0x8df>
    113e:	00 00       	nop
    1140:	01 97       	sbiw	r24, 0x01	; 1
				PORTD = 0x09; /* Last step to initial position */
				_delay_ms(period);
				_delay_ms(1000);

				/* Rotate Stepper Motor Anticlockwise with Full step sequence */
				for (int i = 0; i < 12; i++)
    1142:	b1 f6       	brne	.-84     	; 0x10f0 <__stack+0x891>
					PORTD = 0x06;
					_delay_ms(period);
					PORTD = 0x0C;
					_delay_ms(period);
				}
				PORTD = 0x09;
    1144:	89 e0       	ldi	r24, 0x09	; 9
    1146:	82 bb       	out	0x12, r24	; 18
    1148:	8f ef       	ldi	r24, 0xFF	; 255
    114a:	91 ee       	ldi	r25, 0xE1	; 225
    114c:	a4 e0       	ldi	r26, 0x04	; 4
    114e:	81 50       	subi	r24, 0x01	; 1
    1150:	90 40       	sbci	r25, 0x00	; 0
    1152:	a0 40       	sbci	r26, 0x00	; 0
    1154:	e1 f7       	brne	.-8      	; 0x114e <__stack+0x8ef>
    1156:	00 c0       	rjmp	.+0      	; 0x1158 <__stack+0x8f9>
    1158:	00 00       	nop
    115a:	bf ef       	ldi	r27, 0xFF	; 255
    115c:	c3 ed       	ldi	r28, 0xD3	; 211
    115e:	e0 e3       	ldi	r30, 0x30	; 48
    1160:	b1 50       	subi	r27, 0x01	; 1
    1162:	c0 40       	sbci	r28, 0x00	; 0
    1164:	e0 40       	sbci	r30, 0x00	; 0
    1166:	e1 f7       	brne	.-8      	; 0x1160 <__stack+0x901>
    1168:	00 c0       	rjmp	.+0      	; 0x116a <__stack+0x90b>
    116a:	00 00       	nop
    116c:	0c 94 2c 3b 	jmp	0x7658	; 0x7658 <__stack+0x6df9>
				break;
			}
		}
		break;
		case 2:
		switch (personNum)
    1170:	8c e0       	ldi	r24, 0x0C	; 12
    1172:	90 e0       	ldi	r25, 0x00	; 0
			case 3:
			{
				/* Rotate Stepper Motor clockwise with Half step sequence */
				for (int i = 0; i < 12; i++)
				{
					PORTD = 0x09;
    1174:	f9 e0       	ldi	r31, 0x09	; 9
					_delay_ms(period);
					PORTD = 0x08;
    1176:	e8 e0       	ldi	r30, 0x08	; 8
					_delay_ms(period);
					PORTD = 0x0C;
    1178:	7c e0       	ldi	r23, 0x0C	; 12
					_delay_ms(period);
					PORTD = 0x04;
    117a:	64 e0       	ldi	r22, 0x04	; 4
					_delay_ms(period);
					PORTD = 0x06;
    117c:	56 e0       	ldi	r21, 0x06	; 6
					_delay_ms(period);
					PORTD = 0x02;
    117e:	42 e0       	ldi	r20, 0x02	; 2
					_delay_ms(period);
					PORTD = 0x03;
    1180:	33 e0       	ldi	r19, 0x03	; 3
					_delay_ms(period);
					PORTD = 0x01;
    1182:	21 e0       	ldi	r18, 0x01	; 1
			case 3:
			{
				/* Rotate Stepper Motor clockwise with Half step sequence */
				for (int i = 0; i < 12; i++)
				{
					PORTD = 0x09;
    1184:	f2 bb       	out	0x12, r31	; 18
    1186:	af ef       	ldi	r26, 0xFF	; 255
    1188:	b1 ee       	ldi	r27, 0xE1	; 225
    118a:	c4 e0       	ldi	r28, 0x04	; 4
    118c:	a1 50       	subi	r26, 0x01	; 1
    118e:	b0 40       	sbci	r27, 0x00	; 0
    1190:	c0 40       	sbci	r28, 0x00	; 0
    1192:	e1 f7       	brne	.-8      	; 0x118c <__stack+0x92d>
    1194:	00 c0       	rjmp	.+0      	; 0x1196 <__stack+0x937>
    1196:	00 00       	nop
					_delay_ms(period);
					PORTD = 0x08;
    1198:	e2 bb       	out	0x12, r30	; 18
    119a:	af ef       	ldi	r26, 0xFF	; 255
    119c:	b1 ee       	ldi	r27, 0xE1	; 225
    119e:	c4 e0       	ldi	r28, 0x04	; 4
    11a0:	a1 50       	subi	r26, 0x01	; 1
    11a2:	b0 40       	sbci	r27, 0x00	; 0
    11a4:	c0 40       	sbci	r28, 0x00	; 0
    11a6:	e1 f7       	brne	.-8      	; 0x11a0 <__stack+0x941>
    11a8:	00 c0       	rjmp	.+0      	; 0x11aa <__stack+0x94b>
    11aa:	00 00       	nop
					_delay_ms(period);
					PORTD = 0x0C;
    11ac:	72 bb       	out	0x12, r23	; 18
    11ae:	af ef       	ldi	r26, 0xFF	; 255
    11b0:	b1 ee       	ldi	r27, 0xE1	; 225
    11b2:	c4 e0       	ldi	r28, 0x04	; 4
    11b4:	a1 50       	subi	r26, 0x01	; 1
    11b6:	b0 40       	sbci	r27, 0x00	; 0
    11b8:	c0 40       	sbci	r28, 0x00	; 0
    11ba:	e1 f7       	brne	.-8      	; 0x11b4 <__stack+0x955>
    11bc:	00 c0       	rjmp	.+0      	; 0x11be <__stack+0x95f>
    11be:	00 00       	nop
					_delay_ms(period);
					PORTD = 0x04;
    11c0:	62 bb       	out	0x12, r22	; 18
    11c2:	af ef       	ldi	r26, 0xFF	; 255
    11c4:	b1 ee       	ldi	r27, 0xE1	; 225
    11c6:	c4 e0       	ldi	r28, 0x04	; 4
    11c8:	a1 50       	subi	r26, 0x01	; 1
    11ca:	b0 40       	sbci	r27, 0x00	; 0
    11cc:	c0 40       	sbci	r28, 0x00	; 0
    11ce:	e1 f7       	brne	.-8      	; 0x11c8 <__stack+0x969>
    11d0:	00 c0       	rjmp	.+0      	; 0x11d2 <__stack+0x973>
    11d2:	00 00       	nop
					_delay_ms(period);
					PORTD = 0x06;
    11d4:	52 bb       	out	0x12, r21	; 18
    11d6:	af ef       	ldi	r26, 0xFF	; 255
    11d8:	b1 ee       	ldi	r27, 0xE1	; 225
    11da:	c4 e0       	ldi	r28, 0x04	; 4
    11dc:	a1 50       	subi	r26, 0x01	; 1
    11de:	b0 40       	sbci	r27, 0x00	; 0
    11e0:	c0 40       	sbci	r28, 0x00	; 0
    11e2:	e1 f7       	brne	.-8      	; 0x11dc <__stack+0x97d>
    11e4:	00 c0       	rjmp	.+0      	; 0x11e6 <__stack+0x987>
    11e6:	00 00       	nop
					_delay_ms(period);
					PORTD = 0x02;
    11e8:	42 bb       	out	0x12, r20	; 18
    11ea:	af ef       	ldi	r26, 0xFF	; 255
    11ec:	b1 ee       	ldi	r27, 0xE1	; 225
    11ee:	c4 e0       	ldi	r28, 0x04	; 4
    11f0:	a1 50       	subi	r26, 0x01	; 1
    11f2:	b0 40       	sbci	r27, 0x00	; 0
    11f4:	c0 40       	sbci	r28, 0x00	; 0
    11f6:	e1 f7       	brne	.-8      	; 0x11f0 <__stack+0x991>
    11f8:	00 c0       	rjmp	.+0      	; 0x11fa <__stack+0x99b>
    11fa:	00 00       	nop
					_delay_ms(period);
					PORTD = 0x03;
    11fc:	32 bb       	out	0x12, r19	; 18
    11fe:	af ef       	ldi	r26, 0xFF	; 255
    1200:	b1 ee       	ldi	r27, 0xE1	; 225
    1202:	c4 e0       	ldi	r28, 0x04	; 4
    1204:	a1 50       	subi	r26, 0x01	; 1
    1206:	b0 40       	sbci	r27, 0x00	; 0
    1208:	c0 40       	sbci	r28, 0x00	; 0
    120a:	e1 f7       	brne	.-8      	; 0x1204 <__stack+0x9a5>
    120c:	00 c0       	rjmp	.+0      	; 0x120e <__stack+0x9af>
    120e:	00 00       	nop
					_delay_ms(period);
					PORTD = 0x01;
    1210:	22 bb       	out	0x12, r18	; 18
    1212:	af ef       	ldi	r26, 0xFF	; 255
    1214:	b1 ee       	ldi	r27, 0xE1	; 225
    1216:	c4 e0       	ldi	r28, 0x04	; 4
    1218:	a1 50       	subi	r26, 0x01	; 1
    121a:	b0 40       	sbci	r27, 0x00	; 0
    121c:	c0 40       	sbci	r28, 0x00	; 0
    121e:	e1 f7       	brne	.-8      	; 0x1218 <__stack+0x9b9>
    1220:	00 c0       	rjmp	.+0      	; 0x1222 <__stack+0x9c3>
    1222:	00 00       	nop
    1224:	01 97       	sbiw	r24, 0x01	; 1
				break;
			}
			case 3:
			{
				/* Rotate Stepper Motor clockwise with Half step sequence */
				for (int i = 0; i < 12; i++)
    1226:	09 f0       	breq	.+2      	; 0x122a <__stack+0x9cb>
    1228:	ad cf       	rjmp	.-166    	; 0x1184 <__stack+0x925>
					PORTD = 0x03;
					_delay_ms(period);
					PORTD = 0x01;
					_delay_ms(period);
				}
				PORTD = 0x09; /* Last step to initial position */
    122a:	89 e0       	ldi	r24, 0x09	; 9
    122c:	82 bb       	out	0x12, r24	; 18
    122e:	ef ef       	ldi	r30, 0xFF	; 255
    1230:	21 ee       	ldi	r18, 0xE1	; 225
    1232:	64 e0       	ldi	r22, 0x04	; 4
    1234:	e1 50       	subi	r30, 0x01	; 1
    1236:	20 40       	sbci	r18, 0x00	; 0
    1238:	60 40       	sbci	r22, 0x00	; 0
    123a:	e1 f7       	brne	.-8      	; 0x1234 <__stack+0x9d5>
    123c:	00 c0       	rjmp	.+0      	; 0x123e <__stack+0x9df>
    123e:	00 00       	nop
    1240:	7f ef       	ldi	r23, 0xFF	; 255
    1242:	83 ed       	ldi	r24, 0xD3	; 211
    1244:	90 e3       	ldi	r25, 0x30	; 48
    1246:	71 50       	subi	r23, 0x01	; 1
    1248:	80 40       	sbci	r24, 0x00	; 0
    124a:	90 40       	sbci	r25, 0x00	; 0
    124c:	e1 f7       	brne	.-8      	; 0x1246 <__stack+0x9e7>
    124e:	00 c0       	rjmp	.+0      	; 0x1250 <__stack+0x9f1>
    1250:	00 00       	nop
    1252:	8c e0       	ldi	r24, 0x0C	; 12
    1254:	90 e0       	ldi	r25, 0x00	; 0
				_delay_ms(1000);

				/* Rotate Stepper Motor Anticlockwise with Full step sequence */
				for (int i = 0; i < 12; i++)
				{
					PORTD = 0x09;
    1256:	59 e0       	ldi	r21, 0x09	; 9
					_delay_ms(period);
					PORTD = 0x03;
    1258:	43 e0       	ldi	r20, 0x03	; 3
					_delay_ms(period);
					PORTD = 0x06;
    125a:	36 e0       	ldi	r19, 0x06	; 6
					_delay_ms(period);
					PORTD = 0x0C;
    125c:	2c e0       	ldi	r18, 0x0C	; 12
				_delay_ms(1000);

				/* Rotate Stepper Motor Anticlockwise with Full step sequence */
				for (int i = 0; i < 12; i++)
				{
					PORTD = 0x09;
    125e:	52 bb       	out	0x12, r21	; 18
    1260:	af ef       	ldi	r26, 0xFF	; 255
    1262:	b1 ee       	ldi	r27, 0xE1	; 225
    1264:	c4 e0       	ldi	r28, 0x04	; 4
    1266:	a1 50       	subi	r26, 0x01	; 1
    1268:	b0 40       	sbci	r27, 0x00	; 0
    126a:	c0 40       	sbci	r28, 0x00	; 0
    126c:	e1 f7       	brne	.-8      	; 0x1266 <__stack+0xa07>
    126e:	00 c0       	rjmp	.+0      	; 0x1270 <__stack+0xa11>
    1270:	00 00       	nop
					_delay_ms(period);
					PORTD = 0x03;
    1272:	42 bb       	out	0x12, r20	; 18
    1274:	ef ef       	ldi	r30, 0xFF	; 255
    1276:	61 ee       	ldi	r22, 0xE1	; 225
    1278:	74 e0       	ldi	r23, 0x04	; 4
    127a:	e1 50       	subi	r30, 0x01	; 1
    127c:	60 40       	sbci	r22, 0x00	; 0
    127e:	70 40       	sbci	r23, 0x00	; 0
    1280:	e1 f7       	brne	.-8      	; 0x127a <__stack+0xa1b>
    1282:	00 c0       	rjmp	.+0      	; 0x1284 <__stack+0xa25>
    1284:	00 00       	nop
					_delay_ms(period);
					PORTD = 0x06;
    1286:	32 bb       	out	0x12, r19	; 18
    1288:	af ef       	ldi	r26, 0xFF	; 255
    128a:	b1 ee       	ldi	r27, 0xE1	; 225
    128c:	c4 e0       	ldi	r28, 0x04	; 4
    128e:	a1 50       	subi	r26, 0x01	; 1
    1290:	b0 40       	sbci	r27, 0x00	; 0
    1292:	c0 40       	sbci	r28, 0x00	; 0
    1294:	e1 f7       	brne	.-8      	; 0x128e <__stack+0xa2f>
    1296:	00 c0       	rjmp	.+0      	; 0x1298 <__stack+0xa39>
    1298:	00 00       	nop
					_delay_ms(period);
					PORTD = 0x0C;
    129a:	22 bb       	out	0x12, r18	; 18
    129c:	ef ef       	ldi	r30, 0xFF	; 255
    129e:	61 ee       	ldi	r22, 0xE1	; 225
    12a0:	74 e0       	ldi	r23, 0x04	; 4
    12a2:	e1 50       	subi	r30, 0x01	; 1
    12a4:	60 40       	sbci	r22, 0x00	; 0
    12a6:	70 40       	sbci	r23, 0x00	; 0
    12a8:	e1 f7       	brne	.-8      	; 0x12a2 <__stack+0xa43>
    12aa:	00 c0       	rjmp	.+0      	; 0x12ac <__stack+0xa4d>
    12ac:	00 00       	nop
    12ae:	01 97       	sbiw	r24, 0x01	; 1
				PORTD = 0x09; /* Last step to initial position */
				_delay_ms(period);
				_delay_ms(1000);

				/* Rotate Stepper Motor Anticlockwise with Full step sequence */
				for (int i = 0; i < 12; i++)
    12b0:	b1 f6       	brne	.-84     	; 0x125e <__stack+0x9ff>
					PORTD = 0x06;
					_delay_ms(period);
					PORTD = 0x0C;
					_delay_ms(period);
				}
				PORTD = 0x09;
    12b2:	89 e0       	ldi	r24, 0x09	; 9
    12b4:	82 bb       	out	0x12, r24	; 18
    12b6:	8f ef       	ldi	r24, 0xFF	; 255
    12b8:	91 ee       	ldi	r25, 0xE1	; 225
    12ba:	a4 e0       	ldi	r26, 0x04	; 4
    12bc:	81 50       	subi	r24, 0x01	; 1
    12be:	90 40       	sbci	r25, 0x00	; 0
    12c0:	a0 40       	sbci	r26, 0x00	; 0
    12c2:	e1 f7       	brne	.-8      	; 0x12bc <__stack+0xa5d>
    12c4:	00 c0       	rjmp	.+0      	; 0x12c6 <__stack+0xa67>
    12c6:	00 00       	nop
    12c8:	bf ef       	ldi	r27, 0xFF	; 255
    12ca:	c3 ed       	ldi	r28, 0xD3	; 211
    12cc:	e0 e3       	ldi	r30, 0x30	; 48
    12ce:	b1 50       	subi	r27, 0x01	; 1
    12d0:	c0 40       	sbci	r28, 0x00	; 0
    12d2:	e0 40       	sbci	r30, 0x00	; 0
    12d4:	e1 f7       	brne	.-8      	; 0x12ce <__stack+0xa6f>
    12d6:	00 c0       	rjmp	.+0      	; 0x12d8 <__stack+0xa79>
    12d8:	00 00       	nop
    12da:	0c 94 2c 3b 	jmp	0x7658	; 0x7658 <__stack+0x6df9>
				break;
			}
		}
		break;
		case 2:
		switch (personNum)
    12de:	8c e0       	ldi	r24, 0x0C	; 12
    12e0:	90 e0       	ldi	r25, 0x00	; 0
			case 4:
			{
				/* Rotate Stepper Motor clockwise with Half step sequence */
				for (int i = 0; i < 12; i++)
				{
					PORTD = 0x09;
    12e2:	f9 e0       	ldi	r31, 0x09	; 9
					_delay_ms(period);
					PORTD = 0x08;
    12e4:	e8 e0       	ldi	r30, 0x08	; 8
					_delay_ms(period);
					PORTD = 0x0C;
    12e6:	7c e0       	ldi	r23, 0x0C	; 12
					_delay_ms(period);
					PORTD = 0x04;
    12e8:	64 e0       	ldi	r22, 0x04	; 4
					_delay_ms(period);
					PORTD = 0x06;
    12ea:	56 e0       	ldi	r21, 0x06	; 6
					_delay_ms(period);
					PORTD = 0x02;
    12ec:	42 e0       	ldi	r20, 0x02	; 2
					_delay_ms(period);
					PORTD = 0x03;
    12ee:	33 e0       	ldi	r19, 0x03	; 3
					_delay_ms(period);
					PORTD = 0x01;
    12f0:	21 e0       	ldi	r18, 0x01	; 1
			case 4:
			{
				/* Rotate Stepper Motor clockwise with Half step sequence */
				for (int i = 0; i < 12; i++)
				{
					PORTD = 0x09;
    12f2:	f2 bb       	out	0x12, r31	; 18
    12f4:	af ef       	ldi	r26, 0xFF	; 255
    12f6:	b1 ee       	ldi	r27, 0xE1	; 225
    12f8:	c4 e0       	ldi	r28, 0x04	; 4
    12fa:	a1 50       	subi	r26, 0x01	; 1
    12fc:	b0 40       	sbci	r27, 0x00	; 0
    12fe:	c0 40       	sbci	r28, 0x00	; 0
    1300:	e1 f7       	brne	.-8      	; 0x12fa <__stack+0xa9b>
    1302:	00 c0       	rjmp	.+0      	; 0x1304 <__stack+0xaa5>
    1304:	00 00       	nop
					_delay_ms(period);
					PORTD = 0x08;
    1306:	e2 bb       	out	0x12, r30	; 18
    1308:	af ef       	ldi	r26, 0xFF	; 255
    130a:	b1 ee       	ldi	r27, 0xE1	; 225
    130c:	c4 e0       	ldi	r28, 0x04	; 4
    130e:	a1 50       	subi	r26, 0x01	; 1
    1310:	b0 40       	sbci	r27, 0x00	; 0
    1312:	c0 40       	sbci	r28, 0x00	; 0
    1314:	e1 f7       	brne	.-8      	; 0x130e <__stack+0xaaf>
    1316:	00 c0       	rjmp	.+0      	; 0x1318 <__stack+0xab9>
    1318:	00 00       	nop
					_delay_ms(period);
					PORTD = 0x0C;
    131a:	72 bb       	out	0x12, r23	; 18
    131c:	af ef       	ldi	r26, 0xFF	; 255
    131e:	b1 ee       	ldi	r27, 0xE1	; 225
    1320:	c4 e0       	ldi	r28, 0x04	; 4
    1322:	a1 50       	subi	r26, 0x01	; 1
    1324:	b0 40       	sbci	r27, 0x00	; 0
    1326:	c0 40       	sbci	r28, 0x00	; 0
    1328:	e1 f7       	brne	.-8      	; 0x1322 <__stack+0xac3>
    132a:	00 c0       	rjmp	.+0      	; 0x132c <__stack+0xacd>
    132c:	00 00       	nop
					_delay_ms(period);
					PORTD = 0x04;
    132e:	62 bb       	out	0x12, r22	; 18
    1330:	af ef       	ldi	r26, 0xFF	; 255
    1332:	b1 ee       	ldi	r27, 0xE1	; 225
    1334:	c4 e0       	ldi	r28, 0x04	; 4
    1336:	a1 50       	subi	r26, 0x01	; 1
    1338:	b0 40       	sbci	r27, 0x00	; 0
    133a:	c0 40       	sbci	r28, 0x00	; 0
    133c:	e1 f7       	brne	.-8      	; 0x1336 <__stack+0xad7>
    133e:	00 c0       	rjmp	.+0      	; 0x1340 <__stack+0xae1>
    1340:	00 00       	nop
					_delay_ms(period);
					PORTD = 0x06;
    1342:	52 bb       	out	0x12, r21	; 18
    1344:	af ef       	ldi	r26, 0xFF	; 255
    1346:	b1 ee       	ldi	r27, 0xE1	; 225
    1348:	c4 e0       	ldi	r28, 0x04	; 4
    134a:	a1 50       	subi	r26, 0x01	; 1
    134c:	b0 40       	sbci	r27, 0x00	; 0
    134e:	c0 40       	sbci	r28, 0x00	; 0
    1350:	e1 f7       	brne	.-8      	; 0x134a <__stack+0xaeb>
    1352:	00 c0       	rjmp	.+0      	; 0x1354 <__stack+0xaf5>
    1354:	00 00       	nop
					_delay_ms(period);
					PORTD = 0x02;
    1356:	42 bb       	out	0x12, r20	; 18
    1358:	af ef       	ldi	r26, 0xFF	; 255
    135a:	b1 ee       	ldi	r27, 0xE1	; 225
    135c:	c4 e0       	ldi	r28, 0x04	; 4
    135e:	a1 50       	subi	r26, 0x01	; 1
    1360:	b0 40       	sbci	r27, 0x00	; 0
    1362:	c0 40       	sbci	r28, 0x00	; 0
    1364:	e1 f7       	brne	.-8      	; 0x135e <__stack+0xaff>
    1366:	00 c0       	rjmp	.+0      	; 0x1368 <__stack+0xb09>
    1368:	00 00       	nop
					_delay_ms(period);
					PORTD = 0x03;
    136a:	32 bb       	out	0x12, r19	; 18
    136c:	af ef       	ldi	r26, 0xFF	; 255
    136e:	b1 ee       	ldi	r27, 0xE1	; 225
    1370:	c4 e0       	ldi	r28, 0x04	; 4
    1372:	a1 50       	subi	r26, 0x01	; 1
    1374:	b0 40       	sbci	r27, 0x00	; 0
    1376:	c0 40       	sbci	r28, 0x00	; 0
    1378:	e1 f7       	brne	.-8      	; 0x1372 <__stack+0xb13>
    137a:	00 c0       	rjmp	.+0      	; 0x137c <__stack+0xb1d>
    137c:	00 00       	nop
					_delay_ms(period);
					PORTD = 0x01;
    137e:	22 bb       	out	0x12, r18	; 18
    1380:	af ef       	ldi	r26, 0xFF	; 255
    1382:	b1 ee       	ldi	r27, 0xE1	; 225
    1384:	c4 e0       	ldi	r28, 0x04	; 4
    1386:	a1 50       	subi	r26, 0x01	; 1
    1388:	b0 40       	sbci	r27, 0x00	; 0
    138a:	c0 40       	sbci	r28, 0x00	; 0
    138c:	e1 f7       	brne	.-8      	; 0x1386 <__stack+0xb27>
    138e:	00 c0       	rjmp	.+0      	; 0x1390 <__stack+0xb31>
    1390:	00 00       	nop
    1392:	01 97       	sbiw	r24, 0x01	; 1
				break;
			}
			case 4:
			{
				/* Rotate Stepper Motor clockwise with Half step sequence */
				for (int i = 0; i < 12; i++)
    1394:	09 f0       	breq	.+2      	; 0x1398 <__stack+0xb39>
    1396:	ad cf       	rjmp	.-166    	; 0x12f2 <__stack+0xa93>
					PORTD = 0x03;
					_delay_ms(period);
					PORTD = 0x01;
					_delay_ms(period);
				}
				PORTD = 0x09; /* Last step to initial position */
    1398:	89 e0       	ldi	r24, 0x09	; 9
    139a:	82 bb       	out	0x12, r24	; 18
    139c:	ef ef       	ldi	r30, 0xFF	; 255
    139e:	21 ee       	ldi	r18, 0xE1	; 225
    13a0:	64 e0       	ldi	r22, 0x04	; 4
    13a2:	e1 50       	subi	r30, 0x01	; 1
    13a4:	20 40       	sbci	r18, 0x00	; 0
    13a6:	60 40       	sbci	r22, 0x00	; 0
    13a8:	e1 f7       	brne	.-8      	; 0x13a2 <__stack+0xb43>
    13aa:	00 c0       	rjmp	.+0      	; 0x13ac <__stack+0xb4d>
    13ac:	00 00       	nop
    13ae:	7f ef       	ldi	r23, 0xFF	; 255
    13b0:	83 ed       	ldi	r24, 0xD3	; 211
    13b2:	90 e3       	ldi	r25, 0x30	; 48
    13b4:	71 50       	subi	r23, 0x01	; 1
    13b6:	80 40       	sbci	r24, 0x00	; 0
    13b8:	90 40       	sbci	r25, 0x00	; 0
    13ba:	e1 f7       	brne	.-8      	; 0x13b4 <__stack+0xb55>
    13bc:	00 c0       	rjmp	.+0      	; 0x13be <__stack+0xb5f>
    13be:	00 00       	nop
    13c0:	8c e0       	ldi	r24, 0x0C	; 12
    13c2:	90 e0       	ldi	r25, 0x00	; 0
				_delay_ms(1000);

				/* Rotate Stepper Motor Anticlockwise with Full step sequence */
				for (int i = 0; i < 12; i++)
				{
					PORTD = 0x09;
    13c4:	59 e0       	ldi	r21, 0x09	; 9
					_delay_ms(period);
					PORTD = 0x03;
    13c6:	43 e0       	ldi	r20, 0x03	; 3
					_delay_ms(period);
					PORTD = 0x06;
    13c8:	36 e0       	ldi	r19, 0x06	; 6
					_delay_ms(period);
					PORTD = 0x0C;
    13ca:	2c e0       	ldi	r18, 0x0C	; 12
				_delay_ms(1000);

				/* Rotate Stepper Motor Anticlockwise with Full step sequence */
				for (int i = 0; i < 12; i++)
				{
					PORTD = 0x09;
    13cc:	52 bb       	out	0x12, r21	; 18
    13ce:	af ef       	ldi	r26, 0xFF	; 255
    13d0:	b1 ee       	ldi	r27, 0xE1	; 225
    13d2:	c4 e0       	ldi	r28, 0x04	; 4
    13d4:	a1 50       	subi	r26, 0x01	; 1
    13d6:	b0 40       	sbci	r27, 0x00	; 0
    13d8:	c0 40       	sbci	r28, 0x00	; 0
    13da:	e1 f7       	brne	.-8      	; 0x13d4 <__stack+0xb75>
    13dc:	00 c0       	rjmp	.+0      	; 0x13de <__stack+0xb7f>
    13de:	00 00       	nop
					_delay_ms(period);
					PORTD = 0x03;
    13e0:	42 bb       	out	0x12, r20	; 18
    13e2:	ef ef       	ldi	r30, 0xFF	; 255
    13e4:	61 ee       	ldi	r22, 0xE1	; 225
    13e6:	74 e0       	ldi	r23, 0x04	; 4
    13e8:	e1 50       	subi	r30, 0x01	; 1
    13ea:	60 40       	sbci	r22, 0x00	; 0
    13ec:	70 40       	sbci	r23, 0x00	; 0
    13ee:	e1 f7       	brne	.-8      	; 0x13e8 <__stack+0xb89>
    13f0:	00 c0       	rjmp	.+0      	; 0x13f2 <__stack+0xb93>
    13f2:	00 00       	nop
					_delay_ms(period);
					PORTD = 0x06;
    13f4:	32 bb       	out	0x12, r19	; 18
    13f6:	af ef       	ldi	r26, 0xFF	; 255
    13f8:	b1 ee       	ldi	r27, 0xE1	; 225
    13fa:	c4 e0       	ldi	r28, 0x04	; 4
    13fc:	a1 50       	subi	r26, 0x01	; 1
    13fe:	b0 40       	sbci	r27, 0x00	; 0
    1400:	c0 40       	sbci	r28, 0x00	; 0
    1402:	e1 f7       	brne	.-8      	; 0x13fc <__stack+0xb9d>
    1404:	00 c0       	rjmp	.+0      	; 0x1406 <__stack+0xba7>
    1406:	00 00       	nop
					_delay_ms(period);
					PORTD = 0x0C;
    1408:	22 bb       	out	0x12, r18	; 18
    140a:	ef ef       	ldi	r30, 0xFF	; 255
    140c:	61 ee       	ldi	r22, 0xE1	; 225
    140e:	74 e0       	ldi	r23, 0x04	; 4
    1410:	e1 50       	subi	r30, 0x01	; 1
    1412:	60 40       	sbci	r22, 0x00	; 0
    1414:	70 40       	sbci	r23, 0x00	; 0
    1416:	e1 f7       	brne	.-8      	; 0x1410 <__stack+0xbb1>
    1418:	00 c0       	rjmp	.+0      	; 0x141a <__stack+0xbbb>
    141a:	00 00       	nop
    141c:	01 97       	sbiw	r24, 0x01	; 1
				PORTD = 0x09; /* Last step to initial position */
				_delay_ms(period);
				_delay_ms(1000);

				/* Rotate Stepper Motor Anticlockwise with Full step sequence */
				for (int i = 0; i < 12; i++)
    141e:	b1 f6       	brne	.-84     	; 0x13cc <__stack+0xb6d>
					PORTD = 0x06;
					_delay_ms(period);
					PORTD = 0x0C;
					_delay_ms(period);
				}
				PORTD = 0x09;
    1420:	89 e0       	ldi	r24, 0x09	; 9
    1422:	82 bb       	out	0x12, r24	; 18
    1424:	8f ef       	ldi	r24, 0xFF	; 255
    1426:	91 ee       	ldi	r25, 0xE1	; 225
    1428:	a4 e0       	ldi	r26, 0x04	; 4
    142a:	81 50       	subi	r24, 0x01	; 1
    142c:	90 40       	sbci	r25, 0x00	; 0
    142e:	a0 40       	sbci	r26, 0x00	; 0
    1430:	e1 f7       	brne	.-8      	; 0x142a <__stack+0xbcb>
    1432:	00 c0       	rjmp	.+0      	; 0x1434 <__stack+0xbd5>
    1434:	00 00       	nop
    1436:	bf ef       	ldi	r27, 0xFF	; 255
    1438:	c3 ed       	ldi	r28, 0xD3	; 211
    143a:	e0 e3       	ldi	r30, 0x30	; 48
    143c:	b1 50       	subi	r27, 0x01	; 1
    143e:	c0 40       	sbci	r28, 0x00	; 0
    1440:	e0 40       	sbci	r30, 0x00	; 0
    1442:	e1 f7       	brne	.-8      	; 0x143c <__stack+0xbdd>
    1444:	00 c0       	rjmp	.+0      	; 0x1446 <__stack+0xbe7>
    1446:	00 00       	nop
    1448:	0c 94 2c 3b 	jmp	0x7658	; 0x7658 <__stack+0x6df9>
				break;
			}
		}
		break;
		case 2:
		switch (personNum)
    144c:	8c e0       	ldi	r24, 0x0C	; 12
    144e:	90 e0       	ldi	r25, 0x00	; 0
			case 5:
			{
				/* Rotate Stepper Motor clockwise with Half step sequence */
				for (int i = 0; i < 12; i++)
				{
					PORTD = 0x09;
    1450:	f9 e0       	ldi	r31, 0x09	; 9
					_delay_ms(period);
					PORTD = 0x08;
    1452:	e8 e0       	ldi	r30, 0x08	; 8
					_delay_ms(period);
					PORTD = 0x0C;
    1454:	7c e0       	ldi	r23, 0x0C	; 12
					_delay_ms(period);
					PORTD = 0x04;
    1456:	64 e0       	ldi	r22, 0x04	; 4
					_delay_ms(period);
					PORTD = 0x06;
    1458:	56 e0       	ldi	r21, 0x06	; 6
					_delay_ms(period);
					PORTD = 0x02;
    145a:	42 e0       	ldi	r20, 0x02	; 2
					_delay_ms(period);
					PORTD = 0x03;
    145c:	33 e0       	ldi	r19, 0x03	; 3
					_delay_ms(period);
					PORTD = 0x01;
    145e:	21 e0       	ldi	r18, 0x01	; 1
			case 5:
			{
				/* Rotate Stepper Motor clockwise with Half step sequence */
				for (int i = 0; i < 12; i++)
				{
					PORTD = 0x09;
    1460:	f2 bb       	out	0x12, r31	; 18
    1462:	af ef       	ldi	r26, 0xFF	; 255
    1464:	b1 ee       	ldi	r27, 0xE1	; 225
    1466:	c4 e0       	ldi	r28, 0x04	; 4
    1468:	a1 50       	subi	r26, 0x01	; 1
    146a:	b0 40       	sbci	r27, 0x00	; 0
    146c:	c0 40       	sbci	r28, 0x00	; 0
    146e:	e1 f7       	brne	.-8      	; 0x1468 <__stack+0xc09>
    1470:	00 c0       	rjmp	.+0      	; 0x1472 <__stack+0xc13>
    1472:	00 00       	nop
					_delay_ms(period);
					PORTD = 0x08;
    1474:	e2 bb       	out	0x12, r30	; 18
    1476:	af ef       	ldi	r26, 0xFF	; 255
    1478:	b1 ee       	ldi	r27, 0xE1	; 225
    147a:	c4 e0       	ldi	r28, 0x04	; 4
    147c:	a1 50       	subi	r26, 0x01	; 1
    147e:	b0 40       	sbci	r27, 0x00	; 0
    1480:	c0 40       	sbci	r28, 0x00	; 0
    1482:	e1 f7       	brne	.-8      	; 0x147c <__stack+0xc1d>
    1484:	00 c0       	rjmp	.+0      	; 0x1486 <__stack+0xc27>
    1486:	00 00       	nop
					_delay_ms(period);
					PORTD = 0x0C;
    1488:	72 bb       	out	0x12, r23	; 18
    148a:	af ef       	ldi	r26, 0xFF	; 255
    148c:	b1 ee       	ldi	r27, 0xE1	; 225
    148e:	c4 e0       	ldi	r28, 0x04	; 4
    1490:	a1 50       	subi	r26, 0x01	; 1
    1492:	b0 40       	sbci	r27, 0x00	; 0
    1494:	c0 40       	sbci	r28, 0x00	; 0
    1496:	e1 f7       	brne	.-8      	; 0x1490 <__stack+0xc31>
    1498:	00 c0       	rjmp	.+0      	; 0x149a <__stack+0xc3b>
    149a:	00 00       	nop
					_delay_ms(period);
					PORTD = 0x04;
    149c:	62 bb       	out	0x12, r22	; 18
    149e:	af ef       	ldi	r26, 0xFF	; 255
    14a0:	b1 ee       	ldi	r27, 0xE1	; 225
    14a2:	c4 e0       	ldi	r28, 0x04	; 4
    14a4:	a1 50       	subi	r26, 0x01	; 1
    14a6:	b0 40       	sbci	r27, 0x00	; 0
    14a8:	c0 40       	sbci	r28, 0x00	; 0
    14aa:	e1 f7       	brne	.-8      	; 0x14a4 <__stack+0xc45>
    14ac:	00 c0       	rjmp	.+0      	; 0x14ae <__stack+0xc4f>
    14ae:	00 00       	nop
					_delay_ms(period);
					PORTD = 0x06;
    14b0:	52 bb       	out	0x12, r21	; 18
    14b2:	af ef       	ldi	r26, 0xFF	; 255
    14b4:	b1 ee       	ldi	r27, 0xE1	; 225
    14b6:	c4 e0       	ldi	r28, 0x04	; 4
    14b8:	a1 50       	subi	r26, 0x01	; 1
    14ba:	b0 40       	sbci	r27, 0x00	; 0
    14bc:	c0 40       	sbci	r28, 0x00	; 0
    14be:	e1 f7       	brne	.-8      	; 0x14b8 <__stack+0xc59>
    14c0:	00 c0       	rjmp	.+0      	; 0x14c2 <__stack+0xc63>
    14c2:	00 00       	nop
					_delay_ms(period);
					PORTD = 0x02;
    14c4:	42 bb       	out	0x12, r20	; 18
    14c6:	af ef       	ldi	r26, 0xFF	; 255
    14c8:	b1 ee       	ldi	r27, 0xE1	; 225
    14ca:	c4 e0       	ldi	r28, 0x04	; 4
    14cc:	a1 50       	subi	r26, 0x01	; 1
    14ce:	b0 40       	sbci	r27, 0x00	; 0
    14d0:	c0 40       	sbci	r28, 0x00	; 0
    14d2:	e1 f7       	brne	.-8      	; 0x14cc <__stack+0xc6d>
    14d4:	00 c0       	rjmp	.+0      	; 0x14d6 <__stack+0xc77>
    14d6:	00 00       	nop
					_delay_ms(period);
					PORTD = 0x03;
    14d8:	32 bb       	out	0x12, r19	; 18
    14da:	af ef       	ldi	r26, 0xFF	; 255
    14dc:	b1 ee       	ldi	r27, 0xE1	; 225
    14de:	c4 e0       	ldi	r28, 0x04	; 4
    14e0:	a1 50       	subi	r26, 0x01	; 1
    14e2:	b0 40       	sbci	r27, 0x00	; 0
    14e4:	c0 40       	sbci	r28, 0x00	; 0
    14e6:	e1 f7       	brne	.-8      	; 0x14e0 <__stack+0xc81>
    14e8:	00 c0       	rjmp	.+0      	; 0x14ea <__stack+0xc8b>
    14ea:	00 00       	nop
					_delay_ms(period);
					PORTD = 0x01;
    14ec:	22 bb       	out	0x12, r18	; 18
    14ee:	af ef       	ldi	r26, 0xFF	; 255
    14f0:	b1 ee       	ldi	r27, 0xE1	; 225
    14f2:	c4 e0       	ldi	r28, 0x04	; 4
    14f4:	a1 50       	subi	r26, 0x01	; 1
    14f6:	b0 40       	sbci	r27, 0x00	; 0
    14f8:	c0 40       	sbci	r28, 0x00	; 0
    14fa:	e1 f7       	brne	.-8      	; 0x14f4 <__stack+0xc95>
    14fc:	00 c0       	rjmp	.+0      	; 0x14fe <__stack+0xc9f>
    14fe:	00 00       	nop
    1500:	01 97       	sbiw	r24, 0x01	; 1
				break;
			}
			case 5:
			{
				/* Rotate Stepper Motor clockwise with Half step sequence */
				for (int i = 0; i < 12; i++)
    1502:	09 f0       	breq	.+2      	; 0x1506 <__stack+0xca7>
    1504:	ad cf       	rjmp	.-166    	; 0x1460 <__stack+0xc01>
					PORTD = 0x03;
					_delay_ms(period);
					PORTD = 0x01;
					_delay_ms(period);
				}
				PORTD = 0x09; /* Last step to initial position */
    1506:	89 e0       	ldi	r24, 0x09	; 9
    1508:	82 bb       	out	0x12, r24	; 18
    150a:	ef ef       	ldi	r30, 0xFF	; 255
    150c:	21 ee       	ldi	r18, 0xE1	; 225
    150e:	64 e0       	ldi	r22, 0x04	; 4
    1510:	e1 50       	subi	r30, 0x01	; 1
    1512:	20 40       	sbci	r18, 0x00	; 0
    1514:	60 40       	sbci	r22, 0x00	; 0
    1516:	e1 f7       	brne	.-8      	; 0x1510 <__stack+0xcb1>
    1518:	00 c0       	rjmp	.+0      	; 0x151a <__stack+0xcbb>
    151a:	00 00       	nop
    151c:	7f ef       	ldi	r23, 0xFF	; 255
    151e:	83 ed       	ldi	r24, 0xD3	; 211
    1520:	90 e3       	ldi	r25, 0x30	; 48
    1522:	71 50       	subi	r23, 0x01	; 1
    1524:	80 40       	sbci	r24, 0x00	; 0
    1526:	90 40       	sbci	r25, 0x00	; 0
    1528:	e1 f7       	brne	.-8      	; 0x1522 <__stack+0xcc3>
    152a:	00 c0       	rjmp	.+0      	; 0x152c <__stack+0xccd>
    152c:	00 00       	nop
    152e:	8c e0       	ldi	r24, 0x0C	; 12
    1530:	90 e0       	ldi	r25, 0x00	; 0
				_delay_ms(1000);

				/* Rotate Stepper Motor Anticlockwise with Full step sequence */
				for (int i = 0; i < 12; i++)
				{
					PORTD = 0x09;
    1532:	59 e0       	ldi	r21, 0x09	; 9
					_delay_ms(period);
					PORTD = 0x03;
    1534:	43 e0       	ldi	r20, 0x03	; 3
					_delay_ms(period);
					PORTD = 0x06;
    1536:	36 e0       	ldi	r19, 0x06	; 6
					_delay_ms(period);
					PORTD = 0x0C;
    1538:	2c e0       	ldi	r18, 0x0C	; 12
				_delay_ms(1000);

				/* Rotate Stepper Motor Anticlockwise with Full step sequence */
				for (int i = 0; i < 12; i++)
				{
					PORTD = 0x09;
    153a:	52 bb       	out	0x12, r21	; 18
    153c:	af ef       	ldi	r26, 0xFF	; 255
    153e:	b1 ee       	ldi	r27, 0xE1	; 225
    1540:	c4 e0       	ldi	r28, 0x04	; 4
    1542:	a1 50       	subi	r26, 0x01	; 1
    1544:	b0 40       	sbci	r27, 0x00	; 0
    1546:	c0 40       	sbci	r28, 0x00	; 0
    1548:	e1 f7       	brne	.-8      	; 0x1542 <__stack+0xce3>
    154a:	00 c0       	rjmp	.+0      	; 0x154c <__stack+0xced>
    154c:	00 00       	nop
					_delay_ms(period);
					PORTD = 0x03;
    154e:	42 bb       	out	0x12, r20	; 18
    1550:	ef ef       	ldi	r30, 0xFF	; 255
    1552:	61 ee       	ldi	r22, 0xE1	; 225
    1554:	74 e0       	ldi	r23, 0x04	; 4
    1556:	e1 50       	subi	r30, 0x01	; 1
    1558:	60 40       	sbci	r22, 0x00	; 0
    155a:	70 40       	sbci	r23, 0x00	; 0
    155c:	e1 f7       	brne	.-8      	; 0x1556 <__stack+0xcf7>
    155e:	00 c0       	rjmp	.+0      	; 0x1560 <__stack+0xd01>
    1560:	00 00       	nop
					_delay_ms(period);
					PORTD = 0x06;
    1562:	32 bb       	out	0x12, r19	; 18
    1564:	af ef       	ldi	r26, 0xFF	; 255
    1566:	b1 ee       	ldi	r27, 0xE1	; 225
    1568:	c4 e0       	ldi	r28, 0x04	; 4
    156a:	a1 50       	subi	r26, 0x01	; 1
    156c:	b0 40       	sbci	r27, 0x00	; 0
    156e:	c0 40       	sbci	r28, 0x00	; 0
    1570:	e1 f7       	brne	.-8      	; 0x156a <__stack+0xd0b>
    1572:	00 c0       	rjmp	.+0      	; 0x1574 <__stack+0xd15>
    1574:	00 00       	nop
					_delay_ms(period);
					PORTD = 0x0C;
    1576:	22 bb       	out	0x12, r18	; 18
    1578:	ef ef       	ldi	r30, 0xFF	; 255
    157a:	61 ee       	ldi	r22, 0xE1	; 225
    157c:	74 e0       	ldi	r23, 0x04	; 4
    157e:	e1 50       	subi	r30, 0x01	; 1
    1580:	60 40       	sbci	r22, 0x00	; 0
    1582:	70 40       	sbci	r23, 0x00	; 0
    1584:	e1 f7       	brne	.-8      	; 0x157e <__stack+0xd1f>
    1586:	00 c0       	rjmp	.+0      	; 0x1588 <__stack+0xd29>
    1588:	00 00       	nop
    158a:	01 97       	sbiw	r24, 0x01	; 1
				PORTD = 0x09; /* Last step to initial position */
				_delay_ms(period);
				_delay_ms(1000);

				/* Rotate Stepper Motor Anticlockwise with Full step sequence */
				for (int i = 0; i < 12; i++)
    158c:	b1 f6       	brne	.-84     	; 0x153a <__stack+0xcdb>
					PORTD = 0x06;
					_delay_ms(period);
					PORTD = 0x0C;
					_delay_ms(period);
				}
				PORTD = 0x09;
    158e:	89 e0       	ldi	r24, 0x09	; 9
    1590:	82 bb       	out	0x12, r24	; 18
    1592:	8f ef       	ldi	r24, 0xFF	; 255
    1594:	91 ee       	ldi	r25, 0xE1	; 225
    1596:	a4 e0       	ldi	r26, 0x04	; 4
    1598:	81 50       	subi	r24, 0x01	; 1
    159a:	90 40       	sbci	r25, 0x00	; 0
    159c:	a0 40       	sbci	r26, 0x00	; 0
    159e:	e1 f7       	brne	.-8      	; 0x1598 <__stack+0xd39>
    15a0:	00 c0       	rjmp	.+0      	; 0x15a2 <__stack+0xd43>
    15a2:	00 00       	nop
    15a4:	bf ef       	ldi	r27, 0xFF	; 255
    15a6:	c3 ed       	ldi	r28, 0xD3	; 211
    15a8:	e0 e3       	ldi	r30, 0x30	; 48
    15aa:	b1 50       	subi	r27, 0x01	; 1
    15ac:	c0 40       	sbci	r28, 0x00	; 0
    15ae:	e0 40       	sbci	r30, 0x00	; 0
    15b0:	e1 f7       	brne	.-8      	; 0x15aa <__stack+0xd4b>
    15b2:	00 c0       	rjmp	.+0      	; 0x15b4 <__stack+0xd55>
    15b4:	00 00       	nop
    15b6:	0c 94 2c 3b 	jmp	0x7658	; 0x7658 <__stack+0x6df9>
				break;
			}
		}
		break;
		case 2:
		switch (personNum)
    15ba:	8c e0       	ldi	r24, 0x0C	; 12
    15bc:	90 e0       	ldi	r25, 0x00	; 0
			case 6:
			{
				/* Rotate Stepper Motor clockwise with Half step sequence */
				for (int i = 0; i < 12; i++)
				{
					PORTD = 0x09;
    15be:	f9 e0       	ldi	r31, 0x09	; 9
					_delay_ms(period);
					PORTD = 0x08;
    15c0:	e8 e0       	ldi	r30, 0x08	; 8
					_delay_ms(period);
					PORTD = 0x0C;
    15c2:	7c e0       	ldi	r23, 0x0C	; 12
					_delay_ms(period);
					PORTD = 0x04;
    15c4:	64 e0       	ldi	r22, 0x04	; 4
					_delay_ms(period);
					PORTD = 0x06;
    15c6:	56 e0       	ldi	r21, 0x06	; 6
					_delay_ms(period);
					PORTD = 0x02;
    15c8:	42 e0       	ldi	r20, 0x02	; 2
					_delay_ms(period);
					PORTD = 0x03;
    15ca:	33 e0       	ldi	r19, 0x03	; 3
					_delay_ms(period);
					PORTD = 0x01;
    15cc:	21 e0       	ldi	r18, 0x01	; 1
			case 6:
			{
				/* Rotate Stepper Motor clockwise with Half step sequence */
				for (int i = 0; i < 12; i++)
				{
					PORTD = 0x09;
    15ce:	f2 bb       	out	0x12, r31	; 18
    15d0:	af ef       	ldi	r26, 0xFF	; 255
    15d2:	b1 ee       	ldi	r27, 0xE1	; 225
    15d4:	c4 e0       	ldi	r28, 0x04	; 4
    15d6:	a1 50       	subi	r26, 0x01	; 1
    15d8:	b0 40       	sbci	r27, 0x00	; 0
    15da:	c0 40       	sbci	r28, 0x00	; 0
    15dc:	e1 f7       	brne	.-8      	; 0x15d6 <__stack+0xd77>
    15de:	00 c0       	rjmp	.+0      	; 0x15e0 <__stack+0xd81>
    15e0:	00 00       	nop
					_delay_ms(period);
					PORTD = 0x08;
    15e2:	e2 bb       	out	0x12, r30	; 18
    15e4:	af ef       	ldi	r26, 0xFF	; 255
    15e6:	b1 ee       	ldi	r27, 0xE1	; 225
    15e8:	c4 e0       	ldi	r28, 0x04	; 4
    15ea:	a1 50       	subi	r26, 0x01	; 1
    15ec:	b0 40       	sbci	r27, 0x00	; 0
    15ee:	c0 40       	sbci	r28, 0x00	; 0
    15f0:	e1 f7       	brne	.-8      	; 0x15ea <__stack+0xd8b>
    15f2:	00 c0       	rjmp	.+0      	; 0x15f4 <__stack+0xd95>
    15f4:	00 00       	nop
					_delay_ms(period);
					PORTD = 0x0C;
    15f6:	72 bb       	out	0x12, r23	; 18
    15f8:	af ef       	ldi	r26, 0xFF	; 255
    15fa:	b1 ee       	ldi	r27, 0xE1	; 225
    15fc:	c4 e0       	ldi	r28, 0x04	; 4
    15fe:	a1 50       	subi	r26, 0x01	; 1
    1600:	b0 40       	sbci	r27, 0x00	; 0
    1602:	c0 40       	sbci	r28, 0x00	; 0
    1604:	e1 f7       	brne	.-8      	; 0x15fe <__stack+0xd9f>
    1606:	00 c0       	rjmp	.+0      	; 0x1608 <__stack+0xda9>
    1608:	00 00       	nop
					_delay_ms(period);
					PORTD = 0x04;
    160a:	62 bb       	out	0x12, r22	; 18
    160c:	af ef       	ldi	r26, 0xFF	; 255
    160e:	b1 ee       	ldi	r27, 0xE1	; 225
    1610:	c4 e0       	ldi	r28, 0x04	; 4
    1612:	a1 50       	subi	r26, 0x01	; 1
    1614:	b0 40       	sbci	r27, 0x00	; 0
    1616:	c0 40       	sbci	r28, 0x00	; 0
    1618:	e1 f7       	brne	.-8      	; 0x1612 <__stack+0xdb3>
    161a:	00 c0       	rjmp	.+0      	; 0x161c <__stack+0xdbd>
    161c:	00 00       	nop
					_delay_ms(period);
					PORTD = 0x06;
    161e:	52 bb       	out	0x12, r21	; 18
    1620:	af ef       	ldi	r26, 0xFF	; 255
    1622:	b1 ee       	ldi	r27, 0xE1	; 225
    1624:	c4 e0       	ldi	r28, 0x04	; 4
    1626:	a1 50       	subi	r26, 0x01	; 1
    1628:	b0 40       	sbci	r27, 0x00	; 0
    162a:	c0 40       	sbci	r28, 0x00	; 0
    162c:	e1 f7       	brne	.-8      	; 0x1626 <__stack+0xdc7>
    162e:	00 c0       	rjmp	.+0      	; 0x1630 <__stack+0xdd1>
    1630:	00 00       	nop
					_delay_ms(period);
					PORTD = 0x02;
    1632:	42 bb       	out	0x12, r20	; 18
    1634:	af ef       	ldi	r26, 0xFF	; 255
    1636:	b1 ee       	ldi	r27, 0xE1	; 225
    1638:	c4 e0       	ldi	r28, 0x04	; 4
    163a:	a1 50       	subi	r26, 0x01	; 1
    163c:	b0 40       	sbci	r27, 0x00	; 0
    163e:	c0 40       	sbci	r28, 0x00	; 0
    1640:	e1 f7       	brne	.-8      	; 0x163a <__stack+0xddb>
    1642:	00 c0       	rjmp	.+0      	; 0x1644 <__stack+0xde5>
    1644:	00 00       	nop
					_delay_ms(period);
					PORTD = 0x03;
    1646:	32 bb       	out	0x12, r19	; 18
    1648:	af ef       	ldi	r26, 0xFF	; 255
    164a:	b1 ee       	ldi	r27, 0xE1	; 225
    164c:	c4 e0       	ldi	r28, 0x04	; 4
    164e:	a1 50       	subi	r26, 0x01	; 1
    1650:	b0 40       	sbci	r27, 0x00	; 0
    1652:	c0 40       	sbci	r28, 0x00	; 0
    1654:	e1 f7       	brne	.-8      	; 0x164e <__stack+0xdef>
    1656:	00 c0       	rjmp	.+0      	; 0x1658 <__stack+0xdf9>
    1658:	00 00       	nop
					_delay_ms(period);
					PORTD = 0x01;
    165a:	22 bb       	out	0x12, r18	; 18
    165c:	af ef       	ldi	r26, 0xFF	; 255
    165e:	b1 ee       	ldi	r27, 0xE1	; 225
    1660:	c4 e0       	ldi	r28, 0x04	; 4
    1662:	a1 50       	subi	r26, 0x01	; 1
    1664:	b0 40       	sbci	r27, 0x00	; 0
    1666:	c0 40       	sbci	r28, 0x00	; 0
    1668:	e1 f7       	brne	.-8      	; 0x1662 <__stack+0xe03>
    166a:	00 c0       	rjmp	.+0      	; 0x166c <__stack+0xe0d>
    166c:	00 00       	nop
    166e:	01 97       	sbiw	r24, 0x01	; 1
				break;
			}
			case 6:
			{
				/* Rotate Stepper Motor clockwise with Half step sequence */
				for (int i = 0; i < 12; i++)
    1670:	09 f0       	breq	.+2      	; 0x1674 <__stack+0xe15>
    1672:	ad cf       	rjmp	.-166    	; 0x15ce <__stack+0xd6f>
					PORTD = 0x03;
					_delay_ms(period);
					PORTD = 0x01;
					_delay_ms(period);
				}
				PORTD = 0x09; /* Last step to initial position */
    1674:	89 e0       	ldi	r24, 0x09	; 9
    1676:	82 bb       	out	0x12, r24	; 18
    1678:	ef ef       	ldi	r30, 0xFF	; 255
    167a:	21 ee       	ldi	r18, 0xE1	; 225
    167c:	64 e0       	ldi	r22, 0x04	; 4
    167e:	e1 50       	subi	r30, 0x01	; 1
    1680:	20 40       	sbci	r18, 0x00	; 0
    1682:	60 40       	sbci	r22, 0x00	; 0
    1684:	e1 f7       	brne	.-8      	; 0x167e <__stack+0xe1f>
    1686:	00 c0       	rjmp	.+0      	; 0x1688 <__stack+0xe29>
    1688:	00 00       	nop
    168a:	7f ef       	ldi	r23, 0xFF	; 255
    168c:	83 ed       	ldi	r24, 0xD3	; 211
    168e:	90 e3       	ldi	r25, 0x30	; 48
    1690:	71 50       	subi	r23, 0x01	; 1
    1692:	80 40       	sbci	r24, 0x00	; 0
    1694:	90 40       	sbci	r25, 0x00	; 0
    1696:	e1 f7       	brne	.-8      	; 0x1690 <__stack+0xe31>
    1698:	00 c0       	rjmp	.+0      	; 0x169a <__stack+0xe3b>
    169a:	00 00       	nop
    169c:	8c e0       	ldi	r24, 0x0C	; 12
    169e:	90 e0       	ldi	r25, 0x00	; 0
				_delay_ms(1000);

				/* Rotate Stepper Motor Anticlockwise with Full step sequence */
				for (int i = 0; i < 12; i++)
				{
					PORTD = 0x09;
    16a0:	59 e0       	ldi	r21, 0x09	; 9
					_delay_ms(period);
					PORTD = 0x03;
    16a2:	43 e0       	ldi	r20, 0x03	; 3
					_delay_ms(period);
					PORTD = 0x06;
    16a4:	36 e0       	ldi	r19, 0x06	; 6
					_delay_ms(period);
					PORTD = 0x0C;
    16a6:	2c e0       	ldi	r18, 0x0C	; 12
				_delay_ms(1000);

				/* Rotate Stepper Motor Anticlockwise with Full step sequence */
				for (int i = 0; i < 12; i++)
				{
					PORTD = 0x09;
    16a8:	52 bb       	out	0x12, r21	; 18
    16aa:	af ef       	ldi	r26, 0xFF	; 255
    16ac:	b1 ee       	ldi	r27, 0xE1	; 225
    16ae:	c4 e0       	ldi	r28, 0x04	; 4
    16b0:	a1 50       	subi	r26, 0x01	; 1
    16b2:	b0 40       	sbci	r27, 0x00	; 0
    16b4:	c0 40       	sbci	r28, 0x00	; 0
    16b6:	e1 f7       	brne	.-8      	; 0x16b0 <__stack+0xe51>
    16b8:	00 c0       	rjmp	.+0      	; 0x16ba <__stack+0xe5b>
    16ba:	00 00       	nop
					_delay_ms(period);
					PORTD = 0x03;
    16bc:	42 bb       	out	0x12, r20	; 18
    16be:	ef ef       	ldi	r30, 0xFF	; 255
    16c0:	61 ee       	ldi	r22, 0xE1	; 225
    16c2:	74 e0       	ldi	r23, 0x04	; 4
    16c4:	e1 50       	subi	r30, 0x01	; 1
    16c6:	60 40       	sbci	r22, 0x00	; 0
    16c8:	70 40       	sbci	r23, 0x00	; 0
    16ca:	e1 f7       	brne	.-8      	; 0x16c4 <__stack+0xe65>
    16cc:	00 c0       	rjmp	.+0      	; 0x16ce <__stack+0xe6f>
    16ce:	00 00       	nop
					_delay_ms(period);
					PORTD = 0x06;
    16d0:	32 bb       	out	0x12, r19	; 18
    16d2:	af ef       	ldi	r26, 0xFF	; 255
    16d4:	b1 ee       	ldi	r27, 0xE1	; 225
    16d6:	c4 e0       	ldi	r28, 0x04	; 4
    16d8:	a1 50       	subi	r26, 0x01	; 1
    16da:	b0 40       	sbci	r27, 0x00	; 0
    16dc:	c0 40       	sbci	r28, 0x00	; 0
    16de:	e1 f7       	brne	.-8      	; 0x16d8 <__stack+0xe79>
    16e0:	00 c0       	rjmp	.+0      	; 0x16e2 <__stack+0xe83>
    16e2:	00 00       	nop
					_delay_ms(period);
					PORTD = 0x0C;
    16e4:	22 bb       	out	0x12, r18	; 18
    16e6:	ef ef       	ldi	r30, 0xFF	; 255
    16e8:	61 ee       	ldi	r22, 0xE1	; 225
    16ea:	74 e0       	ldi	r23, 0x04	; 4
    16ec:	e1 50       	subi	r30, 0x01	; 1
    16ee:	60 40       	sbci	r22, 0x00	; 0
    16f0:	70 40       	sbci	r23, 0x00	; 0
    16f2:	e1 f7       	brne	.-8      	; 0x16ec <__stack+0xe8d>
    16f4:	00 c0       	rjmp	.+0      	; 0x16f6 <__stack+0xe97>
    16f6:	00 00       	nop
    16f8:	01 97       	sbiw	r24, 0x01	; 1
				PORTD = 0x09; /* Last step to initial position */
				_delay_ms(period);
				_delay_ms(1000);

				/* Rotate Stepper Motor Anticlockwise with Full step sequence */
				for (int i = 0; i < 12; i++)
    16fa:	b1 f6       	brne	.-84     	; 0x16a8 <__stack+0xe49>
					PORTD = 0x06;
					_delay_ms(period);
					PORTD = 0x0C;
					_delay_ms(period);
				}
				PORTD = 0x09;
    16fc:	89 e0       	ldi	r24, 0x09	; 9
    16fe:	82 bb       	out	0x12, r24	; 18
    1700:	8f ef       	ldi	r24, 0xFF	; 255
    1702:	91 ee       	ldi	r25, 0xE1	; 225
    1704:	a4 e0       	ldi	r26, 0x04	; 4
    1706:	81 50       	subi	r24, 0x01	; 1
    1708:	90 40       	sbci	r25, 0x00	; 0
    170a:	a0 40       	sbci	r26, 0x00	; 0
    170c:	e1 f7       	brne	.-8      	; 0x1706 <__stack+0xea7>
    170e:	00 c0       	rjmp	.+0      	; 0x1710 <__stack+0xeb1>
    1710:	00 00       	nop
    1712:	bf ef       	ldi	r27, 0xFF	; 255
    1714:	c3 ed       	ldi	r28, 0xD3	; 211
    1716:	e0 e3       	ldi	r30, 0x30	; 48
    1718:	b1 50       	subi	r27, 0x01	; 1
    171a:	c0 40       	sbci	r28, 0x00	; 0
    171c:	e0 40       	sbci	r30, 0x00	; 0
    171e:	e1 f7       	brne	.-8      	; 0x1718 <__stack+0xeb9>
    1720:	00 c0       	rjmp	.+0      	; 0x1722 <__stack+0xec3>
    1722:	00 00       	nop
    1724:	0c 94 2c 3b 	jmp	0x7658	; 0x7658 <__stack+0x6df9>
				break;
			}
		}
		break;
		case 2:
		switch (personNum)
    1728:	8c e0       	ldi	r24, 0x0C	; 12
    172a:	90 e0       	ldi	r25, 0x00	; 0
			case 7:
			{
				/* Rotate Stepper Motor clockwise with Half step sequence */
				for (int i = 0; i < 12; i++)
				{
					PORTD = 0x09;
    172c:	f9 e0       	ldi	r31, 0x09	; 9
					_delay_ms(period);
					PORTD = 0x08;
    172e:	e8 e0       	ldi	r30, 0x08	; 8
					_delay_ms(period);
					PORTD = 0x0C;
    1730:	7c e0       	ldi	r23, 0x0C	; 12
					_delay_ms(period);
					PORTD = 0x04;
    1732:	64 e0       	ldi	r22, 0x04	; 4
					_delay_ms(period);
					PORTD = 0x06;
    1734:	56 e0       	ldi	r21, 0x06	; 6
					_delay_ms(period);
					PORTD = 0x02;
    1736:	42 e0       	ldi	r20, 0x02	; 2
					_delay_ms(period);
					PORTD = 0x03;
    1738:	33 e0       	ldi	r19, 0x03	; 3
					_delay_ms(period);
					PORTD = 0x01;
    173a:	21 e0       	ldi	r18, 0x01	; 1
			case 7:
			{
				/* Rotate Stepper Motor clockwise with Half step sequence */
				for (int i = 0; i < 12; i++)
				{
					PORTD = 0x09;
    173c:	f2 bb       	out	0x12, r31	; 18
    173e:	af ef       	ldi	r26, 0xFF	; 255
    1740:	b1 ee       	ldi	r27, 0xE1	; 225
    1742:	c4 e0       	ldi	r28, 0x04	; 4
    1744:	a1 50       	subi	r26, 0x01	; 1
    1746:	b0 40       	sbci	r27, 0x00	; 0
    1748:	c0 40       	sbci	r28, 0x00	; 0
    174a:	e1 f7       	brne	.-8      	; 0x1744 <__stack+0xee5>
    174c:	00 c0       	rjmp	.+0      	; 0x174e <__stack+0xeef>
    174e:	00 00       	nop
					_delay_ms(period);
					PORTD = 0x08;
    1750:	e2 bb       	out	0x12, r30	; 18
    1752:	af ef       	ldi	r26, 0xFF	; 255
    1754:	b1 ee       	ldi	r27, 0xE1	; 225
    1756:	c4 e0       	ldi	r28, 0x04	; 4
    1758:	a1 50       	subi	r26, 0x01	; 1
    175a:	b0 40       	sbci	r27, 0x00	; 0
    175c:	c0 40       	sbci	r28, 0x00	; 0
    175e:	e1 f7       	brne	.-8      	; 0x1758 <__stack+0xef9>
    1760:	00 c0       	rjmp	.+0      	; 0x1762 <__stack+0xf03>
    1762:	00 00       	nop
					_delay_ms(period);
					PORTD = 0x0C;
    1764:	72 bb       	out	0x12, r23	; 18
    1766:	af ef       	ldi	r26, 0xFF	; 255
    1768:	b1 ee       	ldi	r27, 0xE1	; 225
    176a:	c4 e0       	ldi	r28, 0x04	; 4
    176c:	a1 50       	subi	r26, 0x01	; 1
    176e:	b0 40       	sbci	r27, 0x00	; 0
    1770:	c0 40       	sbci	r28, 0x00	; 0
    1772:	e1 f7       	brne	.-8      	; 0x176c <__stack+0xf0d>
    1774:	00 c0       	rjmp	.+0      	; 0x1776 <__stack+0xf17>
    1776:	00 00       	nop
					_delay_ms(period);
					PORTD = 0x04;
    1778:	62 bb       	out	0x12, r22	; 18
    177a:	af ef       	ldi	r26, 0xFF	; 255
    177c:	b1 ee       	ldi	r27, 0xE1	; 225
    177e:	c4 e0       	ldi	r28, 0x04	; 4
    1780:	a1 50       	subi	r26, 0x01	; 1
    1782:	b0 40       	sbci	r27, 0x00	; 0
    1784:	c0 40       	sbci	r28, 0x00	; 0
    1786:	e1 f7       	brne	.-8      	; 0x1780 <__stack+0xf21>
    1788:	00 c0       	rjmp	.+0      	; 0x178a <__stack+0xf2b>
    178a:	00 00       	nop
					_delay_ms(period);
					PORTD = 0x06;
    178c:	52 bb       	out	0x12, r21	; 18
    178e:	af ef       	ldi	r26, 0xFF	; 255
    1790:	b1 ee       	ldi	r27, 0xE1	; 225
    1792:	c4 e0       	ldi	r28, 0x04	; 4
    1794:	a1 50       	subi	r26, 0x01	; 1
    1796:	b0 40       	sbci	r27, 0x00	; 0
    1798:	c0 40       	sbci	r28, 0x00	; 0
    179a:	e1 f7       	brne	.-8      	; 0x1794 <__stack+0xf35>
    179c:	00 c0       	rjmp	.+0      	; 0x179e <__stack+0xf3f>
    179e:	00 00       	nop
					_delay_ms(period);
					PORTD = 0x02;
    17a0:	42 bb       	out	0x12, r20	; 18
    17a2:	af ef       	ldi	r26, 0xFF	; 255
    17a4:	b1 ee       	ldi	r27, 0xE1	; 225
    17a6:	c4 e0       	ldi	r28, 0x04	; 4
    17a8:	a1 50       	subi	r26, 0x01	; 1
    17aa:	b0 40       	sbci	r27, 0x00	; 0
    17ac:	c0 40       	sbci	r28, 0x00	; 0
    17ae:	e1 f7       	brne	.-8      	; 0x17a8 <__stack+0xf49>
    17b0:	00 c0       	rjmp	.+0      	; 0x17b2 <__stack+0xf53>
    17b2:	00 00       	nop
					_delay_ms(period);
					PORTD = 0x03;
    17b4:	32 bb       	out	0x12, r19	; 18
    17b6:	af ef       	ldi	r26, 0xFF	; 255
    17b8:	b1 ee       	ldi	r27, 0xE1	; 225
    17ba:	c4 e0       	ldi	r28, 0x04	; 4
    17bc:	a1 50       	subi	r26, 0x01	; 1
    17be:	b0 40       	sbci	r27, 0x00	; 0
    17c0:	c0 40       	sbci	r28, 0x00	; 0
    17c2:	e1 f7       	brne	.-8      	; 0x17bc <__stack+0xf5d>
    17c4:	00 c0       	rjmp	.+0      	; 0x17c6 <__stack+0xf67>
    17c6:	00 00       	nop
					_delay_ms(period);
					PORTD = 0x01;
    17c8:	22 bb       	out	0x12, r18	; 18
    17ca:	af ef       	ldi	r26, 0xFF	; 255
    17cc:	b1 ee       	ldi	r27, 0xE1	; 225
    17ce:	c4 e0       	ldi	r28, 0x04	; 4
    17d0:	a1 50       	subi	r26, 0x01	; 1
    17d2:	b0 40       	sbci	r27, 0x00	; 0
    17d4:	c0 40       	sbci	r28, 0x00	; 0
    17d6:	e1 f7       	brne	.-8      	; 0x17d0 <__stack+0xf71>
    17d8:	00 c0       	rjmp	.+0      	; 0x17da <__stack+0xf7b>
    17da:	00 00       	nop
    17dc:	01 97       	sbiw	r24, 0x01	; 1
				break;
			}
			case 7:
			{
				/* Rotate Stepper Motor clockwise with Half step sequence */
				for (int i = 0; i < 12; i++)
    17de:	09 f0       	breq	.+2      	; 0x17e2 <__stack+0xf83>
    17e0:	ad cf       	rjmp	.-166    	; 0x173c <__stack+0xedd>
					PORTD = 0x03;
					_delay_ms(period);
					PORTD = 0x01;
					_delay_ms(period);
				}
				PORTD = 0x09; /* Last step to initial position */
    17e2:	89 e0       	ldi	r24, 0x09	; 9
    17e4:	82 bb       	out	0x12, r24	; 18
    17e6:	ef ef       	ldi	r30, 0xFF	; 255
    17e8:	21 ee       	ldi	r18, 0xE1	; 225
    17ea:	64 e0       	ldi	r22, 0x04	; 4
    17ec:	e1 50       	subi	r30, 0x01	; 1
    17ee:	20 40       	sbci	r18, 0x00	; 0
    17f0:	60 40       	sbci	r22, 0x00	; 0
    17f2:	e1 f7       	brne	.-8      	; 0x17ec <__stack+0xf8d>
    17f4:	00 c0       	rjmp	.+0      	; 0x17f6 <__stack+0xf97>
    17f6:	00 00       	nop
    17f8:	7f ef       	ldi	r23, 0xFF	; 255
    17fa:	83 ed       	ldi	r24, 0xD3	; 211
    17fc:	90 e3       	ldi	r25, 0x30	; 48
    17fe:	71 50       	subi	r23, 0x01	; 1
    1800:	80 40       	sbci	r24, 0x00	; 0
    1802:	90 40       	sbci	r25, 0x00	; 0
    1804:	e1 f7       	brne	.-8      	; 0x17fe <__stack+0xf9f>
    1806:	00 c0       	rjmp	.+0      	; 0x1808 <__stack+0xfa9>
    1808:	00 00       	nop
    180a:	8c e0       	ldi	r24, 0x0C	; 12
    180c:	90 e0       	ldi	r25, 0x00	; 0
				_delay_ms(1000);

				/* Rotate Stepper Motor Anticlockwise with Full step sequence */
				for (int i = 0; i < 12; i++)
				{
					PORTD = 0x09;
    180e:	59 e0       	ldi	r21, 0x09	; 9
					_delay_ms(period);
					PORTD = 0x03;
    1810:	43 e0       	ldi	r20, 0x03	; 3
					_delay_ms(period);
					PORTD = 0x06;
    1812:	36 e0       	ldi	r19, 0x06	; 6
					_delay_ms(period);
					PORTD = 0x0C;
    1814:	2c e0       	ldi	r18, 0x0C	; 12
				_delay_ms(1000);

				/* Rotate Stepper Motor Anticlockwise with Full step sequence */
				for (int i = 0; i < 12; i++)
				{
					PORTD = 0x09;
    1816:	52 bb       	out	0x12, r21	; 18
    1818:	af ef       	ldi	r26, 0xFF	; 255
    181a:	b1 ee       	ldi	r27, 0xE1	; 225
    181c:	c4 e0       	ldi	r28, 0x04	; 4
    181e:	a1 50       	subi	r26, 0x01	; 1
    1820:	b0 40       	sbci	r27, 0x00	; 0
    1822:	c0 40       	sbci	r28, 0x00	; 0
    1824:	e1 f7       	brne	.-8      	; 0x181e <__stack+0xfbf>
    1826:	00 c0       	rjmp	.+0      	; 0x1828 <__stack+0xfc9>
    1828:	00 00       	nop
					_delay_ms(period);
					PORTD = 0x03;
    182a:	42 bb       	out	0x12, r20	; 18
    182c:	ef ef       	ldi	r30, 0xFF	; 255
    182e:	61 ee       	ldi	r22, 0xE1	; 225
    1830:	74 e0       	ldi	r23, 0x04	; 4
    1832:	e1 50       	subi	r30, 0x01	; 1
    1834:	60 40       	sbci	r22, 0x00	; 0
    1836:	70 40       	sbci	r23, 0x00	; 0
    1838:	e1 f7       	brne	.-8      	; 0x1832 <__stack+0xfd3>
    183a:	00 c0       	rjmp	.+0      	; 0x183c <__stack+0xfdd>
    183c:	00 00       	nop
					_delay_ms(period);
					PORTD = 0x06;
    183e:	32 bb       	out	0x12, r19	; 18
    1840:	af ef       	ldi	r26, 0xFF	; 255
    1842:	b1 ee       	ldi	r27, 0xE1	; 225
    1844:	c4 e0       	ldi	r28, 0x04	; 4
    1846:	a1 50       	subi	r26, 0x01	; 1
    1848:	b0 40       	sbci	r27, 0x00	; 0
    184a:	c0 40       	sbci	r28, 0x00	; 0
    184c:	e1 f7       	brne	.-8      	; 0x1846 <__stack+0xfe7>
    184e:	00 c0       	rjmp	.+0      	; 0x1850 <__stack+0xff1>
    1850:	00 00       	nop
					_delay_ms(period);
					PORTD = 0x0C;
    1852:	22 bb       	out	0x12, r18	; 18
    1854:	ef ef       	ldi	r30, 0xFF	; 255
    1856:	61 ee       	ldi	r22, 0xE1	; 225
    1858:	74 e0       	ldi	r23, 0x04	; 4
    185a:	e1 50       	subi	r30, 0x01	; 1
    185c:	60 40       	sbci	r22, 0x00	; 0
    185e:	70 40       	sbci	r23, 0x00	; 0
    1860:	e1 f7       	brne	.-8      	; 0x185a <__stack+0xffb>
    1862:	00 c0       	rjmp	.+0      	; 0x1864 <__stack+0x1005>
    1864:	00 00       	nop
    1866:	01 97       	sbiw	r24, 0x01	; 1
				PORTD = 0x09; /* Last step to initial position */
				_delay_ms(period);
				_delay_ms(1000);

				/* Rotate Stepper Motor Anticlockwise with Full step sequence */
				for (int i = 0; i < 12; i++)
    1868:	b1 f6       	brne	.-84     	; 0x1816 <__stack+0xfb7>
					PORTD = 0x06;
					_delay_ms(period);
					PORTD = 0x0C;
					_delay_ms(period);
				}
				PORTD = 0x09;
    186a:	89 e0       	ldi	r24, 0x09	; 9
    186c:	82 bb       	out	0x12, r24	; 18
    186e:	8f ef       	ldi	r24, 0xFF	; 255
    1870:	91 ee       	ldi	r25, 0xE1	; 225
    1872:	a4 e0       	ldi	r26, 0x04	; 4
    1874:	81 50       	subi	r24, 0x01	; 1
    1876:	90 40       	sbci	r25, 0x00	; 0
    1878:	a0 40       	sbci	r26, 0x00	; 0
    187a:	e1 f7       	brne	.-8      	; 0x1874 <__stack+0x1015>
    187c:	00 c0       	rjmp	.+0      	; 0x187e <__stack+0x101f>
    187e:	00 00       	nop
    1880:	bf ef       	ldi	r27, 0xFF	; 255
    1882:	c3 ed       	ldi	r28, 0xD3	; 211
    1884:	e0 e3       	ldi	r30, 0x30	; 48
    1886:	b1 50       	subi	r27, 0x01	; 1
    1888:	c0 40       	sbci	r28, 0x00	; 0
    188a:	e0 40       	sbci	r30, 0x00	; 0
    188c:	e1 f7       	brne	.-8      	; 0x1886 <__stack+0x1027>
    188e:	00 c0       	rjmp	.+0      	; 0x1890 <__stack+0x1031>
    1890:	00 00       	nop
    1892:	0c 94 2c 3b 	jmp	0x7658	; 0x7658 <__stack+0x6df9>
				break;
			}
		}
		break;
		case 2:
		switch (personNum)
    1896:	8c e0       	ldi	r24, 0x0C	; 12
    1898:	90 e0       	ldi	r25, 0x00	; 0
			case 8:
			{
				/* Rotate Stepper Motor clockwise with Half step sequence */
				for (int i = 0; i < 12; i++)
				{
					PORTD = 0x09;
    189a:	f9 e0       	ldi	r31, 0x09	; 9
					_delay_ms(period);
					PORTD = 0x08;
    189c:	e8 e0       	ldi	r30, 0x08	; 8
					_delay_ms(period);
					PORTD = 0x0C;
    189e:	7c e0       	ldi	r23, 0x0C	; 12
					_delay_ms(period);
					PORTD = 0x04;
    18a0:	64 e0       	ldi	r22, 0x04	; 4
					_delay_ms(period);
					PORTD = 0x06;
    18a2:	56 e0       	ldi	r21, 0x06	; 6
					_delay_ms(period);
					PORTD = 0x02;
    18a4:	42 e0       	ldi	r20, 0x02	; 2
					_delay_ms(period);
					PORTD = 0x03;
    18a6:	33 e0       	ldi	r19, 0x03	; 3
					_delay_ms(period);
					PORTD = 0x01;
    18a8:	21 e0       	ldi	r18, 0x01	; 1
			case 8:
			{
				/* Rotate Stepper Motor clockwise with Half step sequence */
				for (int i = 0; i < 12; i++)
				{
					PORTD = 0x09;
    18aa:	f2 bb       	out	0x12, r31	; 18
    18ac:	af ef       	ldi	r26, 0xFF	; 255
    18ae:	b1 ee       	ldi	r27, 0xE1	; 225
    18b0:	c4 e0       	ldi	r28, 0x04	; 4
    18b2:	a1 50       	subi	r26, 0x01	; 1
    18b4:	b0 40       	sbci	r27, 0x00	; 0
    18b6:	c0 40       	sbci	r28, 0x00	; 0
    18b8:	e1 f7       	brne	.-8      	; 0x18b2 <__stack+0x1053>
    18ba:	00 c0       	rjmp	.+0      	; 0x18bc <__stack+0x105d>
    18bc:	00 00       	nop
					_delay_ms(period);
					PORTD = 0x08;
    18be:	e2 bb       	out	0x12, r30	; 18
    18c0:	af ef       	ldi	r26, 0xFF	; 255
    18c2:	b1 ee       	ldi	r27, 0xE1	; 225
    18c4:	c4 e0       	ldi	r28, 0x04	; 4
    18c6:	a1 50       	subi	r26, 0x01	; 1
    18c8:	b0 40       	sbci	r27, 0x00	; 0
    18ca:	c0 40       	sbci	r28, 0x00	; 0
    18cc:	e1 f7       	brne	.-8      	; 0x18c6 <__stack+0x1067>
    18ce:	00 c0       	rjmp	.+0      	; 0x18d0 <__stack+0x1071>
    18d0:	00 00       	nop
					_delay_ms(period);
					PORTD = 0x0C;
    18d2:	72 bb       	out	0x12, r23	; 18
    18d4:	af ef       	ldi	r26, 0xFF	; 255
    18d6:	b1 ee       	ldi	r27, 0xE1	; 225
    18d8:	c4 e0       	ldi	r28, 0x04	; 4
    18da:	a1 50       	subi	r26, 0x01	; 1
    18dc:	b0 40       	sbci	r27, 0x00	; 0
    18de:	c0 40       	sbci	r28, 0x00	; 0
    18e0:	e1 f7       	brne	.-8      	; 0x18da <__stack+0x107b>
    18e2:	00 c0       	rjmp	.+0      	; 0x18e4 <__stack+0x1085>
    18e4:	00 00       	nop
					_delay_ms(period);
					PORTD = 0x04;
    18e6:	62 bb       	out	0x12, r22	; 18
    18e8:	af ef       	ldi	r26, 0xFF	; 255
    18ea:	b1 ee       	ldi	r27, 0xE1	; 225
    18ec:	c4 e0       	ldi	r28, 0x04	; 4
    18ee:	a1 50       	subi	r26, 0x01	; 1
    18f0:	b0 40       	sbci	r27, 0x00	; 0
    18f2:	c0 40       	sbci	r28, 0x00	; 0
    18f4:	e1 f7       	brne	.-8      	; 0x18ee <__stack+0x108f>
    18f6:	00 c0       	rjmp	.+0      	; 0x18f8 <__stack+0x1099>
    18f8:	00 00       	nop
					_delay_ms(period);
					PORTD = 0x06;
    18fa:	52 bb       	out	0x12, r21	; 18
    18fc:	af ef       	ldi	r26, 0xFF	; 255
    18fe:	b1 ee       	ldi	r27, 0xE1	; 225
    1900:	c4 e0       	ldi	r28, 0x04	; 4
    1902:	a1 50       	subi	r26, 0x01	; 1
    1904:	b0 40       	sbci	r27, 0x00	; 0
    1906:	c0 40       	sbci	r28, 0x00	; 0
    1908:	e1 f7       	brne	.-8      	; 0x1902 <__stack+0x10a3>
    190a:	00 c0       	rjmp	.+0      	; 0x190c <__stack+0x10ad>
    190c:	00 00       	nop
					_delay_ms(period);
					PORTD = 0x02;
    190e:	42 bb       	out	0x12, r20	; 18
    1910:	af ef       	ldi	r26, 0xFF	; 255
    1912:	b1 ee       	ldi	r27, 0xE1	; 225
    1914:	c4 e0       	ldi	r28, 0x04	; 4
    1916:	a1 50       	subi	r26, 0x01	; 1
    1918:	b0 40       	sbci	r27, 0x00	; 0
    191a:	c0 40       	sbci	r28, 0x00	; 0
    191c:	e1 f7       	brne	.-8      	; 0x1916 <__stack+0x10b7>
    191e:	00 c0       	rjmp	.+0      	; 0x1920 <__stack+0x10c1>
    1920:	00 00       	nop
					_delay_ms(period);
					PORTD = 0x03;
    1922:	32 bb       	out	0x12, r19	; 18
    1924:	af ef       	ldi	r26, 0xFF	; 255
    1926:	b1 ee       	ldi	r27, 0xE1	; 225
    1928:	c4 e0       	ldi	r28, 0x04	; 4
    192a:	a1 50       	subi	r26, 0x01	; 1
    192c:	b0 40       	sbci	r27, 0x00	; 0
    192e:	c0 40       	sbci	r28, 0x00	; 0
    1930:	e1 f7       	brne	.-8      	; 0x192a <__stack+0x10cb>
    1932:	00 c0       	rjmp	.+0      	; 0x1934 <__stack+0x10d5>
    1934:	00 00       	nop
					_delay_ms(period);
					PORTD = 0x01;
    1936:	22 bb       	out	0x12, r18	; 18
    1938:	af ef       	ldi	r26, 0xFF	; 255
    193a:	b1 ee       	ldi	r27, 0xE1	; 225
    193c:	c4 e0       	ldi	r28, 0x04	; 4
    193e:	a1 50       	subi	r26, 0x01	; 1
    1940:	b0 40       	sbci	r27, 0x00	; 0
    1942:	c0 40       	sbci	r28, 0x00	; 0
    1944:	e1 f7       	brne	.-8      	; 0x193e <__stack+0x10df>
    1946:	00 c0       	rjmp	.+0      	; 0x1948 <__stack+0x10e9>
    1948:	00 00       	nop
    194a:	01 97       	sbiw	r24, 0x01	; 1
				break;
			}
			case 8:
			{
				/* Rotate Stepper Motor clockwise with Half step sequence */
				for (int i = 0; i < 12; i++)
    194c:	09 f0       	breq	.+2      	; 0x1950 <__stack+0x10f1>
    194e:	ad cf       	rjmp	.-166    	; 0x18aa <__stack+0x104b>
					PORTD = 0x03;
					_delay_ms(period);
					PORTD = 0x01;
					_delay_ms(period);
				}
				PORTD = 0x09; /* Last step to initial position */
    1950:	89 e0       	ldi	r24, 0x09	; 9
    1952:	82 bb       	out	0x12, r24	; 18
    1954:	ef ef       	ldi	r30, 0xFF	; 255
    1956:	21 ee       	ldi	r18, 0xE1	; 225
    1958:	64 e0       	ldi	r22, 0x04	; 4
    195a:	e1 50       	subi	r30, 0x01	; 1
    195c:	20 40       	sbci	r18, 0x00	; 0
    195e:	60 40       	sbci	r22, 0x00	; 0
    1960:	e1 f7       	brne	.-8      	; 0x195a <__stack+0x10fb>
    1962:	00 c0       	rjmp	.+0      	; 0x1964 <__stack+0x1105>
    1964:	00 00       	nop
    1966:	7f ef       	ldi	r23, 0xFF	; 255
    1968:	83 ed       	ldi	r24, 0xD3	; 211
    196a:	90 e3       	ldi	r25, 0x30	; 48
    196c:	71 50       	subi	r23, 0x01	; 1
    196e:	80 40       	sbci	r24, 0x00	; 0
    1970:	90 40       	sbci	r25, 0x00	; 0
    1972:	e1 f7       	brne	.-8      	; 0x196c <__stack+0x110d>
    1974:	00 c0       	rjmp	.+0      	; 0x1976 <__stack+0x1117>
    1976:	00 00       	nop
    1978:	8c e0       	ldi	r24, 0x0C	; 12
    197a:	90 e0       	ldi	r25, 0x00	; 0
				_delay_ms(1000);

				/* Rotate Stepper Motor Anticlockwise with Full step sequence */
				for (int i = 0; i < 12; i++)
				{
					PORTD = 0x09;
    197c:	59 e0       	ldi	r21, 0x09	; 9
					_delay_ms(period);
					PORTD = 0x03;
    197e:	43 e0       	ldi	r20, 0x03	; 3
					_delay_ms(period);
					PORTD = 0x06;
    1980:	36 e0       	ldi	r19, 0x06	; 6
					_delay_ms(period);
					PORTD = 0x0C;
    1982:	2c e0       	ldi	r18, 0x0C	; 12
				_delay_ms(1000);

				/* Rotate Stepper Motor Anticlockwise with Full step sequence */
				for (int i = 0; i < 12; i++)
				{
					PORTD = 0x09;
    1984:	52 bb       	out	0x12, r21	; 18
    1986:	af ef       	ldi	r26, 0xFF	; 255
    1988:	b1 ee       	ldi	r27, 0xE1	; 225
    198a:	c4 e0       	ldi	r28, 0x04	; 4
    198c:	a1 50       	subi	r26, 0x01	; 1
    198e:	b0 40       	sbci	r27, 0x00	; 0
    1990:	c0 40       	sbci	r28, 0x00	; 0
    1992:	e1 f7       	brne	.-8      	; 0x198c <__stack+0x112d>
    1994:	00 c0       	rjmp	.+0      	; 0x1996 <__stack+0x1137>
    1996:	00 00       	nop
					_delay_ms(period);
					PORTD = 0x03;
    1998:	42 bb       	out	0x12, r20	; 18
    199a:	ef ef       	ldi	r30, 0xFF	; 255
    199c:	61 ee       	ldi	r22, 0xE1	; 225
    199e:	74 e0       	ldi	r23, 0x04	; 4
    19a0:	e1 50       	subi	r30, 0x01	; 1
    19a2:	60 40       	sbci	r22, 0x00	; 0
    19a4:	70 40       	sbci	r23, 0x00	; 0
    19a6:	e1 f7       	brne	.-8      	; 0x19a0 <__stack+0x1141>
    19a8:	00 c0       	rjmp	.+0      	; 0x19aa <__stack+0x114b>
    19aa:	00 00       	nop
					_delay_ms(period);
					PORTD = 0x06;
    19ac:	32 bb       	out	0x12, r19	; 18
    19ae:	af ef       	ldi	r26, 0xFF	; 255
    19b0:	b1 ee       	ldi	r27, 0xE1	; 225
    19b2:	c4 e0       	ldi	r28, 0x04	; 4
    19b4:	a1 50       	subi	r26, 0x01	; 1
    19b6:	b0 40       	sbci	r27, 0x00	; 0
    19b8:	c0 40       	sbci	r28, 0x00	; 0
    19ba:	e1 f7       	brne	.-8      	; 0x19b4 <__stack+0x1155>
    19bc:	00 c0       	rjmp	.+0      	; 0x19be <__stack+0x115f>
    19be:	00 00       	nop
					_delay_ms(period);
					PORTD = 0x0C;
    19c0:	22 bb       	out	0x12, r18	; 18
    19c2:	ef ef       	ldi	r30, 0xFF	; 255
    19c4:	61 ee       	ldi	r22, 0xE1	; 225
    19c6:	74 e0       	ldi	r23, 0x04	; 4
    19c8:	e1 50       	subi	r30, 0x01	; 1
    19ca:	60 40       	sbci	r22, 0x00	; 0
    19cc:	70 40       	sbci	r23, 0x00	; 0
    19ce:	e1 f7       	brne	.-8      	; 0x19c8 <__stack+0x1169>
    19d0:	00 c0       	rjmp	.+0      	; 0x19d2 <__stack+0x1173>
    19d2:	00 00       	nop
    19d4:	01 97       	sbiw	r24, 0x01	; 1
				PORTD = 0x09; /* Last step to initial position */
				_delay_ms(period);
				_delay_ms(1000);

				/* Rotate Stepper Motor Anticlockwise with Full step sequence */
				for (int i = 0; i < 12; i++)
    19d6:	b1 f6       	brne	.-84     	; 0x1984 <__stack+0x1125>
					PORTD = 0x06;
					_delay_ms(period);
					PORTD = 0x0C;
					_delay_ms(period);
				}
				PORTD = 0x09;
    19d8:	89 e0       	ldi	r24, 0x09	; 9
    19da:	82 bb       	out	0x12, r24	; 18
    19dc:	8f ef       	ldi	r24, 0xFF	; 255
    19de:	91 ee       	ldi	r25, 0xE1	; 225
    19e0:	a4 e0       	ldi	r26, 0x04	; 4
    19e2:	81 50       	subi	r24, 0x01	; 1
    19e4:	90 40       	sbci	r25, 0x00	; 0
    19e6:	a0 40       	sbci	r26, 0x00	; 0
    19e8:	e1 f7       	brne	.-8      	; 0x19e2 <__stack+0x1183>
    19ea:	00 c0       	rjmp	.+0      	; 0x19ec <__stack+0x118d>
    19ec:	00 00       	nop
    19ee:	bf ef       	ldi	r27, 0xFF	; 255
    19f0:	c3 ed       	ldi	r28, 0xD3	; 211
    19f2:	e0 e3       	ldi	r30, 0x30	; 48
    19f4:	b1 50       	subi	r27, 0x01	; 1
    19f6:	c0 40       	sbci	r28, 0x00	; 0
    19f8:	e0 40       	sbci	r30, 0x00	; 0
    19fa:	e1 f7       	brne	.-8      	; 0x19f4 <__stack+0x1195>
    19fc:	00 c0       	rjmp	.+0      	; 0x19fe <__stack+0x119f>
    19fe:	00 00       	nop
    1a00:	0c 94 2c 3b 	jmp	0x7658	; 0x7658 <__stack+0x6df9>
				break;
			}
		}
		break;
		case 2:
		switch (personNum)
    1a04:	8c e0       	ldi	r24, 0x0C	; 12
    1a06:	90 e0       	ldi	r25, 0x00	; 0
			case 9:
			{
				/* Rotate Stepper Motor clockwise with Half step sequence */
				for (int i = 0; i < 12; i++)
				{
					PORTD = 0x09;
    1a08:	f9 e0       	ldi	r31, 0x09	; 9
					_delay_ms(period);
					PORTD = 0x08;
    1a0a:	e8 e0       	ldi	r30, 0x08	; 8
					_delay_ms(period);
					PORTD = 0x0C;
    1a0c:	7c e0       	ldi	r23, 0x0C	; 12
					_delay_ms(period);
					PORTD = 0x04;
    1a0e:	64 e0       	ldi	r22, 0x04	; 4
					_delay_ms(period);
					PORTD = 0x06;
    1a10:	56 e0       	ldi	r21, 0x06	; 6
					_delay_ms(period);
					PORTD = 0x02;
    1a12:	42 e0       	ldi	r20, 0x02	; 2
					_delay_ms(period);
					PORTD = 0x03;
    1a14:	33 e0       	ldi	r19, 0x03	; 3
					_delay_ms(period);
					PORTD = 0x01;
    1a16:	21 e0       	ldi	r18, 0x01	; 1
			case 9:
			{
				/* Rotate Stepper Motor clockwise with Half step sequence */
				for (int i = 0; i < 12; i++)
				{
					PORTD = 0x09;
    1a18:	f2 bb       	out	0x12, r31	; 18
    1a1a:	af ef       	ldi	r26, 0xFF	; 255
    1a1c:	b1 ee       	ldi	r27, 0xE1	; 225
    1a1e:	c4 e0       	ldi	r28, 0x04	; 4
    1a20:	a1 50       	subi	r26, 0x01	; 1
    1a22:	b0 40       	sbci	r27, 0x00	; 0
    1a24:	c0 40       	sbci	r28, 0x00	; 0
    1a26:	e1 f7       	brne	.-8      	; 0x1a20 <__stack+0x11c1>
    1a28:	00 c0       	rjmp	.+0      	; 0x1a2a <__stack+0x11cb>
    1a2a:	00 00       	nop
					_delay_ms(period);
					PORTD = 0x08;
    1a2c:	e2 bb       	out	0x12, r30	; 18
    1a2e:	af ef       	ldi	r26, 0xFF	; 255
    1a30:	b1 ee       	ldi	r27, 0xE1	; 225
    1a32:	c4 e0       	ldi	r28, 0x04	; 4
    1a34:	a1 50       	subi	r26, 0x01	; 1
    1a36:	b0 40       	sbci	r27, 0x00	; 0
    1a38:	c0 40       	sbci	r28, 0x00	; 0
    1a3a:	e1 f7       	brne	.-8      	; 0x1a34 <__stack+0x11d5>
    1a3c:	00 c0       	rjmp	.+0      	; 0x1a3e <__stack+0x11df>
    1a3e:	00 00       	nop
					_delay_ms(period);
					PORTD = 0x0C;
    1a40:	72 bb       	out	0x12, r23	; 18
    1a42:	af ef       	ldi	r26, 0xFF	; 255
    1a44:	b1 ee       	ldi	r27, 0xE1	; 225
    1a46:	c4 e0       	ldi	r28, 0x04	; 4
    1a48:	a1 50       	subi	r26, 0x01	; 1
    1a4a:	b0 40       	sbci	r27, 0x00	; 0
    1a4c:	c0 40       	sbci	r28, 0x00	; 0
    1a4e:	e1 f7       	brne	.-8      	; 0x1a48 <__stack+0x11e9>
    1a50:	00 c0       	rjmp	.+0      	; 0x1a52 <__stack+0x11f3>
    1a52:	00 00       	nop
					_delay_ms(period);
					PORTD = 0x04;
    1a54:	62 bb       	out	0x12, r22	; 18
    1a56:	af ef       	ldi	r26, 0xFF	; 255
    1a58:	b1 ee       	ldi	r27, 0xE1	; 225
    1a5a:	c4 e0       	ldi	r28, 0x04	; 4
    1a5c:	a1 50       	subi	r26, 0x01	; 1
    1a5e:	b0 40       	sbci	r27, 0x00	; 0
    1a60:	c0 40       	sbci	r28, 0x00	; 0
    1a62:	e1 f7       	brne	.-8      	; 0x1a5c <__stack+0x11fd>
    1a64:	00 c0       	rjmp	.+0      	; 0x1a66 <__stack+0x1207>
    1a66:	00 00       	nop
					_delay_ms(period);
					PORTD = 0x06;
    1a68:	52 bb       	out	0x12, r21	; 18
    1a6a:	af ef       	ldi	r26, 0xFF	; 255
    1a6c:	b1 ee       	ldi	r27, 0xE1	; 225
    1a6e:	c4 e0       	ldi	r28, 0x04	; 4
    1a70:	a1 50       	subi	r26, 0x01	; 1
    1a72:	b0 40       	sbci	r27, 0x00	; 0
    1a74:	c0 40       	sbci	r28, 0x00	; 0
    1a76:	e1 f7       	brne	.-8      	; 0x1a70 <__stack+0x1211>
    1a78:	00 c0       	rjmp	.+0      	; 0x1a7a <__stack+0x121b>
    1a7a:	00 00       	nop
					_delay_ms(period);
					PORTD = 0x02;
    1a7c:	42 bb       	out	0x12, r20	; 18
    1a7e:	af ef       	ldi	r26, 0xFF	; 255
    1a80:	b1 ee       	ldi	r27, 0xE1	; 225
    1a82:	c4 e0       	ldi	r28, 0x04	; 4
    1a84:	a1 50       	subi	r26, 0x01	; 1
    1a86:	b0 40       	sbci	r27, 0x00	; 0
    1a88:	c0 40       	sbci	r28, 0x00	; 0
    1a8a:	e1 f7       	brne	.-8      	; 0x1a84 <__stack+0x1225>
    1a8c:	00 c0       	rjmp	.+0      	; 0x1a8e <__stack+0x122f>
    1a8e:	00 00       	nop
					_delay_ms(period);
					PORTD = 0x03;
    1a90:	32 bb       	out	0x12, r19	; 18
    1a92:	af ef       	ldi	r26, 0xFF	; 255
    1a94:	b1 ee       	ldi	r27, 0xE1	; 225
    1a96:	c4 e0       	ldi	r28, 0x04	; 4
    1a98:	a1 50       	subi	r26, 0x01	; 1
    1a9a:	b0 40       	sbci	r27, 0x00	; 0
    1a9c:	c0 40       	sbci	r28, 0x00	; 0
    1a9e:	e1 f7       	brne	.-8      	; 0x1a98 <__stack+0x1239>
    1aa0:	00 c0       	rjmp	.+0      	; 0x1aa2 <__stack+0x1243>
    1aa2:	00 00       	nop
					_delay_ms(period);
					PORTD = 0x01;
    1aa4:	22 bb       	out	0x12, r18	; 18
    1aa6:	af ef       	ldi	r26, 0xFF	; 255
    1aa8:	b1 ee       	ldi	r27, 0xE1	; 225
    1aaa:	c4 e0       	ldi	r28, 0x04	; 4
    1aac:	a1 50       	subi	r26, 0x01	; 1
    1aae:	b0 40       	sbci	r27, 0x00	; 0
    1ab0:	c0 40       	sbci	r28, 0x00	; 0
    1ab2:	e1 f7       	brne	.-8      	; 0x1aac <__stack+0x124d>
    1ab4:	00 c0       	rjmp	.+0      	; 0x1ab6 <__stack+0x1257>
    1ab6:	00 00       	nop
    1ab8:	01 97       	sbiw	r24, 0x01	; 1
				break;
			}
			case 9:
			{
				/* Rotate Stepper Motor clockwise with Half step sequence */
				for (int i = 0; i < 12; i++)
    1aba:	09 f0       	breq	.+2      	; 0x1abe <__stack+0x125f>
    1abc:	ad cf       	rjmp	.-166    	; 0x1a18 <__stack+0x11b9>
					PORTD = 0x03;
					_delay_ms(period);
					PORTD = 0x01;
					_delay_ms(period);
				}
				PORTD = 0x09; /* Last step to initial position */
    1abe:	89 e0       	ldi	r24, 0x09	; 9
    1ac0:	82 bb       	out	0x12, r24	; 18
    1ac2:	ef ef       	ldi	r30, 0xFF	; 255
    1ac4:	21 ee       	ldi	r18, 0xE1	; 225
    1ac6:	64 e0       	ldi	r22, 0x04	; 4
    1ac8:	e1 50       	subi	r30, 0x01	; 1
    1aca:	20 40       	sbci	r18, 0x00	; 0
    1acc:	60 40       	sbci	r22, 0x00	; 0
    1ace:	e1 f7       	brne	.-8      	; 0x1ac8 <__stack+0x1269>
    1ad0:	00 c0       	rjmp	.+0      	; 0x1ad2 <__stack+0x1273>
    1ad2:	00 00       	nop
    1ad4:	7f ef       	ldi	r23, 0xFF	; 255
    1ad6:	83 ed       	ldi	r24, 0xD3	; 211
    1ad8:	90 e3       	ldi	r25, 0x30	; 48
    1ada:	71 50       	subi	r23, 0x01	; 1
    1adc:	80 40       	sbci	r24, 0x00	; 0
    1ade:	90 40       	sbci	r25, 0x00	; 0
    1ae0:	e1 f7       	brne	.-8      	; 0x1ada <__stack+0x127b>
    1ae2:	00 c0       	rjmp	.+0      	; 0x1ae4 <__stack+0x1285>
    1ae4:	00 00       	nop
    1ae6:	8c e0       	ldi	r24, 0x0C	; 12
    1ae8:	90 e0       	ldi	r25, 0x00	; 0
				_delay_ms(1000);

				/* Rotate Stepper Motor Anticlockwise with Full step sequence */
				for (int i = 0; i < 12; i++)
				{
					PORTD = 0x09;
    1aea:	59 e0       	ldi	r21, 0x09	; 9
					_delay_ms(period);
					PORTD = 0x03;
    1aec:	43 e0       	ldi	r20, 0x03	; 3
					_delay_ms(period);
					PORTD = 0x06;
    1aee:	36 e0       	ldi	r19, 0x06	; 6
					_delay_ms(period);
					PORTD = 0x0C;
    1af0:	2c e0       	ldi	r18, 0x0C	; 12
				_delay_ms(1000);

				/* Rotate Stepper Motor Anticlockwise with Full step sequence */
				for (int i = 0; i < 12; i++)
				{
					PORTD = 0x09;
    1af2:	52 bb       	out	0x12, r21	; 18
    1af4:	af ef       	ldi	r26, 0xFF	; 255
    1af6:	b1 ee       	ldi	r27, 0xE1	; 225
    1af8:	c4 e0       	ldi	r28, 0x04	; 4
    1afa:	a1 50       	subi	r26, 0x01	; 1
    1afc:	b0 40       	sbci	r27, 0x00	; 0
    1afe:	c0 40       	sbci	r28, 0x00	; 0
    1b00:	e1 f7       	brne	.-8      	; 0x1afa <__stack+0x129b>
    1b02:	00 c0       	rjmp	.+0      	; 0x1b04 <__stack+0x12a5>
    1b04:	00 00       	nop
					_delay_ms(period);
					PORTD = 0x03;
    1b06:	42 bb       	out	0x12, r20	; 18
    1b08:	ef ef       	ldi	r30, 0xFF	; 255
    1b0a:	61 ee       	ldi	r22, 0xE1	; 225
    1b0c:	74 e0       	ldi	r23, 0x04	; 4
    1b0e:	e1 50       	subi	r30, 0x01	; 1
    1b10:	60 40       	sbci	r22, 0x00	; 0
    1b12:	70 40       	sbci	r23, 0x00	; 0
    1b14:	e1 f7       	brne	.-8      	; 0x1b0e <__stack+0x12af>
    1b16:	00 c0       	rjmp	.+0      	; 0x1b18 <__stack+0x12b9>
    1b18:	00 00       	nop
					_delay_ms(period);
					PORTD = 0x06;
    1b1a:	32 bb       	out	0x12, r19	; 18
    1b1c:	af ef       	ldi	r26, 0xFF	; 255
    1b1e:	b1 ee       	ldi	r27, 0xE1	; 225
    1b20:	c4 e0       	ldi	r28, 0x04	; 4
    1b22:	a1 50       	subi	r26, 0x01	; 1
    1b24:	b0 40       	sbci	r27, 0x00	; 0
    1b26:	c0 40       	sbci	r28, 0x00	; 0
    1b28:	e1 f7       	brne	.-8      	; 0x1b22 <__stack+0x12c3>
    1b2a:	00 c0       	rjmp	.+0      	; 0x1b2c <__stack+0x12cd>
    1b2c:	00 00       	nop
					_delay_ms(period);
					PORTD = 0x0C;
    1b2e:	22 bb       	out	0x12, r18	; 18
    1b30:	ef ef       	ldi	r30, 0xFF	; 255
    1b32:	61 ee       	ldi	r22, 0xE1	; 225
    1b34:	74 e0       	ldi	r23, 0x04	; 4
    1b36:	e1 50       	subi	r30, 0x01	; 1
    1b38:	60 40       	sbci	r22, 0x00	; 0
    1b3a:	70 40       	sbci	r23, 0x00	; 0
    1b3c:	e1 f7       	brne	.-8      	; 0x1b36 <__stack+0x12d7>
    1b3e:	00 c0       	rjmp	.+0      	; 0x1b40 <__stack+0x12e1>
    1b40:	00 00       	nop
    1b42:	01 97       	sbiw	r24, 0x01	; 1
				PORTD = 0x09; /* Last step to initial position */
				_delay_ms(period);
				_delay_ms(1000);

				/* Rotate Stepper Motor Anticlockwise with Full step sequence */
				for (int i = 0; i < 12; i++)
    1b44:	b1 f6       	brne	.-84     	; 0x1af2 <__stack+0x1293>
					PORTD = 0x06;
					_delay_ms(period);
					PORTD = 0x0C;
					_delay_ms(period);
				}
				PORTD = 0x09;
    1b46:	89 e0       	ldi	r24, 0x09	; 9
    1b48:	82 bb       	out	0x12, r24	; 18
    1b4a:	8f ef       	ldi	r24, 0xFF	; 255
    1b4c:	91 ee       	ldi	r25, 0xE1	; 225
    1b4e:	a4 e0       	ldi	r26, 0x04	; 4
    1b50:	81 50       	subi	r24, 0x01	; 1
    1b52:	90 40       	sbci	r25, 0x00	; 0
    1b54:	a0 40       	sbci	r26, 0x00	; 0
    1b56:	e1 f7       	brne	.-8      	; 0x1b50 <__stack+0x12f1>
    1b58:	00 c0       	rjmp	.+0      	; 0x1b5a <__stack+0x12fb>
    1b5a:	00 00       	nop
    1b5c:	bf ef       	ldi	r27, 0xFF	; 255
    1b5e:	c3 ed       	ldi	r28, 0xD3	; 211
    1b60:	e0 e3       	ldi	r30, 0x30	; 48
    1b62:	b1 50       	subi	r27, 0x01	; 1
    1b64:	c0 40       	sbci	r28, 0x00	; 0
    1b66:	e0 40       	sbci	r30, 0x00	; 0
    1b68:	e1 f7       	brne	.-8      	; 0x1b62 <__stack+0x1303>
    1b6a:	00 c0       	rjmp	.+0      	; 0x1b6c <__stack+0x130d>
    1b6c:	00 00       	nop
    1b6e:	0c 94 2c 3b 	jmp	0x7658	; 0x7658 <__stack+0x6df9>
				break;
			}
		}
		break;
		case 3:
		switch (personNum)
    1b72:	8c e0       	ldi	r24, 0x0C	; 12
    1b74:	90 e0       	ldi	r25, 0x00	; 0
			case 1:
			{
				/* Rotate Stepper Motor clockwise with Half step sequence */
				for (int i = 0; i < 12; i++)
				{
					PORTD = 0x09;
    1b76:	f9 e0       	ldi	r31, 0x09	; 9
					_delay_ms(period);
					PORTD = 0x08;
    1b78:	e8 e0       	ldi	r30, 0x08	; 8
					_delay_ms(period);
					PORTD = 0x0C;
    1b7a:	7c e0       	ldi	r23, 0x0C	; 12
					_delay_ms(period);
					PORTD = 0x04;
    1b7c:	64 e0       	ldi	r22, 0x04	; 4
					_delay_ms(period);
					PORTD = 0x06;
    1b7e:	56 e0       	ldi	r21, 0x06	; 6
					_delay_ms(period);
					PORTD = 0x02;
    1b80:	42 e0       	ldi	r20, 0x02	; 2
					_delay_ms(period);
					PORTD = 0x03;
    1b82:	33 e0       	ldi	r19, 0x03	; 3
					_delay_ms(period);
					PORTD = 0x01;
    1b84:	21 e0       	ldi	r18, 0x01	; 1
			case 1:
			{
				/* Rotate Stepper Motor clockwise with Half step sequence */
				for (int i = 0; i < 12; i++)
				{
					PORTD = 0x09;
    1b86:	f2 bb       	out	0x12, r31	; 18
    1b88:	af ef       	ldi	r26, 0xFF	; 255
    1b8a:	b1 ee       	ldi	r27, 0xE1	; 225
    1b8c:	c4 e0       	ldi	r28, 0x04	; 4
    1b8e:	a1 50       	subi	r26, 0x01	; 1
    1b90:	b0 40       	sbci	r27, 0x00	; 0
    1b92:	c0 40       	sbci	r28, 0x00	; 0
    1b94:	e1 f7       	brne	.-8      	; 0x1b8e <__stack+0x132f>
    1b96:	00 c0       	rjmp	.+0      	; 0x1b98 <__stack+0x1339>
    1b98:	00 00       	nop
					_delay_ms(period);
					PORTD = 0x08;
    1b9a:	e2 bb       	out	0x12, r30	; 18
    1b9c:	af ef       	ldi	r26, 0xFF	; 255
    1b9e:	b1 ee       	ldi	r27, 0xE1	; 225
    1ba0:	c4 e0       	ldi	r28, 0x04	; 4
    1ba2:	a1 50       	subi	r26, 0x01	; 1
    1ba4:	b0 40       	sbci	r27, 0x00	; 0
    1ba6:	c0 40       	sbci	r28, 0x00	; 0
    1ba8:	e1 f7       	brne	.-8      	; 0x1ba2 <__stack+0x1343>
    1baa:	00 c0       	rjmp	.+0      	; 0x1bac <__stack+0x134d>
    1bac:	00 00       	nop
					_delay_ms(period);
					PORTD = 0x0C;
    1bae:	72 bb       	out	0x12, r23	; 18
    1bb0:	af ef       	ldi	r26, 0xFF	; 255
    1bb2:	b1 ee       	ldi	r27, 0xE1	; 225
    1bb4:	c4 e0       	ldi	r28, 0x04	; 4
    1bb6:	a1 50       	subi	r26, 0x01	; 1
    1bb8:	b0 40       	sbci	r27, 0x00	; 0
    1bba:	c0 40       	sbci	r28, 0x00	; 0
    1bbc:	e1 f7       	brne	.-8      	; 0x1bb6 <__stack+0x1357>
    1bbe:	00 c0       	rjmp	.+0      	; 0x1bc0 <__stack+0x1361>
    1bc0:	00 00       	nop
					_delay_ms(period);
					PORTD = 0x04;
    1bc2:	62 bb       	out	0x12, r22	; 18
    1bc4:	af ef       	ldi	r26, 0xFF	; 255
    1bc6:	b1 ee       	ldi	r27, 0xE1	; 225
    1bc8:	c4 e0       	ldi	r28, 0x04	; 4
    1bca:	a1 50       	subi	r26, 0x01	; 1
    1bcc:	b0 40       	sbci	r27, 0x00	; 0
    1bce:	c0 40       	sbci	r28, 0x00	; 0
    1bd0:	e1 f7       	brne	.-8      	; 0x1bca <__stack+0x136b>
    1bd2:	00 c0       	rjmp	.+0      	; 0x1bd4 <__stack+0x1375>
    1bd4:	00 00       	nop
					_delay_ms(period);
					PORTD = 0x06;
    1bd6:	52 bb       	out	0x12, r21	; 18
    1bd8:	af ef       	ldi	r26, 0xFF	; 255
    1bda:	b1 ee       	ldi	r27, 0xE1	; 225
    1bdc:	c4 e0       	ldi	r28, 0x04	; 4
    1bde:	a1 50       	subi	r26, 0x01	; 1
    1be0:	b0 40       	sbci	r27, 0x00	; 0
    1be2:	c0 40       	sbci	r28, 0x00	; 0
    1be4:	e1 f7       	brne	.-8      	; 0x1bde <__stack+0x137f>
    1be6:	00 c0       	rjmp	.+0      	; 0x1be8 <__stack+0x1389>
    1be8:	00 00       	nop
					_delay_ms(period);
					PORTD = 0x02;
    1bea:	42 bb       	out	0x12, r20	; 18
    1bec:	af ef       	ldi	r26, 0xFF	; 255
    1bee:	b1 ee       	ldi	r27, 0xE1	; 225
    1bf0:	c4 e0       	ldi	r28, 0x04	; 4
    1bf2:	a1 50       	subi	r26, 0x01	; 1
    1bf4:	b0 40       	sbci	r27, 0x00	; 0
    1bf6:	c0 40       	sbci	r28, 0x00	; 0
    1bf8:	e1 f7       	brne	.-8      	; 0x1bf2 <__stack+0x1393>
    1bfa:	00 c0       	rjmp	.+0      	; 0x1bfc <__stack+0x139d>
    1bfc:	00 00       	nop
					_delay_ms(period);
					PORTD = 0x03;
    1bfe:	32 bb       	out	0x12, r19	; 18
    1c00:	af ef       	ldi	r26, 0xFF	; 255
    1c02:	b1 ee       	ldi	r27, 0xE1	; 225
    1c04:	c4 e0       	ldi	r28, 0x04	; 4
    1c06:	a1 50       	subi	r26, 0x01	; 1
    1c08:	b0 40       	sbci	r27, 0x00	; 0
    1c0a:	c0 40       	sbci	r28, 0x00	; 0
    1c0c:	e1 f7       	brne	.-8      	; 0x1c06 <__stack+0x13a7>
    1c0e:	00 c0       	rjmp	.+0      	; 0x1c10 <__stack+0x13b1>
    1c10:	00 00       	nop
					_delay_ms(period);
					PORTD = 0x01;
    1c12:	22 bb       	out	0x12, r18	; 18
    1c14:	af ef       	ldi	r26, 0xFF	; 255
    1c16:	b1 ee       	ldi	r27, 0xE1	; 225
    1c18:	c4 e0       	ldi	r28, 0x04	; 4
    1c1a:	a1 50       	subi	r26, 0x01	; 1
    1c1c:	b0 40       	sbci	r27, 0x00	; 0
    1c1e:	c0 40       	sbci	r28, 0x00	; 0
    1c20:	e1 f7       	brne	.-8      	; 0x1c1a <__stack+0x13bb>
    1c22:	00 c0       	rjmp	.+0      	; 0x1c24 <__stack+0x13c5>
    1c24:	00 00       	nop
    1c26:	01 97       	sbiw	r24, 0x01	; 1
		switch (personNum)
		{
			case 1:
			{
				/* Rotate Stepper Motor clockwise with Half step sequence */
				for (int i = 0; i < 12; i++)
    1c28:	09 f0       	breq	.+2      	; 0x1c2c <__stack+0x13cd>
    1c2a:	ad cf       	rjmp	.-166    	; 0x1b86 <__stack+0x1327>
					PORTD = 0x03;
					_delay_ms(period);
					PORTD = 0x01;
					_delay_ms(period);
				}
				PORTD = 0x09; /* Last step to initial position */
    1c2c:	89 e0       	ldi	r24, 0x09	; 9
    1c2e:	82 bb       	out	0x12, r24	; 18
    1c30:	ef ef       	ldi	r30, 0xFF	; 255
    1c32:	21 ee       	ldi	r18, 0xE1	; 225
    1c34:	64 e0       	ldi	r22, 0x04	; 4
    1c36:	e1 50       	subi	r30, 0x01	; 1
    1c38:	20 40       	sbci	r18, 0x00	; 0
    1c3a:	60 40       	sbci	r22, 0x00	; 0
    1c3c:	e1 f7       	brne	.-8      	; 0x1c36 <__stack+0x13d7>
    1c3e:	00 c0       	rjmp	.+0      	; 0x1c40 <__stack+0x13e1>
    1c40:	00 00       	nop
    1c42:	7f ef       	ldi	r23, 0xFF	; 255
    1c44:	83 ed       	ldi	r24, 0xD3	; 211
    1c46:	90 e3       	ldi	r25, 0x30	; 48
    1c48:	71 50       	subi	r23, 0x01	; 1
    1c4a:	80 40       	sbci	r24, 0x00	; 0
    1c4c:	90 40       	sbci	r25, 0x00	; 0
    1c4e:	e1 f7       	brne	.-8      	; 0x1c48 <__stack+0x13e9>
    1c50:	00 c0       	rjmp	.+0      	; 0x1c52 <__stack+0x13f3>
    1c52:	00 00       	nop
    1c54:	8c e0       	ldi	r24, 0x0C	; 12
    1c56:	90 e0       	ldi	r25, 0x00	; 0
				_delay_ms(1000);

				/* Rotate Stepper Motor Anticlockwise with Full step sequence */
				for (int i = 0; i < 12; i++)
				{
					PORTD = 0x09;
    1c58:	59 e0       	ldi	r21, 0x09	; 9
					_delay_ms(period);
					PORTD = 0x03;
    1c5a:	43 e0       	ldi	r20, 0x03	; 3
					_delay_ms(period);
					PORTD = 0x06;
    1c5c:	36 e0       	ldi	r19, 0x06	; 6
					_delay_ms(period);
					PORTD = 0x0C;
    1c5e:	2c e0       	ldi	r18, 0x0C	; 12
				_delay_ms(1000);

				/* Rotate Stepper Motor Anticlockwise with Full step sequence */
				for (int i = 0; i < 12; i++)
				{
					PORTD = 0x09;
    1c60:	52 bb       	out	0x12, r21	; 18
    1c62:	af ef       	ldi	r26, 0xFF	; 255
    1c64:	b1 ee       	ldi	r27, 0xE1	; 225
    1c66:	c4 e0       	ldi	r28, 0x04	; 4
    1c68:	a1 50       	subi	r26, 0x01	; 1
    1c6a:	b0 40       	sbci	r27, 0x00	; 0
    1c6c:	c0 40       	sbci	r28, 0x00	; 0
    1c6e:	e1 f7       	brne	.-8      	; 0x1c68 <__stack+0x1409>
    1c70:	00 c0       	rjmp	.+0      	; 0x1c72 <__stack+0x1413>
    1c72:	00 00       	nop
					_delay_ms(period);
					PORTD = 0x03;
    1c74:	42 bb       	out	0x12, r20	; 18
    1c76:	ef ef       	ldi	r30, 0xFF	; 255
    1c78:	61 ee       	ldi	r22, 0xE1	; 225
    1c7a:	74 e0       	ldi	r23, 0x04	; 4
    1c7c:	e1 50       	subi	r30, 0x01	; 1
    1c7e:	60 40       	sbci	r22, 0x00	; 0
    1c80:	70 40       	sbci	r23, 0x00	; 0
    1c82:	e1 f7       	brne	.-8      	; 0x1c7c <__stack+0x141d>
    1c84:	00 c0       	rjmp	.+0      	; 0x1c86 <__stack+0x1427>
    1c86:	00 00       	nop
					_delay_ms(period);
					PORTD = 0x06;
    1c88:	32 bb       	out	0x12, r19	; 18
    1c8a:	af ef       	ldi	r26, 0xFF	; 255
    1c8c:	b1 ee       	ldi	r27, 0xE1	; 225
    1c8e:	c4 e0       	ldi	r28, 0x04	; 4
    1c90:	a1 50       	subi	r26, 0x01	; 1
    1c92:	b0 40       	sbci	r27, 0x00	; 0
    1c94:	c0 40       	sbci	r28, 0x00	; 0
    1c96:	e1 f7       	brne	.-8      	; 0x1c90 <__stack+0x1431>
    1c98:	00 c0       	rjmp	.+0      	; 0x1c9a <__stack+0x143b>
    1c9a:	00 00       	nop
					_delay_ms(period);
					PORTD = 0x0C;
    1c9c:	22 bb       	out	0x12, r18	; 18
    1c9e:	ef ef       	ldi	r30, 0xFF	; 255
    1ca0:	61 ee       	ldi	r22, 0xE1	; 225
    1ca2:	74 e0       	ldi	r23, 0x04	; 4
    1ca4:	e1 50       	subi	r30, 0x01	; 1
    1ca6:	60 40       	sbci	r22, 0x00	; 0
    1ca8:	70 40       	sbci	r23, 0x00	; 0
    1caa:	e1 f7       	brne	.-8      	; 0x1ca4 <__stack+0x1445>
    1cac:	00 c0       	rjmp	.+0      	; 0x1cae <__stack+0x144f>
    1cae:	00 00       	nop
    1cb0:	01 97       	sbiw	r24, 0x01	; 1
				PORTD = 0x09; /* Last step to initial position */
				_delay_ms(period);
				_delay_ms(1000);

				/* Rotate Stepper Motor Anticlockwise with Full step sequence */
				for (int i = 0; i < 12; i++)
    1cb2:	b1 f6       	brne	.-84     	; 0x1c60 <__stack+0x1401>
					PORTD = 0x06;
					_delay_ms(period);
					PORTD = 0x0C;
					_delay_ms(period);
				}
				PORTD = 0x09;
    1cb4:	89 e0       	ldi	r24, 0x09	; 9
    1cb6:	82 bb       	out	0x12, r24	; 18
    1cb8:	8f ef       	ldi	r24, 0xFF	; 255
    1cba:	91 ee       	ldi	r25, 0xE1	; 225
    1cbc:	a4 e0       	ldi	r26, 0x04	; 4
    1cbe:	81 50       	subi	r24, 0x01	; 1
    1cc0:	90 40       	sbci	r25, 0x00	; 0
    1cc2:	a0 40       	sbci	r26, 0x00	; 0
    1cc4:	e1 f7       	brne	.-8      	; 0x1cbe <__stack+0x145f>
    1cc6:	00 c0       	rjmp	.+0      	; 0x1cc8 <__stack+0x1469>
    1cc8:	00 00       	nop
    1cca:	bf ef       	ldi	r27, 0xFF	; 255
    1ccc:	c3 ed       	ldi	r28, 0xD3	; 211
    1cce:	e0 e3       	ldi	r30, 0x30	; 48
    1cd0:	b1 50       	subi	r27, 0x01	; 1
    1cd2:	c0 40       	sbci	r28, 0x00	; 0
    1cd4:	e0 40       	sbci	r30, 0x00	; 0
    1cd6:	e1 f7       	brne	.-8      	; 0x1cd0 <__stack+0x1471>
    1cd8:	00 c0       	rjmp	.+0      	; 0x1cda <__stack+0x147b>
    1cda:	00 00       	nop
    1cdc:	0c 94 2c 3b 	jmp	0x7658	; 0x7658 <__stack+0x6df9>
				break;
			}
		}
		break;
		case 3:
		switch (personNum)
    1ce0:	8c e0       	ldi	r24, 0x0C	; 12
    1ce2:	90 e0       	ldi	r25, 0x00	; 0
			case 2:
			{
				/* Rotate Stepper Motor clockwise with Half step sequence */
				for (int i = 0; i < 12; i++)
				{
					PORTD = 0x09;
    1ce4:	f9 e0       	ldi	r31, 0x09	; 9
					_delay_ms(period);
					PORTD = 0x08;
    1ce6:	e8 e0       	ldi	r30, 0x08	; 8
					_delay_ms(period);
					PORTD = 0x0C;
    1ce8:	7c e0       	ldi	r23, 0x0C	; 12
					_delay_ms(period);
					PORTD = 0x04;
    1cea:	64 e0       	ldi	r22, 0x04	; 4
					_delay_ms(period);
					PORTD = 0x06;
    1cec:	56 e0       	ldi	r21, 0x06	; 6
					_delay_ms(period);
					PORTD = 0x02;
    1cee:	42 e0       	ldi	r20, 0x02	; 2
					_delay_ms(period);
					PORTD = 0x03;
    1cf0:	33 e0       	ldi	r19, 0x03	; 3
					_delay_ms(period);
					PORTD = 0x01;
    1cf2:	21 e0       	ldi	r18, 0x01	; 1
			case 2:
			{
				/* Rotate Stepper Motor clockwise with Half step sequence */
				for (int i = 0; i < 12; i++)
				{
					PORTD = 0x09;
    1cf4:	f2 bb       	out	0x12, r31	; 18
    1cf6:	af ef       	ldi	r26, 0xFF	; 255
    1cf8:	b1 ee       	ldi	r27, 0xE1	; 225
    1cfa:	c4 e0       	ldi	r28, 0x04	; 4
    1cfc:	a1 50       	subi	r26, 0x01	; 1
    1cfe:	b0 40       	sbci	r27, 0x00	; 0
    1d00:	c0 40       	sbci	r28, 0x00	; 0
    1d02:	e1 f7       	brne	.-8      	; 0x1cfc <__stack+0x149d>
    1d04:	00 c0       	rjmp	.+0      	; 0x1d06 <__stack+0x14a7>
    1d06:	00 00       	nop
					_delay_ms(period);
					PORTD = 0x08;
    1d08:	e2 bb       	out	0x12, r30	; 18
    1d0a:	af ef       	ldi	r26, 0xFF	; 255
    1d0c:	b1 ee       	ldi	r27, 0xE1	; 225
    1d0e:	c4 e0       	ldi	r28, 0x04	; 4
    1d10:	a1 50       	subi	r26, 0x01	; 1
    1d12:	b0 40       	sbci	r27, 0x00	; 0
    1d14:	c0 40       	sbci	r28, 0x00	; 0
    1d16:	e1 f7       	brne	.-8      	; 0x1d10 <__stack+0x14b1>
    1d18:	00 c0       	rjmp	.+0      	; 0x1d1a <__stack+0x14bb>
    1d1a:	00 00       	nop
					_delay_ms(period);
					PORTD = 0x0C;
    1d1c:	72 bb       	out	0x12, r23	; 18
    1d1e:	af ef       	ldi	r26, 0xFF	; 255
    1d20:	b1 ee       	ldi	r27, 0xE1	; 225
    1d22:	c4 e0       	ldi	r28, 0x04	; 4
    1d24:	a1 50       	subi	r26, 0x01	; 1
    1d26:	b0 40       	sbci	r27, 0x00	; 0
    1d28:	c0 40       	sbci	r28, 0x00	; 0
    1d2a:	e1 f7       	brne	.-8      	; 0x1d24 <__stack+0x14c5>
    1d2c:	00 c0       	rjmp	.+0      	; 0x1d2e <__stack+0x14cf>
    1d2e:	00 00       	nop
					_delay_ms(period);
					PORTD = 0x04;
    1d30:	62 bb       	out	0x12, r22	; 18
    1d32:	af ef       	ldi	r26, 0xFF	; 255
    1d34:	b1 ee       	ldi	r27, 0xE1	; 225
    1d36:	c4 e0       	ldi	r28, 0x04	; 4
    1d38:	a1 50       	subi	r26, 0x01	; 1
    1d3a:	b0 40       	sbci	r27, 0x00	; 0
    1d3c:	c0 40       	sbci	r28, 0x00	; 0
    1d3e:	e1 f7       	brne	.-8      	; 0x1d38 <__stack+0x14d9>
    1d40:	00 c0       	rjmp	.+0      	; 0x1d42 <__stack+0x14e3>
    1d42:	00 00       	nop
					_delay_ms(period);
					PORTD = 0x06;
    1d44:	52 bb       	out	0x12, r21	; 18
    1d46:	af ef       	ldi	r26, 0xFF	; 255
    1d48:	b1 ee       	ldi	r27, 0xE1	; 225
    1d4a:	c4 e0       	ldi	r28, 0x04	; 4
    1d4c:	a1 50       	subi	r26, 0x01	; 1
    1d4e:	b0 40       	sbci	r27, 0x00	; 0
    1d50:	c0 40       	sbci	r28, 0x00	; 0
    1d52:	e1 f7       	brne	.-8      	; 0x1d4c <__stack+0x14ed>
    1d54:	00 c0       	rjmp	.+0      	; 0x1d56 <__stack+0x14f7>
    1d56:	00 00       	nop
					_delay_ms(period);
					PORTD = 0x02;
    1d58:	42 bb       	out	0x12, r20	; 18
    1d5a:	af ef       	ldi	r26, 0xFF	; 255
    1d5c:	b1 ee       	ldi	r27, 0xE1	; 225
    1d5e:	c4 e0       	ldi	r28, 0x04	; 4
    1d60:	a1 50       	subi	r26, 0x01	; 1
    1d62:	b0 40       	sbci	r27, 0x00	; 0
    1d64:	c0 40       	sbci	r28, 0x00	; 0
    1d66:	e1 f7       	brne	.-8      	; 0x1d60 <__stack+0x1501>
    1d68:	00 c0       	rjmp	.+0      	; 0x1d6a <__stack+0x150b>
    1d6a:	00 00       	nop
					_delay_ms(period);
					PORTD = 0x03;
    1d6c:	32 bb       	out	0x12, r19	; 18
    1d6e:	af ef       	ldi	r26, 0xFF	; 255
    1d70:	b1 ee       	ldi	r27, 0xE1	; 225
    1d72:	c4 e0       	ldi	r28, 0x04	; 4
    1d74:	a1 50       	subi	r26, 0x01	; 1
    1d76:	b0 40       	sbci	r27, 0x00	; 0
    1d78:	c0 40       	sbci	r28, 0x00	; 0
    1d7a:	e1 f7       	brne	.-8      	; 0x1d74 <__stack+0x1515>
    1d7c:	00 c0       	rjmp	.+0      	; 0x1d7e <__stack+0x151f>
    1d7e:	00 00       	nop
					_delay_ms(period);
					PORTD = 0x01;
    1d80:	22 bb       	out	0x12, r18	; 18
    1d82:	af ef       	ldi	r26, 0xFF	; 255
    1d84:	b1 ee       	ldi	r27, 0xE1	; 225
    1d86:	c4 e0       	ldi	r28, 0x04	; 4
    1d88:	a1 50       	subi	r26, 0x01	; 1
    1d8a:	b0 40       	sbci	r27, 0x00	; 0
    1d8c:	c0 40       	sbci	r28, 0x00	; 0
    1d8e:	e1 f7       	brne	.-8      	; 0x1d88 <__stack+0x1529>
    1d90:	00 c0       	rjmp	.+0      	; 0x1d92 <__stack+0x1533>
    1d92:	00 00       	nop
    1d94:	01 97       	sbiw	r24, 0x01	; 1
				break;
			}
			case 2:
			{
				/* Rotate Stepper Motor clockwise with Half step sequence */
				for (int i = 0; i < 12; i++)
    1d96:	09 f0       	breq	.+2      	; 0x1d9a <__stack+0x153b>
    1d98:	ad cf       	rjmp	.-166    	; 0x1cf4 <__stack+0x1495>
					PORTD = 0x03;
					_delay_ms(period);
					PORTD = 0x01;
					_delay_ms(period);
				}
				PORTD = 0x09; /* Last step to initial position */
    1d9a:	89 e0       	ldi	r24, 0x09	; 9
    1d9c:	82 bb       	out	0x12, r24	; 18
    1d9e:	ef ef       	ldi	r30, 0xFF	; 255
    1da0:	21 ee       	ldi	r18, 0xE1	; 225
    1da2:	64 e0       	ldi	r22, 0x04	; 4
    1da4:	e1 50       	subi	r30, 0x01	; 1
    1da6:	20 40       	sbci	r18, 0x00	; 0
    1da8:	60 40       	sbci	r22, 0x00	; 0
    1daa:	e1 f7       	brne	.-8      	; 0x1da4 <__stack+0x1545>
    1dac:	00 c0       	rjmp	.+0      	; 0x1dae <__stack+0x154f>
    1dae:	00 00       	nop
    1db0:	7f ef       	ldi	r23, 0xFF	; 255
    1db2:	83 ed       	ldi	r24, 0xD3	; 211
    1db4:	90 e3       	ldi	r25, 0x30	; 48
    1db6:	71 50       	subi	r23, 0x01	; 1
    1db8:	80 40       	sbci	r24, 0x00	; 0
    1dba:	90 40       	sbci	r25, 0x00	; 0
    1dbc:	e1 f7       	brne	.-8      	; 0x1db6 <__stack+0x1557>
    1dbe:	00 c0       	rjmp	.+0      	; 0x1dc0 <__stack+0x1561>
    1dc0:	00 00       	nop
    1dc2:	8c e0       	ldi	r24, 0x0C	; 12
    1dc4:	90 e0       	ldi	r25, 0x00	; 0
				_delay_ms(1000);

				/* Rotate Stepper Motor Anticlockwise with Full step sequence */
				for (int i = 0; i < 12; i++)
				{
					PORTD = 0x09;
    1dc6:	59 e0       	ldi	r21, 0x09	; 9
					_delay_ms(period);
					PORTD = 0x03;
    1dc8:	43 e0       	ldi	r20, 0x03	; 3
					_delay_ms(period);
					PORTD = 0x06;
    1dca:	36 e0       	ldi	r19, 0x06	; 6
					_delay_ms(period);
					PORTD = 0x0C;
    1dcc:	2c e0       	ldi	r18, 0x0C	; 12
				_delay_ms(1000);

				/* Rotate Stepper Motor Anticlockwise with Full step sequence */
				for (int i = 0; i < 12; i++)
				{
					PORTD = 0x09;
    1dce:	52 bb       	out	0x12, r21	; 18
    1dd0:	af ef       	ldi	r26, 0xFF	; 255
    1dd2:	b1 ee       	ldi	r27, 0xE1	; 225
    1dd4:	c4 e0       	ldi	r28, 0x04	; 4
    1dd6:	a1 50       	subi	r26, 0x01	; 1
    1dd8:	b0 40       	sbci	r27, 0x00	; 0
    1dda:	c0 40       	sbci	r28, 0x00	; 0
    1ddc:	e1 f7       	brne	.-8      	; 0x1dd6 <__stack+0x1577>
    1dde:	00 c0       	rjmp	.+0      	; 0x1de0 <__stack+0x1581>
    1de0:	00 00       	nop
					_delay_ms(period);
					PORTD = 0x03;
    1de2:	42 bb       	out	0x12, r20	; 18
    1de4:	ef ef       	ldi	r30, 0xFF	; 255
    1de6:	61 ee       	ldi	r22, 0xE1	; 225
    1de8:	74 e0       	ldi	r23, 0x04	; 4
    1dea:	e1 50       	subi	r30, 0x01	; 1
    1dec:	60 40       	sbci	r22, 0x00	; 0
    1dee:	70 40       	sbci	r23, 0x00	; 0
    1df0:	e1 f7       	brne	.-8      	; 0x1dea <__stack+0x158b>
    1df2:	00 c0       	rjmp	.+0      	; 0x1df4 <__stack+0x1595>
    1df4:	00 00       	nop
					_delay_ms(period);
					PORTD = 0x06;
    1df6:	32 bb       	out	0x12, r19	; 18
    1df8:	af ef       	ldi	r26, 0xFF	; 255
    1dfa:	b1 ee       	ldi	r27, 0xE1	; 225
    1dfc:	c4 e0       	ldi	r28, 0x04	; 4
    1dfe:	a1 50       	subi	r26, 0x01	; 1
    1e00:	b0 40       	sbci	r27, 0x00	; 0
    1e02:	c0 40       	sbci	r28, 0x00	; 0
    1e04:	e1 f7       	brne	.-8      	; 0x1dfe <__stack+0x159f>
    1e06:	00 c0       	rjmp	.+0      	; 0x1e08 <__stack+0x15a9>
    1e08:	00 00       	nop
					_delay_ms(period);
					PORTD = 0x0C;
    1e0a:	22 bb       	out	0x12, r18	; 18
    1e0c:	ef ef       	ldi	r30, 0xFF	; 255
    1e0e:	61 ee       	ldi	r22, 0xE1	; 225
    1e10:	74 e0       	ldi	r23, 0x04	; 4
    1e12:	e1 50       	subi	r30, 0x01	; 1
    1e14:	60 40       	sbci	r22, 0x00	; 0
    1e16:	70 40       	sbci	r23, 0x00	; 0
    1e18:	e1 f7       	brne	.-8      	; 0x1e12 <__stack+0x15b3>
    1e1a:	00 c0       	rjmp	.+0      	; 0x1e1c <__stack+0x15bd>
    1e1c:	00 00       	nop
    1e1e:	01 97       	sbiw	r24, 0x01	; 1
				PORTD = 0x09; /* Last step to initial position */
				_delay_ms(period);
				_delay_ms(1000);

				/* Rotate Stepper Motor Anticlockwise with Full step sequence */
				for (int i = 0; i < 12; i++)
    1e20:	b1 f6       	brne	.-84     	; 0x1dce <__stack+0x156f>
					PORTD = 0x06;
					_delay_ms(period);
					PORTD = 0x0C;
					_delay_ms(period);
				}
				PORTD = 0x09;
    1e22:	89 e0       	ldi	r24, 0x09	; 9
    1e24:	82 bb       	out	0x12, r24	; 18
    1e26:	8f ef       	ldi	r24, 0xFF	; 255
    1e28:	91 ee       	ldi	r25, 0xE1	; 225
    1e2a:	a4 e0       	ldi	r26, 0x04	; 4
    1e2c:	81 50       	subi	r24, 0x01	; 1
    1e2e:	90 40       	sbci	r25, 0x00	; 0
    1e30:	a0 40       	sbci	r26, 0x00	; 0
    1e32:	e1 f7       	brne	.-8      	; 0x1e2c <__stack+0x15cd>
    1e34:	00 c0       	rjmp	.+0      	; 0x1e36 <__stack+0x15d7>
    1e36:	00 00       	nop
    1e38:	bf ef       	ldi	r27, 0xFF	; 255
    1e3a:	c3 ed       	ldi	r28, 0xD3	; 211
    1e3c:	e0 e3       	ldi	r30, 0x30	; 48
    1e3e:	b1 50       	subi	r27, 0x01	; 1
    1e40:	c0 40       	sbci	r28, 0x00	; 0
    1e42:	e0 40       	sbci	r30, 0x00	; 0
    1e44:	e1 f7       	brne	.-8      	; 0x1e3e <__stack+0x15df>
    1e46:	00 c0       	rjmp	.+0      	; 0x1e48 <__stack+0x15e9>
    1e48:	00 00       	nop
    1e4a:	0c 94 2c 3b 	jmp	0x7658	; 0x7658 <__stack+0x6df9>
				break;
			}
		}
		break;
		case 3:
		switch (personNum)
    1e4e:	8c e0       	ldi	r24, 0x0C	; 12
    1e50:	90 e0       	ldi	r25, 0x00	; 0
			case 3:
			{
				/* Rotate Stepper Motor clockwise with Half step sequence */
				for (int i = 0; i < 12; i++)
				{
					PORTD = 0x09;
    1e52:	f9 e0       	ldi	r31, 0x09	; 9
					_delay_ms(period);
					PORTD = 0x08;
    1e54:	e8 e0       	ldi	r30, 0x08	; 8
					_delay_ms(period);
					PORTD = 0x0C;
    1e56:	7c e0       	ldi	r23, 0x0C	; 12
					_delay_ms(period);
					PORTD = 0x04;
    1e58:	64 e0       	ldi	r22, 0x04	; 4
					_delay_ms(period);
					PORTD = 0x06;
    1e5a:	56 e0       	ldi	r21, 0x06	; 6
					_delay_ms(period);
					PORTD = 0x02;
    1e5c:	42 e0       	ldi	r20, 0x02	; 2
					_delay_ms(period);
					PORTD = 0x03;
    1e5e:	33 e0       	ldi	r19, 0x03	; 3
					_delay_ms(period);
					PORTD = 0x01;
    1e60:	21 e0       	ldi	r18, 0x01	; 1
			case 3:
			{
				/* Rotate Stepper Motor clockwise with Half step sequence */
				for (int i = 0; i < 12; i++)
				{
					PORTD = 0x09;
    1e62:	f2 bb       	out	0x12, r31	; 18
    1e64:	af ef       	ldi	r26, 0xFF	; 255
    1e66:	b1 ee       	ldi	r27, 0xE1	; 225
    1e68:	c4 e0       	ldi	r28, 0x04	; 4
    1e6a:	a1 50       	subi	r26, 0x01	; 1
    1e6c:	b0 40       	sbci	r27, 0x00	; 0
    1e6e:	c0 40       	sbci	r28, 0x00	; 0
    1e70:	e1 f7       	brne	.-8      	; 0x1e6a <__stack+0x160b>
    1e72:	00 c0       	rjmp	.+0      	; 0x1e74 <__stack+0x1615>
    1e74:	00 00       	nop
					_delay_ms(period);
					PORTD = 0x08;
    1e76:	e2 bb       	out	0x12, r30	; 18
    1e78:	af ef       	ldi	r26, 0xFF	; 255
    1e7a:	b1 ee       	ldi	r27, 0xE1	; 225
    1e7c:	c4 e0       	ldi	r28, 0x04	; 4
    1e7e:	a1 50       	subi	r26, 0x01	; 1
    1e80:	b0 40       	sbci	r27, 0x00	; 0
    1e82:	c0 40       	sbci	r28, 0x00	; 0
    1e84:	e1 f7       	brne	.-8      	; 0x1e7e <__stack+0x161f>
    1e86:	00 c0       	rjmp	.+0      	; 0x1e88 <__stack+0x1629>
    1e88:	00 00       	nop
					_delay_ms(period);
					PORTD = 0x0C;
    1e8a:	72 bb       	out	0x12, r23	; 18
    1e8c:	af ef       	ldi	r26, 0xFF	; 255
    1e8e:	b1 ee       	ldi	r27, 0xE1	; 225
    1e90:	c4 e0       	ldi	r28, 0x04	; 4
    1e92:	a1 50       	subi	r26, 0x01	; 1
    1e94:	b0 40       	sbci	r27, 0x00	; 0
    1e96:	c0 40       	sbci	r28, 0x00	; 0
    1e98:	e1 f7       	brne	.-8      	; 0x1e92 <__stack+0x1633>
    1e9a:	00 c0       	rjmp	.+0      	; 0x1e9c <__stack+0x163d>
    1e9c:	00 00       	nop
					_delay_ms(period);
					PORTD = 0x04;
    1e9e:	62 bb       	out	0x12, r22	; 18
    1ea0:	af ef       	ldi	r26, 0xFF	; 255
    1ea2:	b1 ee       	ldi	r27, 0xE1	; 225
    1ea4:	c4 e0       	ldi	r28, 0x04	; 4
    1ea6:	a1 50       	subi	r26, 0x01	; 1
    1ea8:	b0 40       	sbci	r27, 0x00	; 0
    1eaa:	c0 40       	sbci	r28, 0x00	; 0
    1eac:	e1 f7       	brne	.-8      	; 0x1ea6 <__stack+0x1647>
    1eae:	00 c0       	rjmp	.+0      	; 0x1eb0 <__stack+0x1651>
    1eb0:	00 00       	nop
					_delay_ms(period);
					PORTD = 0x06;
    1eb2:	52 bb       	out	0x12, r21	; 18
    1eb4:	af ef       	ldi	r26, 0xFF	; 255
    1eb6:	b1 ee       	ldi	r27, 0xE1	; 225
    1eb8:	c4 e0       	ldi	r28, 0x04	; 4
    1eba:	a1 50       	subi	r26, 0x01	; 1
    1ebc:	b0 40       	sbci	r27, 0x00	; 0
    1ebe:	c0 40       	sbci	r28, 0x00	; 0
    1ec0:	e1 f7       	brne	.-8      	; 0x1eba <__stack+0x165b>
    1ec2:	00 c0       	rjmp	.+0      	; 0x1ec4 <__stack+0x1665>
    1ec4:	00 00       	nop
					_delay_ms(period);
					PORTD = 0x02;
    1ec6:	42 bb       	out	0x12, r20	; 18
    1ec8:	af ef       	ldi	r26, 0xFF	; 255
    1eca:	b1 ee       	ldi	r27, 0xE1	; 225
    1ecc:	c4 e0       	ldi	r28, 0x04	; 4
    1ece:	a1 50       	subi	r26, 0x01	; 1
    1ed0:	b0 40       	sbci	r27, 0x00	; 0
    1ed2:	c0 40       	sbci	r28, 0x00	; 0
    1ed4:	e1 f7       	brne	.-8      	; 0x1ece <__stack+0x166f>
    1ed6:	00 c0       	rjmp	.+0      	; 0x1ed8 <__stack+0x1679>
    1ed8:	00 00       	nop
					_delay_ms(period);
					PORTD = 0x03;
    1eda:	32 bb       	out	0x12, r19	; 18
    1edc:	af ef       	ldi	r26, 0xFF	; 255
    1ede:	b1 ee       	ldi	r27, 0xE1	; 225
    1ee0:	c4 e0       	ldi	r28, 0x04	; 4
    1ee2:	a1 50       	subi	r26, 0x01	; 1
    1ee4:	b0 40       	sbci	r27, 0x00	; 0
    1ee6:	c0 40       	sbci	r28, 0x00	; 0
    1ee8:	e1 f7       	brne	.-8      	; 0x1ee2 <__stack+0x1683>
    1eea:	00 c0       	rjmp	.+0      	; 0x1eec <__stack+0x168d>
    1eec:	00 00       	nop
					_delay_ms(period);
					PORTD = 0x01;
    1eee:	22 bb       	out	0x12, r18	; 18
    1ef0:	af ef       	ldi	r26, 0xFF	; 255
    1ef2:	b1 ee       	ldi	r27, 0xE1	; 225
    1ef4:	c4 e0       	ldi	r28, 0x04	; 4
    1ef6:	a1 50       	subi	r26, 0x01	; 1
    1ef8:	b0 40       	sbci	r27, 0x00	; 0
    1efa:	c0 40       	sbci	r28, 0x00	; 0
    1efc:	e1 f7       	brne	.-8      	; 0x1ef6 <__stack+0x1697>
    1efe:	00 c0       	rjmp	.+0      	; 0x1f00 <__stack+0x16a1>
    1f00:	00 00       	nop
    1f02:	01 97       	sbiw	r24, 0x01	; 1
				break;
			}
			case 3:
			{
				/* Rotate Stepper Motor clockwise with Half step sequence */
				for (int i = 0; i < 12; i++)
    1f04:	09 f0       	breq	.+2      	; 0x1f08 <__stack+0x16a9>
    1f06:	ad cf       	rjmp	.-166    	; 0x1e62 <__stack+0x1603>
					PORTD = 0x03;
					_delay_ms(period);
					PORTD = 0x01;
					_delay_ms(period);
				}
				PORTD = 0x09; /* Last step to initial position */
    1f08:	89 e0       	ldi	r24, 0x09	; 9
    1f0a:	82 bb       	out	0x12, r24	; 18
    1f0c:	ef ef       	ldi	r30, 0xFF	; 255
    1f0e:	21 ee       	ldi	r18, 0xE1	; 225
    1f10:	64 e0       	ldi	r22, 0x04	; 4
    1f12:	e1 50       	subi	r30, 0x01	; 1
    1f14:	20 40       	sbci	r18, 0x00	; 0
    1f16:	60 40       	sbci	r22, 0x00	; 0
    1f18:	e1 f7       	brne	.-8      	; 0x1f12 <__stack+0x16b3>
    1f1a:	00 c0       	rjmp	.+0      	; 0x1f1c <__stack+0x16bd>
    1f1c:	00 00       	nop
    1f1e:	7f ef       	ldi	r23, 0xFF	; 255
    1f20:	83 ed       	ldi	r24, 0xD3	; 211
    1f22:	90 e3       	ldi	r25, 0x30	; 48
    1f24:	71 50       	subi	r23, 0x01	; 1
    1f26:	80 40       	sbci	r24, 0x00	; 0
    1f28:	90 40       	sbci	r25, 0x00	; 0
    1f2a:	e1 f7       	brne	.-8      	; 0x1f24 <__stack+0x16c5>
    1f2c:	00 c0       	rjmp	.+0      	; 0x1f2e <__stack+0x16cf>
    1f2e:	00 00       	nop
    1f30:	8c e0       	ldi	r24, 0x0C	; 12
    1f32:	90 e0       	ldi	r25, 0x00	; 0
				_delay_ms(1000);

				/* Rotate Stepper Motor Anticlockwise with Full step sequence */
				for (int i = 0; i < 12; i++)
				{
					PORTD = 0x09;
    1f34:	59 e0       	ldi	r21, 0x09	; 9
					_delay_ms(period);
					PORTD = 0x03;
    1f36:	43 e0       	ldi	r20, 0x03	; 3
					_delay_ms(period);
					PORTD = 0x06;
    1f38:	36 e0       	ldi	r19, 0x06	; 6
					_delay_ms(period);
					PORTD = 0x0C;
    1f3a:	2c e0       	ldi	r18, 0x0C	; 12
				_delay_ms(1000);

				/* Rotate Stepper Motor Anticlockwise with Full step sequence */
				for (int i = 0; i < 12; i++)
				{
					PORTD = 0x09;
    1f3c:	52 bb       	out	0x12, r21	; 18
    1f3e:	af ef       	ldi	r26, 0xFF	; 255
    1f40:	b1 ee       	ldi	r27, 0xE1	; 225
    1f42:	c4 e0       	ldi	r28, 0x04	; 4
    1f44:	a1 50       	subi	r26, 0x01	; 1
    1f46:	b0 40       	sbci	r27, 0x00	; 0
    1f48:	c0 40       	sbci	r28, 0x00	; 0
    1f4a:	e1 f7       	brne	.-8      	; 0x1f44 <__stack+0x16e5>
    1f4c:	00 c0       	rjmp	.+0      	; 0x1f4e <__stack+0x16ef>
    1f4e:	00 00       	nop
					_delay_ms(period);
					PORTD = 0x03;
    1f50:	42 bb       	out	0x12, r20	; 18
    1f52:	ef ef       	ldi	r30, 0xFF	; 255
    1f54:	61 ee       	ldi	r22, 0xE1	; 225
    1f56:	74 e0       	ldi	r23, 0x04	; 4
    1f58:	e1 50       	subi	r30, 0x01	; 1
    1f5a:	60 40       	sbci	r22, 0x00	; 0
    1f5c:	70 40       	sbci	r23, 0x00	; 0
    1f5e:	e1 f7       	brne	.-8      	; 0x1f58 <__stack+0x16f9>
    1f60:	00 c0       	rjmp	.+0      	; 0x1f62 <__stack+0x1703>
    1f62:	00 00       	nop
					_delay_ms(period);
					PORTD = 0x06;
    1f64:	32 bb       	out	0x12, r19	; 18
    1f66:	af ef       	ldi	r26, 0xFF	; 255
    1f68:	b1 ee       	ldi	r27, 0xE1	; 225
    1f6a:	c4 e0       	ldi	r28, 0x04	; 4
    1f6c:	a1 50       	subi	r26, 0x01	; 1
    1f6e:	b0 40       	sbci	r27, 0x00	; 0
    1f70:	c0 40       	sbci	r28, 0x00	; 0
    1f72:	e1 f7       	brne	.-8      	; 0x1f6c <__stack+0x170d>
    1f74:	00 c0       	rjmp	.+0      	; 0x1f76 <__stack+0x1717>
    1f76:	00 00       	nop
					_delay_ms(period);
					PORTD = 0x0C;
    1f78:	22 bb       	out	0x12, r18	; 18
    1f7a:	ef ef       	ldi	r30, 0xFF	; 255
    1f7c:	61 ee       	ldi	r22, 0xE1	; 225
    1f7e:	74 e0       	ldi	r23, 0x04	; 4
    1f80:	e1 50       	subi	r30, 0x01	; 1
    1f82:	60 40       	sbci	r22, 0x00	; 0
    1f84:	70 40       	sbci	r23, 0x00	; 0
    1f86:	e1 f7       	brne	.-8      	; 0x1f80 <__stack+0x1721>
    1f88:	00 c0       	rjmp	.+0      	; 0x1f8a <__stack+0x172b>
    1f8a:	00 00       	nop
    1f8c:	01 97       	sbiw	r24, 0x01	; 1
				PORTD = 0x09; /* Last step to initial position */
				_delay_ms(period);
				_delay_ms(1000);

				/* Rotate Stepper Motor Anticlockwise with Full step sequence */
				for (int i = 0; i < 12; i++)
    1f8e:	b1 f6       	brne	.-84     	; 0x1f3c <__stack+0x16dd>
					PORTD = 0x06;
					_delay_ms(period);
					PORTD = 0x0C;
					_delay_ms(period);
				}
				PORTD = 0x09;
    1f90:	89 e0       	ldi	r24, 0x09	; 9
    1f92:	82 bb       	out	0x12, r24	; 18
    1f94:	8f ef       	ldi	r24, 0xFF	; 255
    1f96:	91 ee       	ldi	r25, 0xE1	; 225
    1f98:	a4 e0       	ldi	r26, 0x04	; 4
    1f9a:	81 50       	subi	r24, 0x01	; 1
    1f9c:	90 40       	sbci	r25, 0x00	; 0
    1f9e:	a0 40       	sbci	r26, 0x00	; 0
    1fa0:	e1 f7       	brne	.-8      	; 0x1f9a <__stack+0x173b>
    1fa2:	00 c0       	rjmp	.+0      	; 0x1fa4 <__stack+0x1745>
    1fa4:	00 00       	nop
    1fa6:	bf ef       	ldi	r27, 0xFF	; 255
    1fa8:	c3 ed       	ldi	r28, 0xD3	; 211
    1faa:	e0 e3       	ldi	r30, 0x30	; 48
    1fac:	b1 50       	subi	r27, 0x01	; 1
    1fae:	c0 40       	sbci	r28, 0x00	; 0
    1fb0:	e0 40       	sbci	r30, 0x00	; 0
    1fb2:	e1 f7       	brne	.-8      	; 0x1fac <__stack+0x174d>
    1fb4:	00 c0       	rjmp	.+0      	; 0x1fb6 <__stack+0x1757>
    1fb6:	00 00       	nop
    1fb8:	0c 94 2c 3b 	jmp	0x7658	; 0x7658 <__stack+0x6df9>
				break;
			}
		}
		break;
		case 3:
		switch (personNum)
    1fbc:	8c e0       	ldi	r24, 0x0C	; 12
    1fbe:	90 e0       	ldi	r25, 0x00	; 0
			case 4:
			{
				/* Rotate Stepper Motor clockwise with Half step sequence */
				for (int i = 0; i < 12; i++)
				{
					PORTD = 0x09;
    1fc0:	f9 e0       	ldi	r31, 0x09	; 9
					_delay_ms(period);
					PORTD = 0x08;
    1fc2:	e8 e0       	ldi	r30, 0x08	; 8
					_delay_ms(period);
					PORTD = 0x0C;
    1fc4:	7c e0       	ldi	r23, 0x0C	; 12
					_delay_ms(period);
					PORTD = 0x04;
    1fc6:	64 e0       	ldi	r22, 0x04	; 4
					_delay_ms(period);
					PORTD = 0x06;
    1fc8:	56 e0       	ldi	r21, 0x06	; 6
					_delay_ms(period);
					PORTD = 0x02;
    1fca:	42 e0       	ldi	r20, 0x02	; 2
					_delay_ms(period);
					PORTD = 0x03;
    1fcc:	33 e0       	ldi	r19, 0x03	; 3
					_delay_ms(period);
					PORTD = 0x01;
    1fce:	21 e0       	ldi	r18, 0x01	; 1
			case 4:
			{
				/* Rotate Stepper Motor clockwise with Half step sequence */
				for (int i = 0; i < 12; i++)
				{
					PORTD = 0x09;
    1fd0:	f2 bb       	out	0x12, r31	; 18
    1fd2:	af ef       	ldi	r26, 0xFF	; 255
    1fd4:	b1 ee       	ldi	r27, 0xE1	; 225
    1fd6:	c4 e0       	ldi	r28, 0x04	; 4
    1fd8:	a1 50       	subi	r26, 0x01	; 1
    1fda:	b0 40       	sbci	r27, 0x00	; 0
    1fdc:	c0 40       	sbci	r28, 0x00	; 0
    1fde:	e1 f7       	brne	.-8      	; 0x1fd8 <__stack+0x1779>
    1fe0:	00 c0       	rjmp	.+0      	; 0x1fe2 <__stack+0x1783>
    1fe2:	00 00       	nop
					_delay_ms(period);
					PORTD = 0x08;
    1fe4:	e2 bb       	out	0x12, r30	; 18
    1fe6:	af ef       	ldi	r26, 0xFF	; 255
    1fe8:	b1 ee       	ldi	r27, 0xE1	; 225
    1fea:	c4 e0       	ldi	r28, 0x04	; 4
    1fec:	a1 50       	subi	r26, 0x01	; 1
    1fee:	b0 40       	sbci	r27, 0x00	; 0
    1ff0:	c0 40       	sbci	r28, 0x00	; 0
    1ff2:	e1 f7       	brne	.-8      	; 0x1fec <__stack+0x178d>
    1ff4:	00 c0       	rjmp	.+0      	; 0x1ff6 <__stack+0x1797>
    1ff6:	00 00       	nop
					_delay_ms(period);
					PORTD = 0x0C;
    1ff8:	72 bb       	out	0x12, r23	; 18
    1ffa:	af ef       	ldi	r26, 0xFF	; 255
    1ffc:	b1 ee       	ldi	r27, 0xE1	; 225
    1ffe:	c4 e0       	ldi	r28, 0x04	; 4
    2000:	a1 50       	subi	r26, 0x01	; 1
    2002:	b0 40       	sbci	r27, 0x00	; 0
    2004:	c0 40       	sbci	r28, 0x00	; 0
    2006:	e1 f7       	brne	.-8      	; 0x2000 <__stack+0x17a1>
    2008:	00 c0       	rjmp	.+0      	; 0x200a <__stack+0x17ab>
    200a:	00 00       	nop
					_delay_ms(period);
					PORTD = 0x04;
    200c:	62 bb       	out	0x12, r22	; 18
    200e:	af ef       	ldi	r26, 0xFF	; 255
    2010:	b1 ee       	ldi	r27, 0xE1	; 225
    2012:	c4 e0       	ldi	r28, 0x04	; 4
    2014:	a1 50       	subi	r26, 0x01	; 1
    2016:	b0 40       	sbci	r27, 0x00	; 0
    2018:	c0 40       	sbci	r28, 0x00	; 0
    201a:	e1 f7       	brne	.-8      	; 0x2014 <__stack+0x17b5>
    201c:	00 c0       	rjmp	.+0      	; 0x201e <__stack+0x17bf>
    201e:	00 00       	nop
					_delay_ms(period);
					PORTD = 0x06;
    2020:	52 bb       	out	0x12, r21	; 18
    2022:	af ef       	ldi	r26, 0xFF	; 255
    2024:	b1 ee       	ldi	r27, 0xE1	; 225
    2026:	c4 e0       	ldi	r28, 0x04	; 4
    2028:	a1 50       	subi	r26, 0x01	; 1
    202a:	b0 40       	sbci	r27, 0x00	; 0
    202c:	c0 40       	sbci	r28, 0x00	; 0
    202e:	e1 f7       	brne	.-8      	; 0x2028 <__stack+0x17c9>
    2030:	00 c0       	rjmp	.+0      	; 0x2032 <__stack+0x17d3>
    2032:	00 00       	nop
					_delay_ms(period);
					PORTD = 0x02;
    2034:	42 bb       	out	0x12, r20	; 18
    2036:	af ef       	ldi	r26, 0xFF	; 255
    2038:	b1 ee       	ldi	r27, 0xE1	; 225
    203a:	c4 e0       	ldi	r28, 0x04	; 4
    203c:	a1 50       	subi	r26, 0x01	; 1
    203e:	b0 40       	sbci	r27, 0x00	; 0
    2040:	c0 40       	sbci	r28, 0x00	; 0
    2042:	e1 f7       	brne	.-8      	; 0x203c <__stack+0x17dd>
    2044:	00 c0       	rjmp	.+0      	; 0x2046 <__stack+0x17e7>
    2046:	00 00       	nop
					_delay_ms(period);
					PORTD = 0x03;
    2048:	32 bb       	out	0x12, r19	; 18
    204a:	af ef       	ldi	r26, 0xFF	; 255
    204c:	b1 ee       	ldi	r27, 0xE1	; 225
    204e:	c4 e0       	ldi	r28, 0x04	; 4
    2050:	a1 50       	subi	r26, 0x01	; 1
    2052:	b0 40       	sbci	r27, 0x00	; 0
    2054:	c0 40       	sbci	r28, 0x00	; 0
    2056:	e1 f7       	brne	.-8      	; 0x2050 <__stack+0x17f1>
    2058:	00 c0       	rjmp	.+0      	; 0x205a <__stack+0x17fb>
    205a:	00 00       	nop
					_delay_ms(period);
					PORTD = 0x01;
    205c:	22 bb       	out	0x12, r18	; 18
    205e:	af ef       	ldi	r26, 0xFF	; 255
    2060:	b1 ee       	ldi	r27, 0xE1	; 225
    2062:	c4 e0       	ldi	r28, 0x04	; 4
    2064:	a1 50       	subi	r26, 0x01	; 1
    2066:	b0 40       	sbci	r27, 0x00	; 0
    2068:	c0 40       	sbci	r28, 0x00	; 0
    206a:	e1 f7       	brne	.-8      	; 0x2064 <__stack+0x1805>
    206c:	00 c0       	rjmp	.+0      	; 0x206e <__stack+0x180f>
    206e:	00 00       	nop
    2070:	01 97       	sbiw	r24, 0x01	; 1
				break;
			}
			case 4:
			{
				/* Rotate Stepper Motor clockwise with Half step sequence */
				for (int i = 0; i < 12; i++)
    2072:	09 f0       	breq	.+2      	; 0x2076 <__stack+0x1817>
    2074:	ad cf       	rjmp	.-166    	; 0x1fd0 <__stack+0x1771>
					PORTD = 0x03;
					_delay_ms(period);
					PORTD = 0x01;
					_delay_ms(period);
				}
				PORTD = 0x09; /* Last step to initial position */
    2076:	89 e0       	ldi	r24, 0x09	; 9
    2078:	82 bb       	out	0x12, r24	; 18
    207a:	ef ef       	ldi	r30, 0xFF	; 255
    207c:	21 ee       	ldi	r18, 0xE1	; 225
    207e:	64 e0       	ldi	r22, 0x04	; 4
    2080:	e1 50       	subi	r30, 0x01	; 1
    2082:	20 40       	sbci	r18, 0x00	; 0
    2084:	60 40       	sbci	r22, 0x00	; 0
    2086:	e1 f7       	brne	.-8      	; 0x2080 <__stack+0x1821>
    2088:	00 c0       	rjmp	.+0      	; 0x208a <__stack+0x182b>
    208a:	00 00       	nop
    208c:	7f ef       	ldi	r23, 0xFF	; 255
    208e:	83 ed       	ldi	r24, 0xD3	; 211
    2090:	90 e3       	ldi	r25, 0x30	; 48
    2092:	71 50       	subi	r23, 0x01	; 1
    2094:	80 40       	sbci	r24, 0x00	; 0
    2096:	90 40       	sbci	r25, 0x00	; 0
    2098:	e1 f7       	brne	.-8      	; 0x2092 <__stack+0x1833>
    209a:	00 c0       	rjmp	.+0      	; 0x209c <__stack+0x183d>
    209c:	00 00       	nop
    209e:	8c e0       	ldi	r24, 0x0C	; 12
    20a0:	90 e0       	ldi	r25, 0x00	; 0
				_delay_ms(1000);

				/* Rotate Stepper Motor Anticlockwise with Full step sequence */
				for (int i = 0; i < 12; i++)
				{
					PORTD = 0x09;
    20a2:	59 e0       	ldi	r21, 0x09	; 9
					_delay_ms(period);
					PORTD = 0x03;
    20a4:	43 e0       	ldi	r20, 0x03	; 3
					_delay_ms(period);
					PORTD = 0x06;
    20a6:	36 e0       	ldi	r19, 0x06	; 6
					_delay_ms(period);
					PORTD = 0x0C;
    20a8:	2c e0       	ldi	r18, 0x0C	; 12
				_delay_ms(1000);

				/* Rotate Stepper Motor Anticlockwise with Full step sequence */
				for (int i = 0; i < 12; i++)
				{
					PORTD = 0x09;
    20aa:	52 bb       	out	0x12, r21	; 18
    20ac:	af ef       	ldi	r26, 0xFF	; 255
    20ae:	b1 ee       	ldi	r27, 0xE1	; 225
    20b0:	c4 e0       	ldi	r28, 0x04	; 4
    20b2:	a1 50       	subi	r26, 0x01	; 1
    20b4:	b0 40       	sbci	r27, 0x00	; 0
    20b6:	c0 40       	sbci	r28, 0x00	; 0
    20b8:	e1 f7       	brne	.-8      	; 0x20b2 <__stack+0x1853>
    20ba:	00 c0       	rjmp	.+0      	; 0x20bc <__stack+0x185d>
    20bc:	00 00       	nop
					_delay_ms(period);
					PORTD = 0x03;
    20be:	42 bb       	out	0x12, r20	; 18
    20c0:	ef ef       	ldi	r30, 0xFF	; 255
    20c2:	61 ee       	ldi	r22, 0xE1	; 225
    20c4:	74 e0       	ldi	r23, 0x04	; 4
    20c6:	e1 50       	subi	r30, 0x01	; 1
    20c8:	60 40       	sbci	r22, 0x00	; 0
    20ca:	70 40       	sbci	r23, 0x00	; 0
    20cc:	e1 f7       	brne	.-8      	; 0x20c6 <__stack+0x1867>
    20ce:	00 c0       	rjmp	.+0      	; 0x20d0 <__stack+0x1871>
    20d0:	00 00       	nop
					_delay_ms(period);
					PORTD = 0x06;
    20d2:	32 bb       	out	0x12, r19	; 18
    20d4:	af ef       	ldi	r26, 0xFF	; 255
    20d6:	b1 ee       	ldi	r27, 0xE1	; 225
    20d8:	c4 e0       	ldi	r28, 0x04	; 4
    20da:	a1 50       	subi	r26, 0x01	; 1
    20dc:	b0 40       	sbci	r27, 0x00	; 0
    20de:	c0 40       	sbci	r28, 0x00	; 0
    20e0:	e1 f7       	brne	.-8      	; 0x20da <__stack+0x187b>
    20e2:	00 c0       	rjmp	.+0      	; 0x20e4 <__stack+0x1885>
    20e4:	00 00       	nop
					_delay_ms(period);
					PORTD = 0x0C;
    20e6:	22 bb       	out	0x12, r18	; 18
    20e8:	ef ef       	ldi	r30, 0xFF	; 255
    20ea:	61 ee       	ldi	r22, 0xE1	; 225
    20ec:	74 e0       	ldi	r23, 0x04	; 4
    20ee:	e1 50       	subi	r30, 0x01	; 1
    20f0:	60 40       	sbci	r22, 0x00	; 0
    20f2:	70 40       	sbci	r23, 0x00	; 0
    20f4:	e1 f7       	brne	.-8      	; 0x20ee <__stack+0x188f>
    20f6:	00 c0       	rjmp	.+0      	; 0x20f8 <__stack+0x1899>
    20f8:	00 00       	nop
    20fa:	01 97       	sbiw	r24, 0x01	; 1
				PORTD = 0x09; /* Last step to initial position */
				_delay_ms(period);
				_delay_ms(1000);

				/* Rotate Stepper Motor Anticlockwise with Full step sequence */
				for (int i = 0; i < 12; i++)
    20fc:	b1 f6       	brne	.-84     	; 0x20aa <__stack+0x184b>
					PORTD = 0x06;
					_delay_ms(period);
					PORTD = 0x0C;
					_delay_ms(period);
				}
				PORTD = 0x09;
    20fe:	89 e0       	ldi	r24, 0x09	; 9
    2100:	82 bb       	out	0x12, r24	; 18
    2102:	8f ef       	ldi	r24, 0xFF	; 255
    2104:	91 ee       	ldi	r25, 0xE1	; 225
    2106:	a4 e0       	ldi	r26, 0x04	; 4
    2108:	81 50       	subi	r24, 0x01	; 1
    210a:	90 40       	sbci	r25, 0x00	; 0
    210c:	a0 40       	sbci	r26, 0x00	; 0
    210e:	e1 f7       	brne	.-8      	; 0x2108 <__stack+0x18a9>
    2110:	00 c0       	rjmp	.+0      	; 0x2112 <__stack+0x18b3>
    2112:	00 00       	nop
    2114:	bf ef       	ldi	r27, 0xFF	; 255
    2116:	c3 ed       	ldi	r28, 0xD3	; 211
    2118:	e0 e3       	ldi	r30, 0x30	; 48
    211a:	b1 50       	subi	r27, 0x01	; 1
    211c:	c0 40       	sbci	r28, 0x00	; 0
    211e:	e0 40       	sbci	r30, 0x00	; 0
    2120:	e1 f7       	brne	.-8      	; 0x211a <__stack+0x18bb>
    2122:	00 c0       	rjmp	.+0      	; 0x2124 <__stack+0x18c5>
    2124:	00 00       	nop
    2126:	0c 94 2c 3b 	jmp	0x7658	; 0x7658 <__stack+0x6df9>
				break;
			}
		}
		break;
		case 3:
		switch (personNum)
    212a:	8c e0       	ldi	r24, 0x0C	; 12
    212c:	90 e0       	ldi	r25, 0x00	; 0
			case 5:
			{
				/* Rotate Stepper Motor clockwise with Half step sequence */
				for (int i = 0; i < 12; i++)
				{
					PORTD = 0x09;
    212e:	f9 e0       	ldi	r31, 0x09	; 9
					_delay_ms(period);
					PORTD = 0x08;
    2130:	e8 e0       	ldi	r30, 0x08	; 8
					_delay_ms(period);
					PORTD = 0x0C;
    2132:	7c e0       	ldi	r23, 0x0C	; 12
					_delay_ms(period);
					PORTD = 0x04;
    2134:	64 e0       	ldi	r22, 0x04	; 4
					_delay_ms(period);
					PORTD = 0x06;
    2136:	56 e0       	ldi	r21, 0x06	; 6
					_delay_ms(period);
					PORTD = 0x02;
    2138:	42 e0       	ldi	r20, 0x02	; 2
					_delay_ms(period);
					PORTD = 0x03;
    213a:	33 e0       	ldi	r19, 0x03	; 3
					_delay_ms(period);
					PORTD = 0x01;
    213c:	21 e0       	ldi	r18, 0x01	; 1
			case 5:
			{
				/* Rotate Stepper Motor clockwise with Half step sequence */
				for (int i = 0; i < 12; i++)
				{
					PORTD = 0x09;
    213e:	f2 bb       	out	0x12, r31	; 18
    2140:	af ef       	ldi	r26, 0xFF	; 255
    2142:	b1 ee       	ldi	r27, 0xE1	; 225
    2144:	c4 e0       	ldi	r28, 0x04	; 4
    2146:	a1 50       	subi	r26, 0x01	; 1
    2148:	b0 40       	sbci	r27, 0x00	; 0
    214a:	c0 40       	sbci	r28, 0x00	; 0
    214c:	e1 f7       	brne	.-8      	; 0x2146 <__stack+0x18e7>
    214e:	00 c0       	rjmp	.+0      	; 0x2150 <__stack+0x18f1>
    2150:	00 00       	nop
					_delay_ms(period);
					PORTD = 0x08;
    2152:	e2 bb       	out	0x12, r30	; 18
    2154:	af ef       	ldi	r26, 0xFF	; 255
    2156:	b1 ee       	ldi	r27, 0xE1	; 225
    2158:	c4 e0       	ldi	r28, 0x04	; 4
    215a:	a1 50       	subi	r26, 0x01	; 1
    215c:	b0 40       	sbci	r27, 0x00	; 0
    215e:	c0 40       	sbci	r28, 0x00	; 0
    2160:	e1 f7       	brne	.-8      	; 0x215a <__stack+0x18fb>
    2162:	00 c0       	rjmp	.+0      	; 0x2164 <__stack+0x1905>
    2164:	00 00       	nop
					_delay_ms(period);
					PORTD = 0x0C;
    2166:	72 bb       	out	0x12, r23	; 18
    2168:	af ef       	ldi	r26, 0xFF	; 255
    216a:	b1 ee       	ldi	r27, 0xE1	; 225
    216c:	c4 e0       	ldi	r28, 0x04	; 4
    216e:	a1 50       	subi	r26, 0x01	; 1
    2170:	b0 40       	sbci	r27, 0x00	; 0
    2172:	c0 40       	sbci	r28, 0x00	; 0
    2174:	e1 f7       	brne	.-8      	; 0x216e <__stack+0x190f>
    2176:	00 c0       	rjmp	.+0      	; 0x2178 <__stack+0x1919>
    2178:	00 00       	nop
					_delay_ms(period);
					PORTD = 0x04;
    217a:	62 bb       	out	0x12, r22	; 18
    217c:	af ef       	ldi	r26, 0xFF	; 255
    217e:	b1 ee       	ldi	r27, 0xE1	; 225
    2180:	c4 e0       	ldi	r28, 0x04	; 4
    2182:	a1 50       	subi	r26, 0x01	; 1
    2184:	b0 40       	sbci	r27, 0x00	; 0
    2186:	c0 40       	sbci	r28, 0x00	; 0
    2188:	e1 f7       	brne	.-8      	; 0x2182 <__stack+0x1923>
    218a:	00 c0       	rjmp	.+0      	; 0x218c <__stack+0x192d>
    218c:	00 00       	nop
					_delay_ms(period);
					PORTD = 0x06;
    218e:	52 bb       	out	0x12, r21	; 18
    2190:	af ef       	ldi	r26, 0xFF	; 255
    2192:	b1 ee       	ldi	r27, 0xE1	; 225
    2194:	c4 e0       	ldi	r28, 0x04	; 4
    2196:	a1 50       	subi	r26, 0x01	; 1
    2198:	b0 40       	sbci	r27, 0x00	; 0
    219a:	c0 40       	sbci	r28, 0x00	; 0
    219c:	e1 f7       	brne	.-8      	; 0x2196 <__stack+0x1937>
    219e:	00 c0       	rjmp	.+0      	; 0x21a0 <__stack+0x1941>
    21a0:	00 00       	nop
					_delay_ms(period);
					PORTD = 0x02;
    21a2:	42 bb       	out	0x12, r20	; 18
    21a4:	af ef       	ldi	r26, 0xFF	; 255
    21a6:	b1 ee       	ldi	r27, 0xE1	; 225
    21a8:	c4 e0       	ldi	r28, 0x04	; 4
    21aa:	a1 50       	subi	r26, 0x01	; 1
    21ac:	b0 40       	sbci	r27, 0x00	; 0
    21ae:	c0 40       	sbci	r28, 0x00	; 0
    21b0:	e1 f7       	brne	.-8      	; 0x21aa <__stack+0x194b>
    21b2:	00 c0       	rjmp	.+0      	; 0x21b4 <__stack+0x1955>
    21b4:	00 00       	nop
					_delay_ms(period);
					PORTD = 0x03;
    21b6:	32 bb       	out	0x12, r19	; 18
    21b8:	af ef       	ldi	r26, 0xFF	; 255
    21ba:	b1 ee       	ldi	r27, 0xE1	; 225
    21bc:	c4 e0       	ldi	r28, 0x04	; 4
    21be:	a1 50       	subi	r26, 0x01	; 1
    21c0:	b0 40       	sbci	r27, 0x00	; 0
    21c2:	c0 40       	sbci	r28, 0x00	; 0
    21c4:	e1 f7       	brne	.-8      	; 0x21be <__stack+0x195f>
    21c6:	00 c0       	rjmp	.+0      	; 0x21c8 <__stack+0x1969>
    21c8:	00 00       	nop
					_delay_ms(period);
					PORTD = 0x01;
    21ca:	22 bb       	out	0x12, r18	; 18
    21cc:	af ef       	ldi	r26, 0xFF	; 255
    21ce:	b1 ee       	ldi	r27, 0xE1	; 225
    21d0:	c4 e0       	ldi	r28, 0x04	; 4
    21d2:	a1 50       	subi	r26, 0x01	; 1
    21d4:	b0 40       	sbci	r27, 0x00	; 0
    21d6:	c0 40       	sbci	r28, 0x00	; 0
    21d8:	e1 f7       	brne	.-8      	; 0x21d2 <__stack+0x1973>
    21da:	00 c0       	rjmp	.+0      	; 0x21dc <__stack+0x197d>
    21dc:	00 00       	nop
    21de:	01 97       	sbiw	r24, 0x01	; 1
				break;
			}
			case 5:
			{
				/* Rotate Stepper Motor clockwise with Half step sequence */
				for (int i = 0; i < 12; i++)
    21e0:	09 f0       	breq	.+2      	; 0x21e4 <__stack+0x1985>
    21e2:	ad cf       	rjmp	.-166    	; 0x213e <__stack+0x18df>
					PORTD = 0x03;
					_delay_ms(period);
					PORTD = 0x01;
					_delay_ms(period);
				}
				PORTD = 0x09; /* Last step to initial position */
    21e4:	89 e0       	ldi	r24, 0x09	; 9
    21e6:	82 bb       	out	0x12, r24	; 18
    21e8:	ef ef       	ldi	r30, 0xFF	; 255
    21ea:	21 ee       	ldi	r18, 0xE1	; 225
    21ec:	64 e0       	ldi	r22, 0x04	; 4
    21ee:	e1 50       	subi	r30, 0x01	; 1
    21f0:	20 40       	sbci	r18, 0x00	; 0
    21f2:	60 40       	sbci	r22, 0x00	; 0
    21f4:	e1 f7       	brne	.-8      	; 0x21ee <__stack+0x198f>
    21f6:	00 c0       	rjmp	.+0      	; 0x21f8 <__stack+0x1999>
    21f8:	00 00       	nop
    21fa:	7f ef       	ldi	r23, 0xFF	; 255
    21fc:	83 ed       	ldi	r24, 0xD3	; 211
    21fe:	90 e3       	ldi	r25, 0x30	; 48
    2200:	71 50       	subi	r23, 0x01	; 1
    2202:	80 40       	sbci	r24, 0x00	; 0
    2204:	90 40       	sbci	r25, 0x00	; 0
    2206:	e1 f7       	brne	.-8      	; 0x2200 <__stack+0x19a1>
    2208:	00 c0       	rjmp	.+0      	; 0x220a <__stack+0x19ab>
    220a:	00 00       	nop
    220c:	8c e0       	ldi	r24, 0x0C	; 12
    220e:	90 e0       	ldi	r25, 0x00	; 0
				_delay_ms(1000);

				/* Rotate Stepper Motor Anticlockwise with Full step sequence */
				for (int i = 0; i < 12; i++)
				{
					PORTD = 0x09;
    2210:	59 e0       	ldi	r21, 0x09	; 9
					_delay_ms(period);
					PORTD = 0x03;
    2212:	43 e0       	ldi	r20, 0x03	; 3
					_delay_ms(period);
					PORTD = 0x06;
    2214:	36 e0       	ldi	r19, 0x06	; 6
					_delay_ms(period);
					PORTD = 0x0C;
    2216:	2c e0       	ldi	r18, 0x0C	; 12
				_delay_ms(1000);

				/* Rotate Stepper Motor Anticlockwise with Full step sequence */
				for (int i = 0; i < 12; i++)
				{
					PORTD = 0x09;
    2218:	52 bb       	out	0x12, r21	; 18
    221a:	af ef       	ldi	r26, 0xFF	; 255
    221c:	b1 ee       	ldi	r27, 0xE1	; 225
    221e:	c4 e0       	ldi	r28, 0x04	; 4
    2220:	a1 50       	subi	r26, 0x01	; 1
    2222:	b0 40       	sbci	r27, 0x00	; 0
    2224:	c0 40       	sbci	r28, 0x00	; 0
    2226:	e1 f7       	brne	.-8      	; 0x2220 <__stack+0x19c1>
    2228:	00 c0       	rjmp	.+0      	; 0x222a <__stack+0x19cb>
    222a:	00 00       	nop
					_delay_ms(period);
					PORTD = 0x03;
    222c:	42 bb       	out	0x12, r20	; 18
    222e:	ef ef       	ldi	r30, 0xFF	; 255
    2230:	61 ee       	ldi	r22, 0xE1	; 225
    2232:	74 e0       	ldi	r23, 0x04	; 4
    2234:	e1 50       	subi	r30, 0x01	; 1
    2236:	60 40       	sbci	r22, 0x00	; 0
    2238:	70 40       	sbci	r23, 0x00	; 0
    223a:	e1 f7       	brne	.-8      	; 0x2234 <__stack+0x19d5>
    223c:	00 c0       	rjmp	.+0      	; 0x223e <__stack+0x19df>
    223e:	00 00       	nop
					_delay_ms(period);
					PORTD = 0x06;
    2240:	32 bb       	out	0x12, r19	; 18
    2242:	af ef       	ldi	r26, 0xFF	; 255
    2244:	b1 ee       	ldi	r27, 0xE1	; 225
    2246:	c4 e0       	ldi	r28, 0x04	; 4
    2248:	a1 50       	subi	r26, 0x01	; 1
    224a:	b0 40       	sbci	r27, 0x00	; 0
    224c:	c0 40       	sbci	r28, 0x00	; 0
    224e:	e1 f7       	brne	.-8      	; 0x2248 <__stack+0x19e9>
    2250:	00 c0       	rjmp	.+0      	; 0x2252 <__stack+0x19f3>
    2252:	00 00       	nop
					_delay_ms(period);
					PORTD = 0x0C;
    2254:	22 bb       	out	0x12, r18	; 18
    2256:	ef ef       	ldi	r30, 0xFF	; 255
    2258:	61 ee       	ldi	r22, 0xE1	; 225
    225a:	74 e0       	ldi	r23, 0x04	; 4
    225c:	e1 50       	subi	r30, 0x01	; 1
    225e:	60 40       	sbci	r22, 0x00	; 0
    2260:	70 40       	sbci	r23, 0x00	; 0
    2262:	e1 f7       	brne	.-8      	; 0x225c <__stack+0x19fd>
    2264:	00 c0       	rjmp	.+0      	; 0x2266 <__stack+0x1a07>
    2266:	00 00       	nop
    2268:	01 97       	sbiw	r24, 0x01	; 1
				PORTD = 0x09; /* Last step to initial position */
				_delay_ms(period);
				_delay_ms(1000);

				/* Rotate Stepper Motor Anticlockwise with Full step sequence */
				for (int i = 0; i < 12; i++)
    226a:	b1 f6       	brne	.-84     	; 0x2218 <__stack+0x19b9>
					PORTD = 0x06;
					_delay_ms(period);
					PORTD = 0x0C;
					_delay_ms(period);
				}
				PORTD = 0x09;
    226c:	89 e0       	ldi	r24, 0x09	; 9
    226e:	82 bb       	out	0x12, r24	; 18
    2270:	8f ef       	ldi	r24, 0xFF	; 255
    2272:	91 ee       	ldi	r25, 0xE1	; 225
    2274:	a4 e0       	ldi	r26, 0x04	; 4
    2276:	81 50       	subi	r24, 0x01	; 1
    2278:	90 40       	sbci	r25, 0x00	; 0
    227a:	a0 40       	sbci	r26, 0x00	; 0
    227c:	e1 f7       	brne	.-8      	; 0x2276 <__stack+0x1a17>
    227e:	00 c0       	rjmp	.+0      	; 0x2280 <__stack+0x1a21>
    2280:	00 00       	nop
    2282:	bf ef       	ldi	r27, 0xFF	; 255
    2284:	c3 ed       	ldi	r28, 0xD3	; 211
    2286:	e0 e3       	ldi	r30, 0x30	; 48
    2288:	b1 50       	subi	r27, 0x01	; 1
    228a:	c0 40       	sbci	r28, 0x00	; 0
    228c:	e0 40       	sbci	r30, 0x00	; 0
    228e:	e1 f7       	brne	.-8      	; 0x2288 <__stack+0x1a29>
    2290:	00 c0       	rjmp	.+0      	; 0x2292 <__stack+0x1a33>
    2292:	00 00       	nop
    2294:	0c 94 2c 3b 	jmp	0x7658	; 0x7658 <__stack+0x6df9>
				break;
			}
		}
		break;
		case 3:
		switch (personNum)
    2298:	8c e0       	ldi	r24, 0x0C	; 12
    229a:	90 e0       	ldi	r25, 0x00	; 0
			case 6:
			{
				/* Rotate Stepper Motor clockwise with Half step sequence */
				for (int i = 0; i < 12; i++)
				{
					PORTD = 0x09;
    229c:	f9 e0       	ldi	r31, 0x09	; 9
					_delay_ms(period);
					PORTD = 0x08;
    229e:	e8 e0       	ldi	r30, 0x08	; 8
					_delay_ms(period);
					PORTD = 0x0C;
    22a0:	7c e0       	ldi	r23, 0x0C	; 12
					_delay_ms(period);
					PORTD = 0x04;
    22a2:	64 e0       	ldi	r22, 0x04	; 4
					_delay_ms(period);
					PORTD = 0x06;
    22a4:	56 e0       	ldi	r21, 0x06	; 6
					_delay_ms(period);
					PORTD = 0x02;
    22a6:	42 e0       	ldi	r20, 0x02	; 2
					_delay_ms(period);
					PORTD = 0x03;
    22a8:	33 e0       	ldi	r19, 0x03	; 3
					_delay_ms(period);
					PORTD = 0x01;
    22aa:	21 e0       	ldi	r18, 0x01	; 1
			case 6:
			{
				/* Rotate Stepper Motor clockwise with Half step sequence */
				for (int i = 0; i < 12; i++)
				{
					PORTD = 0x09;
    22ac:	f2 bb       	out	0x12, r31	; 18
    22ae:	af ef       	ldi	r26, 0xFF	; 255
    22b0:	b1 ee       	ldi	r27, 0xE1	; 225
    22b2:	c4 e0       	ldi	r28, 0x04	; 4
    22b4:	a1 50       	subi	r26, 0x01	; 1
    22b6:	b0 40       	sbci	r27, 0x00	; 0
    22b8:	c0 40       	sbci	r28, 0x00	; 0
    22ba:	e1 f7       	brne	.-8      	; 0x22b4 <__stack+0x1a55>
    22bc:	00 c0       	rjmp	.+0      	; 0x22be <__stack+0x1a5f>
    22be:	00 00       	nop
					_delay_ms(period);
					PORTD = 0x08;
    22c0:	e2 bb       	out	0x12, r30	; 18
    22c2:	af ef       	ldi	r26, 0xFF	; 255
    22c4:	b1 ee       	ldi	r27, 0xE1	; 225
    22c6:	c4 e0       	ldi	r28, 0x04	; 4
    22c8:	a1 50       	subi	r26, 0x01	; 1
    22ca:	b0 40       	sbci	r27, 0x00	; 0
    22cc:	c0 40       	sbci	r28, 0x00	; 0
    22ce:	e1 f7       	brne	.-8      	; 0x22c8 <__stack+0x1a69>
    22d0:	00 c0       	rjmp	.+0      	; 0x22d2 <__stack+0x1a73>
    22d2:	00 00       	nop
					_delay_ms(period);
					PORTD = 0x0C;
    22d4:	72 bb       	out	0x12, r23	; 18
    22d6:	af ef       	ldi	r26, 0xFF	; 255
    22d8:	b1 ee       	ldi	r27, 0xE1	; 225
    22da:	c4 e0       	ldi	r28, 0x04	; 4
    22dc:	a1 50       	subi	r26, 0x01	; 1
    22de:	b0 40       	sbci	r27, 0x00	; 0
    22e0:	c0 40       	sbci	r28, 0x00	; 0
    22e2:	e1 f7       	brne	.-8      	; 0x22dc <__stack+0x1a7d>
    22e4:	00 c0       	rjmp	.+0      	; 0x22e6 <__stack+0x1a87>
    22e6:	00 00       	nop
					_delay_ms(period);
					PORTD = 0x04;
    22e8:	62 bb       	out	0x12, r22	; 18
    22ea:	af ef       	ldi	r26, 0xFF	; 255
    22ec:	b1 ee       	ldi	r27, 0xE1	; 225
    22ee:	c4 e0       	ldi	r28, 0x04	; 4
    22f0:	a1 50       	subi	r26, 0x01	; 1
    22f2:	b0 40       	sbci	r27, 0x00	; 0
    22f4:	c0 40       	sbci	r28, 0x00	; 0
    22f6:	e1 f7       	brne	.-8      	; 0x22f0 <__stack+0x1a91>
    22f8:	00 c0       	rjmp	.+0      	; 0x22fa <__stack+0x1a9b>
    22fa:	00 00       	nop
					_delay_ms(period);
					PORTD = 0x06;
    22fc:	52 bb       	out	0x12, r21	; 18
    22fe:	af ef       	ldi	r26, 0xFF	; 255
    2300:	b1 ee       	ldi	r27, 0xE1	; 225
    2302:	c4 e0       	ldi	r28, 0x04	; 4
    2304:	a1 50       	subi	r26, 0x01	; 1
    2306:	b0 40       	sbci	r27, 0x00	; 0
    2308:	c0 40       	sbci	r28, 0x00	; 0
    230a:	e1 f7       	brne	.-8      	; 0x2304 <__stack+0x1aa5>
    230c:	00 c0       	rjmp	.+0      	; 0x230e <__stack+0x1aaf>
    230e:	00 00       	nop
					_delay_ms(period);
					PORTD = 0x02;
    2310:	42 bb       	out	0x12, r20	; 18
    2312:	af ef       	ldi	r26, 0xFF	; 255
    2314:	b1 ee       	ldi	r27, 0xE1	; 225
    2316:	c4 e0       	ldi	r28, 0x04	; 4
    2318:	a1 50       	subi	r26, 0x01	; 1
    231a:	b0 40       	sbci	r27, 0x00	; 0
    231c:	c0 40       	sbci	r28, 0x00	; 0
    231e:	e1 f7       	brne	.-8      	; 0x2318 <__stack+0x1ab9>
    2320:	00 c0       	rjmp	.+0      	; 0x2322 <__stack+0x1ac3>
    2322:	00 00       	nop
					_delay_ms(period);
					PORTD = 0x03;
    2324:	32 bb       	out	0x12, r19	; 18
    2326:	af ef       	ldi	r26, 0xFF	; 255
    2328:	b1 ee       	ldi	r27, 0xE1	; 225
    232a:	c4 e0       	ldi	r28, 0x04	; 4
    232c:	a1 50       	subi	r26, 0x01	; 1
    232e:	b0 40       	sbci	r27, 0x00	; 0
    2330:	c0 40       	sbci	r28, 0x00	; 0
    2332:	e1 f7       	brne	.-8      	; 0x232c <__stack+0x1acd>
    2334:	00 c0       	rjmp	.+0      	; 0x2336 <__stack+0x1ad7>
    2336:	00 00       	nop
					_delay_ms(period);
					PORTD = 0x01;
    2338:	22 bb       	out	0x12, r18	; 18
    233a:	af ef       	ldi	r26, 0xFF	; 255
    233c:	b1 ee       	ldi	r27, 0xE1	; 225
    233e:	c4 e0       	ldi	r28, 0x04	; 4
    2340:	a1 50       	subi	r26, 0x01	; 1
    2342:	b0 40       	sbci	r27, 0x00	; 0
    2344:	c0 40       	sbci	r28, 0x00	; 0
    2346:	e1 f7       	brne	.-8      	; 0x2340 <__stack+0x1ae1>
    2348:	00 c0       	rjmp	.+0      	; 0x234a <__stack+0x1aeb>
    234a:	00 00       	nop
    234c:	01 97       	sbiw	r24, 0x01	; 1
				break;
			}
			case 6:
			{
				/* Rotate Stepper Motor clockwise with Half step sequence */
				for (int i = 0; i < 12; i++)
    234e:	09 f0       	breq	.+2      	; 0x2352 <__stack+0x1af3>
    2350:	ad cf       	rjmp	.-166    	; 0x22ac <__stack+0x1a4d>
					PORTD = 0x03;
					_delay_ms(period);
					PORTD = 0x01;
					_delay_ms(period);
				}
				PORTD = 0x09; /* Last step to initial position */
    2352:	89 e0       	ldi	r24, 0x09	; 9
    2354:	82 bb       	out	0x12, r24	; 18
    2356:	ef ef       	ldi	r30, 0xFF	; 255
    2358:	21 ee       	ldi	r18, 0xE1	; 225
    235a:	64 e0       	ldi	r22, 0x04	; 4
    235c:	e1 50       	subi	r30, 0x01	; 1
    235e:	20 40       	sbci	r18, 0x00	; 0
    2360:	60 40       	sbci	r22, 0x00	; 0
    2362:	e1 f7       	brne	.-8      	; 0x235c <__stack+0x1afd>
    2364:	00 c0       	rjmp	.+0      	; 0x2366 <__stack+0x1b07>
    2366:	00 00       	nop
    2368:	7f ef       	ldi	r23, 0xFF	; 255
    236a:	83 ed       	ldi	r24, 0xD3	; 211
    236c:	90 e3       	ldi	r25, 0x30	; 48
    236e:	71 50       	subi	r23, 0x01	; 1
    2370:	80 40       	sbci	r24, 0x00	; 0
    2372:	90 40       	sbci	r25, 0x00	; 0
    2374:	e1 f7       	brne	.-8      	; 0x236e <__stack+0x1b0f>
    2376:	00 c0       	rjmp	.+0      	; 0x2378 <__stack+0x1b19>
    2378:	00 00       	nop
    237a:	8c e0       	ldi	r24, 0x0C	; 12
    237c:	90 e0       	ldi	r25, 0x00	; 0
				_delay_ms(1000);

				/* Rotate Stepper Motor Anticlockwise with Full step sequence */
				for (int i = 0; i < 12; i++)
				{
					PORTD = 0x09;
    237e:	59 e0       	ldi	r21, 0x09	; 9
					_delay_ms(period);
					PORTD = 0x03;
    2380:	43 e0       	ldi	r20, 0x03	; 3
					_delay_ms(period);
					PORTD = 0x06;
    2382:	36 e0       	ldi	r19, 0x06	; 6
					_delay_ms(period);
					PORTD = 0x0C;
    2384:	2c e0       	ldi	r18, 0x0C	; 12
				_delay_ms(1000);

				/* Rotate Stepper Motor Anticlockwise with Full step sequence */
				for (int i = 0; i < 12; i++)
				{
					PORTD = 0x09;
    2386:	52 bb       	out	0x12, r21	; 18
    2388:	af ef       	ldi	r26, 0xFF	; 255
    238a:	b1 ee       	ldi	r27, 0xE1	; 225
    238c:	c4 e0       	ldi	r28, 0x04	; 4
    238e:	a1 50       	subi	r26, 0x01	; 1
    2390:	b0 40       	sbci	r27, 0x00	; 0
    2392:	c0 40       	sbci	r28, 0x00	; 0
    2394:	e1 f7       	brne	.-8      	; 0x238e <__stack+0x1b2f>
    2396:	00 c0       	rjmp	.+0      	; 0x2398 <__stack+0x1b39>
    2398:	00 00       	nop
					_delay_ms(period);
					PORTD = 0x03;
    239a:	42 bb       	out	0x12, r20	; 18
    239c:	ef ef       	ldi	r30, 0xFF	; 255
    239e:	61 ee       	ldi	r22, 0xE1	; 225
    23a0:	74 e0       	ldi	r23, 0x04	; 4
    23a2:	e1 50       	subi	r30, 0x01	; 1
    23a4:	60 40       	sbci	r22, 0x00	; 0
    23a6:	70 40       	sbci	r23, 0x00	; 0
    23a8:	e1 f7       	brne	.-8      	; 0x23a2 <__stack+0x1b43>
    23aa:	00 c0       	rjmp	.+0      	; 0x23ac <__stack+0x1b4d>
    23ac:	00 00       	nop
					_delay_ms(period);
					PORTD = 0x06;
    23ae:	32 bb       	out	0x12, r19	; 18
    23b0:	af ef       	ldi	r26, 0xFF	; 255
    23b2:	b1 ee       	ldi	r27, 0xE1	; 225
    23b4:	c4 e0       	ldi	r28, 0x04	; 4
    23b6:	a1 50       	subi	r26, 0x01	; 1
    23b8:	b0 40       	sbci	r27, 0x00	; 0
    23ba:	c0 40       	sbci	r28, 0x00	; 0
    23bc:	e1 f7       	brne	.-8      	; 0x23b6 <__stack+0x1b57>
    23be:	00 c0       	rjmp	.+0      	; 0x23c0 <__stack+0x1b61>
    23c0:	00 00       	nop
					_delay_ms(period);
					PORTD = 0x0C;
    23c2:	22 bb       	out	0x12, r18	; 18
    23c4:	ef ef       	ldi	r30, 0xFF	; 255
    23c6:	61 ee       	ldi	r22, 0xE1	; 225
    23c8:	74 e0       	ldi	r23, 0x04	; 4
    23ca:	e1 50       	subi	r30, 0x01	; 1
    23cc:	60 40       	sbci	r22, 0x00	; 0
    23ce:	70 40       	sbci	r23, 0x00	; 0
    23d0:	e1 f7       	brne	.-8      	; 0x23ca <__stack+0x1b6b>
    23d2:	00 c0       	rjmp	.+0      	; 0x23d4 <__stack+0x1b75>
    23d4:	00 00       	nop
    23d6:	01 97       	sbiw	r24, 0x01	; 1
				PORTD = 0x09; /* Last step to initial position */
				_delay_ms(period);
				_delay_ms(1000);

				/* Rotate Stepper Motor Anticlockwise with Full step sequence */
				for (int i = 0; i < 12; i++)
    23d8:	b1 f6       	brne	.-84     	; 0x2386 <__stack+0x1b27>
					PORTD = 0x06;
					_delay_ms(period);
					PORTD = 0x0C;
					_delay_ms(period);
				}
				PORTD = 0x09;
    23da:	89 e0       	ldi	r24, 0x09	; 9
    23dc:	82 bb       	out	0x12, r24	; 18
    23de:	8f ef       	ldi	r24, 0xFF	; 255
    23e0:	91 ee       	ldi	r25, 0xE1	; 225
    23e2:	a4 e0       	ldi	r26, 0x04	; 4
    23e4:	81 50       	subi	r24, 0x01	; 1
    23e6:	90 40       	sbci	r25, 0x00	; 0
    23e8:	a0 40       	sbci	r26, 0x00	; 0
    23ea:	e1 f7       	brne	.-8      	; 0x23e4 <__stack+0x1b85>
    23ec:	00 c0       	rjmp	.+0      	; 0x23ee <__stack+0x1b8f>
    23ee:	00 00       	nop
    23f0:	bf ef       	ldi	r27, 0xFF	; 255
    23f2:	c3 ed       	ldi	r28, 0xD3	; 211
    23f4:	e0 e3       	ldi	r30, 0x30	; 48
    23f6:	b1 50       	subi	r27, 0x01	; 1
    23f8:	c0 40       	sbci	r28, 0x00	; 0
    23fa:	e0 40       	sbci	r30, 0x00	; 0
    23fc:	e1 f7       	brne	.-8      	; 0x23f6 <__stack+0x1b97>
    23fe:	00 c0       	rjmp	.+0      	; 0x2400 <__stack+0x1ba1>
    2400:	00 00       	nop
    2402:	0c 94 2c 3b 	jmp	0x7658	; 0x7658 <__stack+0x6df9>
				break;
			}
		}
		break;
		case 3:
		switch (personNum)
    2406:	8c e0       	ldi	r24, 0x0C	; 12
    2408:	90 e0       	ldi	r25, 0x00	; 0
			case 7:
			{
				/* Rotate Stepper Motor clockwise with Half step sequence */
				for (int i = 0; i < 12; i++)
				{
					PORTD = 0x09;
    240a:	f9 e0       	ldi	r31, 0x09	; 9
					_delay_ms(period);
					PORTD = 0x08;
    240c:	e8 e0       	ldi	r30, 0x08	; 8
					_delay_ms(period);
					PORTD = 0x0C;
    240e:	7c e0       	ldi	r23, 0x0C	; 12
					_delay_ms(period);
					PORTD = 0x04;
    2410:	64 e0       	ldi	r22, 0x04	; 4
					_delay_ms(period);
					PORTD = 0x06;
    2412:	56 e0       	ldi	r21, 0x06	; 6
					_delay_ms(period);
					PORTD = 0x02;
    2414:	42 e0       	ldi	r20, 0x02	; 2
					_delay_ms(period);
					PORTD = 0x03;
    2416:	33 e0       	ldi	r19, 0x03	; 3
					_delay_ms(period);
					PORTD = 0x01;
    2418:	21 e0       	ldi	r18, 0x01	; 1
			case 7:
			{
				/* Rotate Stepper Motor clockwise with Half step sequence */
				for (int i = 0; i < 12; i++)
				{
					PORTD = 0x09;
    241a:	f2 bb       	out	0x12, r31	; 18
    241c:	af ef       	ldi	r26, 0xFF	; 255
    241e:	b1 ee       	ldi	r27, 0xE1	; 225
    2420:	c4 e0       	ldi	r28, 0x04	; 4
    2422:	a1 50       	subi	r26, 0x01	; 1
    2424:	b0 40       	sbci	r27, 0x00	; 0
    2426:	c0 40       	sbci	r28, 0x00	; 0
    2428:	e1 f7       	brne	.-8      	; 0x2422 <__stack+0x1bc3>
    242a:	00 c0       	rjmp	.+0      	; 0x242c <__stack+0x1bcd>
    242c:	00 00       	nop
					_delay_ms(period);
					PORTD = 0x08;
    242e:	e2 bb       	out	0x12, r30	; 18
    2430:	af ef       	ldi	r26, 0xFF	; 255
    2432:	b1 ee       	ldi	r27, 0xE1	; 225
    2434:	c4 e0       	ldi	r28, 0x04	; 4
    2436:	a1 50       	subi	r26, 0x01	; 1
    2438:	b0 40       	sbci	r27, 0x00	; 0
    243a:	c0 40       	sbci	r28, 0x00	; 0
    243c:	e1 f7       	brne	.-8      	; 0x2436 <__stack+0x1bd7>
    243e:	00 c0       	rjmp	.+0      	; 0x2440 <__stack+0x1be1>
    2440:	00 00       	nop
					_delay_ms(period);
					PORTD = 0x0C;
    2442:	72 bb       	out	0x12, r23	; 18
    2444:	af ef       	ldi	r26, 0xFF	; 255
    2446:	b1 ee       	ldi	r27, 0xE1	; 225
    2448:	c4 e0       	ldi	r28, 0x04	; 4
    244a:	a1 50       	subi	r26, 0x01	; 1
    244c:	b0 40       	sbci	r27, 0x00	; 0
    244e:	c0 40       	sbci	r28, 0x00	; 0
    2450:	e1 f7       	brne	.-8      	; 0x244a <__stack+0x1beb>
    2452:	00 c0       	rjmp	.+0      	; 0x2454 <__stack+0x1bf5>
    2454:	00 00       	nop
					_delay_ms(period);
					PORTD = 0x04;
    2456:	62 bb       	out	0x12, r22	; 18
    2458:	af ef       	ldi	r26, 0xFF	; 255
    245a:	b1 ee       	ldi	r27, 0xE1	; 225
    245c:	c4 e0       	ldi	r28, 0x04	; 4
    245e:	a1 50       	subi	r26, 0x01	; 1
    2460:	b0 40       	sbci	r27, 0x00	; 0
    2462:	c0 40       	sbci	r28, 0x00	; 0
    2464:	e1 f7       	brne	.-8      	; 0x245e <__stack+0x1bff>
    2466:	00 c0       	rjmp	.+0      	; 0x2468 <__stack+0x1c09>
    2468:	00 00       	nop
					_delay_ms(period);
					PORTD = 0x06;
    246a:	52 bb       	out	0x12, r21	; 18
    246c:	af ef       	ldi	r26, 0xFF	; 255
    246e:	b1 ee       	ldi	r27, 0xE1	; 225
    2470:	c4 e0       	ldi	r28, 0x04	; 4
    2472:	a1 50       	subi	r26, 0x01	; 1
    2474:	b0 40       	sbci	r27, 0x00	; 0
    2476:	c0 40       	sbci	r28, 0x00	; 0
    2478:	e1 f7       	brne	.-8      	; 0x2472 <__stack+0x1c13>
    247a:	00 c0       	rjmp	.+0      	; 0x247c <__stack+0x1c1d>
    247c:	00 00       	nop
					_delay_ms(period);
					PORTD = 0x02;
    247e:	42 bb       	out	0x12, r20	; 18
    2480:	af ef       	ldi	r26, 0xFF	; 255
    2482:	b1 ee       	ldi	r27, 0xE1	; 225
    2484:	c4 e0       	ldi	r28, 0x04	; 4
    2486:	a1 50       	subi	r26, 0x01	; 1
    2488:	b0 40       	sbci	r27, 0x00	; 0
    248a:	c0 40       	sbci	r28, 0x00	; 0
    248c:	e1 f7       	brne	.-8      	; 0x2486 <__stack+0x1c27>
    248e:	00 c0       	rjmp	.+0      	; 0x2490 <__stack+0x1c31>
    2490:	00 00       	nop
					_delay_ms(period);
					PORTD = 0x03;
    2492:	32 bb       	out	0x12, r19	; 18
    2494:	af ef       	ldi	r26, 0xFF	; 255
    2496:	b1 ee       	ldi	r27, 0xE1	; 225
    2498:	c4 e0       	ldi	r28, 0x04	; 4
    249a:	a1 50       	subi	r26, 0x01	; 1
    249c:	b0 40       	sbci	r27, 0x00	; 0
    249e:	c0 40       	sbci	r28, 0x00	; 0
    24a0:	e1 f7       	brne	.-8      	; 0x249a <__stack+0x1c3b>
    24a2:	00 c0       	rjmp	.+0      	; 0x24a4 <__stack+0x1c45>
    24a4:	00 00       	nop
					_delay_ms(period);
					PORTD = 0x01;
    24a6:	22 bb       	out	0x12, r18	; 18
    24a8:	af ef       	ldi	r26, 0xFF	; 255
    24aa:	b1 ee       	ldi	r27, 0xE1	; 225
    24ac:	c4 e0       	ldi	r28, 0x04	; 4
    24ae:	a1 50       	subi	r26, 0x01	; 1
    24b0:	b0 40       	sbci	r27, 0x00	; 0
    24b2:	c0 40       	sbci	r28, 0x00	; 0
    24b4:	e1 f7       	brne	.-8      	; 0x24ae <__stack+0x1c4f>
    24b6:	00 c0       	rjmp	.+0      	; 0x24b8 <__stack+0x1c59>
    24b8:	00 00       	nop
    24ba:	01 97       	sbiw	r24, 0x01	; 1
				break;
			}
			case 7:
			{
				/* Rotate Stepper Motor clockwise with Half step sequence */
				for (int i = 0; i < 12; i++)
    24bc:	09 f0       	breq	.+2      	; 0x24c0 <__stack+0x1c61>
    24be:	ad cf       	rjmp	.-166    	; 0x241a <__stack+0x1bbb>
					PORTD = 0x03;
					_delay_ms(period);
					PORTD = 0x01;
					_delay_ms(period);
				}
				PORTD = 0x09; /* Last step to initial position */
    24c0:	89 e0       	ldi	r24, 0x09	; 9
    24c2:	82 bb       	out	0x12, r24	; 18
    24c4:	ef ef       	ldi	r30, 0xFF	; 255
    24c6:	21 ee       	ldi	r18, 0xE1	; 225
    24c8:	64 e0       	ldi	r22, 0x04	; 4
    24ca:	e1 50       	subi	r30, 0x01	; 1
    24cc:	20 40       	sbci	r18, 0x00	; 0
    24ce:	60 40       	sbci	r22, 0x00	; 0
    24d0:	e1 f7       	brne	.-8      	; 0x24ca <__stack+0x1c6b>
    24d2:	00 c0       	rjmp	.+0      	; 0x24d4 <__stack+0x1c75>
    24d4:	00 00       	nop
    24d6:	7f ef       	ldi	r23, 0xFF	; 255
    24d8:	83 ed       	ldi	r24, 0xD3	; 211
    24da:	90 e3       	ldi	r25, 0x30	; 48
    24dc:	71 50       	subi	r23, 0x01	; 1
    24de:	80 40       	sbci	r24, 0x00	; 0
    24e0:	90 40       	sbci	r25, 0x00	; 0
    24e2:	e1 f7       	brne	.-8      	; 0x24dc <__stack+0x1c7d>
    24e4:	00 c0       	rjmp	.+0      	; 0x24e6 <__stack+0x1c87>
    24e6:	00 00       	nop
    24e8:	8c e0       	ldi	r24, 0x0C	; 12
    24ea:	90 e0       	ldi	r25, 0x00	; 0
				_delay_ms(1000);

				/* Rotate Stepper Motor Anticlockwise with Full step sequence */
				for (int i = 0; i < 12; i++)
				{
					PORTD = 0x09;
    24ec:	59 e0       	ldi	r21, 0x09	; 9
					_delay_ms(period);
					PORTD = 0x03;
    24ee:	43 e0       	ldi	r20, 0x03	; 3
					_delay_ms(period);
					PORTD = 0x06;
    24f0:	36 e0       	ldi	r19, 0x06	; 6
					_delay_ms(period);
					PORTD = 0x0C;
    24f2:	2c e0       	ldi	r18, 0x0C	; 12
				_delay_ms(1000);

				/* Rotate Stepper Motor Anticlockwise with Full step sequence */
				for (int i = 0; i < 12; i++)
				{
					PORTD = 0x09;
    24f4:	52 bb       	out	0x12, r21	; 18
    24f6:	af ef       	ldi	r26, 0xFF	; 255
    24f8:	b1 ee       	ldi	r27, 0xE1	; 225
    24fa:	c4 e0       	ldi	r28, 0x04	; 4
    24fc:	a1 50       	subi	r26, 0x01	; 1
    24fe:	b0 40       	sbci	r27, 0x00	; 0
    2500:	c0 40       	sbci	r28, 0x00	; 0
    2502:	e1 f7       	brne	.-8      	; 0x24fc <__stack+0x1c9d>
    2504:	00 c0       	rjmp	.+0      	; 0x2506 <__stack+0x1ca7>
    2506:	00 00       	nop
					_delay_ms(period);
					PORTD = 0x03;
    2508:	42 bb       	out	0x12, r20	; 18
    250a:	ef ef       	ldi	r30, 0xFF	; 255
    250c:	61 ee       	ldi	r22, 0xE1	; 225
    250e:	74 e0       	ldi	r23, 0x04	; 4
    2510:	e1 50       	subi	r30, 0x01	; 1
    2512:	60 40       	sbci	r22, 0x00	; 0
    2514:	70 40       	sbci	r23, 0x00	; 0
    2516:	e1 f7       	brne	.-8      	; 0x2510 <__stack+0x1cb1>
    2518:	00 c0       	rjmp	.+0      	; 0x251a <__stack+0x1cbb>
    251a:	00 00       	nop
					_delay_ms(period);
					PORTD = 0x06;
    251c:	32 bb       	out	0x12, r19	; 18
    251e:	af ef       	ldi	r26, 0xFF	; 255
    2520:	b1 ee       	ldi	r27, 0xE1	; 225
    2522:	c4 e0       	ldi	r28, 0x04	; 4
    2524:	a1 50       	subi	r26, 0x01	; 1
    2526:	b0 40       	sbci	r27, 0x00	; 0
    2528:	c0 40       	sbci	r28, 0x00	; 0
    252a:	e1 f7       	brne	.-8      	; 0x2524 <__stack+0x1cc5>
    252c:	00 c0       	rjmp	.+0      	; 0x252e <__stack+0x1ccf>
    252e:	00 00       	nop
					_delay_ms(period);
					PORTD = 0x0C;
    2530:	22 bb       	out	0x12, r18	; 18
    2532:	ef ef       	ldi	r30, 0xFF	; 255
    2534:	61 ee       	ldi	r22, 0xE1	; 225
    2536:	74 e0       	ldi	r23, 0x04	; 4
    2538:	e1 50       	subi	r30, 0x01	; 1
    253a:	60 40       	sbci	r22, 0x00	; 0
    253c:	70 40       	sbci	r23, 0x00	; 0
    253e:	e1 f7       	brne	.-8      	; 0x2538 <__stack+0x1cd9>
    2540:	00 c0       	rjmp	.+0      	; 0x2542 <__stack+0x1ce3>
    2542:	00 00       	nop
    2544:	01 97       	sbiw	r24, 0x01	; 1
				PORTD = 0x09; /* Last step to initial position */
				_delay_ms(period);
				_delay_ms(1000);

				/* Rotate Stepper Motor Anticlockwise with Full step sequence */
				for (int i = 0; i < 12; i++)
    2546:	b1 f6       	brne	.-84     	; 0x24f4 <__stack+0x1c95>
					PORTD = 0x06;
					_delay_ms(period);
					PORTD = 0x0C;
					_delay_ms(period);
				}
				PORTD = 0x09;
    2548:	89 e0       	ldi	r24, 0x09	; 9
    254a:	82 bb       	out	0x12, r24	; 18
    254c:	8f ef       	ldi	r24, 0xFF	; 255
    254e:	91 ee       	ldi	r25, 0xE1	; 225
    2550:	a4 e0       	ldi	r26, 0x04	; 4
    2552:	81 50       	subi	r24, 0x01	; 1
    2554:	90 40       	sbci	r25, 0x00	; 0
    2556:	a0 40       	sbci	r26, 0x00	; 0
    2558:	e1 f7       	brne	.-8      	; 0x2552 <__stack+0x1cf3>
    255a:	00 c0       	rjmp	.+0      	; 0x255c <__stack+0x1cfd>
    255c:	00 00       	nop
    255e:	bf ef       	ldi	r27, 0xFF	; 255
    2560:	c3 ed       	ldi	r28, 0xD3	; 211
    2562:	e0 e3       	ldi	r30, 0x30	; 48
    2564:	b1 50       	subi	r27, 0x01	; 1
    2566:	c0 40       	sbci	r28, 0x00	; 0
    2568:	e0 40       	sbci	r30, 0x00	; 0
    256a:	e1 f7       	brne	.-8      	; 0x2564 <__stack+0x1d05>
    256c:	00 c0       	rjmp	.+0      	; 0x256e <__stack+0x1d0f>
    256e:	00 00       	nop
    2570:	0c 94 2c 3b 	jmp	0x7658	; 0x7658 <__stack+0x6df9>
				break;
			}
		}
		break;
		case 3:
		switch (personNum)
    2574:	8c e0       	ldi	r24, 0x0C	; 12
    2576:	90 e0       	ldi	r25, 0x00	; 0
			case 8:
			{
				/* Rotate Stepper Motor clockwise with Half step sequence */
				for (int i = 0; i < 12; i++)
				{
					PORTD = 0x09;
    2578:	f9 e0       	ldi	r31, 0x09	; 9
					_delay_ms(period);
					PORTD = 0x08;
    257a:	e8 e0       	ldi	r30, 0x08	; 8
					_delay_ms(period);
					PORTD = 0x0C;
    257c:	7c e0       	ldi	r23, 0x0C	; 12
					_delay_ms(period);
					PORTD = 0x04;
    257e:	64 e0       	ldi	r22, 0x04	; 4
					_delay_ms(period);
					PORTD = 0x06;
    2580:	56 e0       	ldi	r21, 0x06	; 6
					_delay_ms(period);
					PORTD = 0x02;
    2582:	42 e0       	ldi	r20, 0x02	; 2
					_delay_ms(period);
					PORTD = 0x03;
    2584:	33 e0       	ldi	r19, 0x03	; 3
					_delay_ms(period);
					PORTD = 0x01;
    2586:	21 e0       	ldi	r18, 0x01	; 1
			case 8:
			{
				/* Rotate Stepper Motor clockwise with Half step sequence */
				for (int i = 0; i < 12; i++)
				{
					PORTD = 0x09;
    2588:	f2 bb       	out	0x12, r31	; 18
    258a:	af ef       	ldi	r26, 0xFF	; 255
    258c:	b1 ee       	ldi	r27, 0xE1	; 225
    258e:	c4 e0       	ldi	r28, 0x04	; 4
    2590:	a1 50       	subi	r26, 0x01	; 1
    2592:	b0 40       	sbci	r27, 0x00	; 0
    2594:	c0 40       	sbci	r28, 0x00	; 0
    2596:	e1 f7       	brne	.-8      	; 0x2590 <__stack+0x1d31>
    2598:	00 c0       	rjmp	.+0      	; 0x259a <__stack+0x1d3b>
    259a:	00 00       	nop
					_delay_ms(period);
					PORTD = 0x08;
    259c:	e2 bb       	out	0x12, r30	; 18
    259e:	af ef       	ldi	r26, 0xFF	; 255
    25a0:	b1 ee       	ldi	r27, 0xE1	; 225
    25a2:	c4 e0       	ldi	r28, 0x04	; 4
    25a4:	a1 50       	subi	r26, 0x01	; 1
    25a6:	b0 40       	sbci	r27, 0x00	; 0
    25a8:	c0 40       	sbci	r28, 0x00	; 0
    25aa:	e1 f7       	brne	.-8      	; 0x25a4 <__stack+0x1d45>
    25ac:	00 c0       	rjmp	.+0      	; 0x25ae <__stack+0x1d4f>
    25ae:	00 00       	nop
					_delay_ms(period);
					PORTD = 0x0C;
    25b0:	72 bb       	out	0x12, r23	; 18
    25b2:	af ef       	ldi	r26, 0xFF	; 255
    25b4:	b1 ee       	ldi	r27, 0xE1	; 225
    25b6:	c4 e0       	ldi	r28, 0x04	; 4
    25b8:	a1 50       	subi	r26, 0x01	; 1
    25ba:	b0 40       	sbci	r27, 0x00	; 0
    25bc:	c0 40       	sbci	r28, 0x00	; 0
    25be:	e1 f7       	brne	.-8      	; 0x25b8 <__stack+0x1d59>
    25c0:	00 c0       	rjmp	.+0      	; 0x25c2 <__stack+0x1d63>
    25c2:	00 00       	nop
					_delay_ms(period);
					PORTD = 0x04;
    25c4:	62 bb       	out	0x12, r22	; 18
    25c6:	af ef       	ldi	r26, 0xFF	; 255
    25c8:	b1 ee       	ldi	r27, 0xE1	; 225
    25ca:	c4 e0       	ldi	r28, 0x04	; 4
    25cc:	a1 50       	subi	r26, 0x01	; 1
    25ce:	b0 40       	sbci	r27, 0x00	; 0
    25d0:	c0 40       	sbci	r28, 0x00	; 0
    25d2:	e1 f7       	brne	.-8      	; 0x25cc <__stack+0x1d6d>
    25d4:	00 c0       	rjmp	.+0      	; 0x25d6 <__stack+0x1d77>
    25d6:	00 00       	nop
					_delay_ms(period);
					PORTD = 0x06;
    25d8:	52 bb       	out	0x12, r21	; 18
    25da:	af ef       	ldi	r26, 0xFF	; 255
    25dc:	b1 ee       	ldi	r27, 0xE1	; 225
    25de:	c4 e0       	ldi	r28, 0x04	; 4
    25e0:	a1 50       	subi	r26, 0x01	; 1
    25e2:	b0 40       	sbci	r27, 0x00	; 0
    25e4:	c0 40       	sbci	r28, 0x00	; 0
    25e6:	e1 f7       	brne	.-8      	; 0x25e0 <__stack+0x1d81>
    25e8:	00 c0       	rjmp	.+0      	; 0x25ea <__stack+0x1d8b>
    25ea:	00 00       	nop
					_delay_ms(period);
					PORTD = 0x02;
    25ec:	42 bb       	out	0x12, r20	; 18
    25ee:	af ef       	ldi	r26, 0xFF	; 255
    25f0:	b1 ee       	ldi	r27, 0xE1	; 225
    25f2:	c4 e0       	ldi	r28, 0x04	; 4
    25f4:	a1 50       	subi	r26, 0x01	; 1
    25f6:	b0 40       	sbci	r27, 0x00	; 0
    25f8:	c0 40       	sbci	r28, 0x00	; 0
    25fa:	e1 f7       	brne	.-8      	; 0x25f4 <__stack+0x1d95>
    25fc:	00 c0       	rjmp	.+0      	; 0x25fe <__stack+0x1d9f>
    25fe:	00 00       	nop
					_delay_ms(period);
					PORTD = 0x03;
    2600:	32 bb       	out	0x12, r19	; 18
    2602:	af ef       	ldi	r26, 0xFF	; 255
    2604:	b1 ee       	ldi	r27, 0xE1	; 225
    2606:	c4 e0       	ldi	r28, 0x04	; 4
    2608:	a1 50       	subi	r26, 0x01	; 1
    260a:	b0 40       	sbci	r27, 0x00	; 0
    260c:	c0 40       	sbci	r28, 0x00	; 0
    260e:	e1 f7       	brne	.-8      	; 0x2608 <__stack+0x1da9>
    2610:	00 c0       	rjmp	.+0      	; 0x2612 <__stack+0x1db3>
    2612:	00 00       	nop
					_delay_ms(period);
					PORTD = 0x01;
    2614:	22 bb       	out	0x12, r18	; 18
    2616:	af ef       	ldi	r26, 0xFF	; 255
    2618:	b1 ee       	ldi	r27, 0xE1	; 225
    261a:	c4 e0       	ldi	r28, 0x04	; 4
    261c:	a1 50       	subi	r26, 0x01	; 1
    261e:	b0 40       	sbci	r27, 0x00	; 0
    2620:	c0 40       	sbci	r28, 0x00	; 0
    2622:	e1 f7       	brne	.-8      	; 0x261c <__stack+0x1dbd>
    2624:	00 c0       	rjmp	.+0      	; 0x2626 <__stack+0x1dc7>
    2626:	00 00       	nop
    2628:	01 97       	sbiw	r24, 0x01	; 1
				break;
			}
			case 8:
			{
				/* Rotate Stepper Motor clockwise with Half step sequence */
				for (int i = 0; i < 12; i++)
    262a:	09 f0       	breq	.+2      	; 0x262e <__stack+0x1dcf>
    262c:	ad cf       	rjmp	.-166    	; 0x2588 <__stack+0x1d29>
					PORTD = 0x03;
					_delay_ms(period);
					PORTD = 0x01;
					_delay_ms(period);
				}
				PORTD = 0x09; /* Last step to initial position */
    262e:	89 e0       	ldi	r24, 0x09	; 9
    2630:	82 bb       	out	0x12, r24	; 18
    2632:	ef ef       	ldi	r30, 0xFF	; 255
    2634:	21 ee       	ldi	r18, 0xE1	; 225
    2636:	64 e0       	ldi	r22, 0x04	; 4
    2638:	e1 50       	subi	r30, 0x01	; 1
    263a:	20 40       	sbci	r18, 0x00	; 0
    263c:	60 40       	sbci	r22, 0x00	; 0
    263e:	e1 f7       	brne	.-8      	; 0x2638 <__stack+0x1dd9>
    2640:	00 c0       	rjmp	.+0      	; 0x2642 <__stack+0x1de3>
    2642:	00 00       	nop
    2644:	7f ef       	ldi	r23, 0xFF	; 255
    2646:	83 ed       	ldi	r24, 0xD3	; 211
    2648:	90 e3       	ldi	r25, 0x30	; 48
    264a:	71 50       	subi	r23, 0x01	; 1
    264c:	80 40       	sbci	r24, 0x00	; 0
    264e:	90 40       	sbci	r25, 0x00	; 0
    2650:	e1 f7       	brne	.-8      	; 0x264a <__stack+0x1deb>
    2652:	00 c0       	rjmp	.+0      	; 0x2654 <__stack+0x1df5>
    2654:	00 00       	nop
    2656:	8c e0       	ldi	r24, 0x0C	; 12
    2658:	90 e0       	ldi	r25, 0x00	; 0
				_delay_ms(1000);

				/* Rotate Stepper Motor Anticlockwise with Full step sequence */
				for (int i = 0; i < 12; i++)
				{
					PORTD = 0x09;
    265a:	59 e0       	ldi	r21, 0x09	; 9
					_delay_ms(period);
					PORTD = 0x03;
    265c:	43 e0       	ldi	r20, 0x03	; 3
					_delay_ms(period);
					PORTD = 0x06;
    265e:	36 e0       	ldi	r19, 0x06	; 6
					_delay_ms(period);
					PORTD = 0x0C;
    2660:	2c e0       	ldi	r18, 0x0C	; 12
				_delay_ms(1000);

				/* Rotate Stepper Motor Anticlockwise with Full step sequence */
				for (int i = 0; i < 12; i++)
				{
					PORTD = 0x09;
    2662:	52 bb       	out	0x12, r21	; 18
    2664:	af ef       	ldi	r26, 0xFF	; 255
    2666:	b1 ee       	ldi	r27, 0xE1	; 225
    2668:	c4 e0       	ldi	r28, 0x04	; 4
    266a:	a1 50       	subi	r26, 0x01	; 1
    266c:	b0 40       	sbci	r27, 0x00	; 0
    266e:	c0 40       	sbci	r28, 0x00	; 0
    2670:	e1 f7       	brne	.-8      	; 0x266a <__stack+0x1e0b>
    2672:	00 c0       	rjmp	.+0      	; 0x2674 <__stack+0x1e15>
    2674:	00 00       	nop
					_delay_ms(period);
					PORTD = 0x03;
    2676:	42 bb       	out	0x12, r20	; 18
    2678:	ef ef       	ldi	r30, 0xFF	; 255
    267a:	61 ee       	ldi	r22, 0xE1	; 225
    267c:	74 e0       	ldi	r23, 0x04	; 4
    267e:	e1 50       	subi	r30, 0x01	; 1
    2680:	60 40       	sbci	r22, 0x00	; 0
    2682:	70 40       	sbci	r23, 0x00	; 0
    2684:	e1 f7       	brne	.-8      	; 0x267e <__stack+0x1e1f>
    2686:	00 c0       	rjmp	.+0      	; 0x2688 <__stack+0x1e29>
    2688:	00 00       	nop
					_delay_ms(period);
					PORTD = 0x06;
    268a:	32 bb       	out	0x12, r19	; 18
    268c:	af ef       	ldi	r26, 0xFF	; 255
    268e:	b1 ee       	ldi	r27, 0xE1	; 225
    2690:	c4 e0       	ldi	r28, 0x04	; 4
    2692:	a1 50       	subi	r26, 0x01	; 1
    2694:	b0 40       	sbci	r27, 0x00	; 0
    2696:	c0 40       	sbci	r28, 0x00	; 0
    2698:	e1 f7       	brne	.-8      	; 0x2692 <__stack+0x1e33>
    269a:	00 c0       	rjmp	.+0      	; 0x269c <__stack+0x1e3d>
    269c:	00 00       	nop
					_delay_ms(period);
					PORTD = 0x0C;
    269e:	22 bb       	out	0x12, r18	; 18
    26a0:	ef ef       	ldi	r30, 0xFF	; 255
    26a2:	61 ee       	ldi	r22, 0xE1	; 225
    26a4:	74 e0       	ldi	r23, 0x04	; 4
    26a6:	e1 50       	subi	r30, 0x01	; 1
    26a8:	60 40       	sbci	r22, 0x00	; 0
    26aa:	70 40       	sbci	r23, 0x00	; 0
    26ac:	e1 f7       	brne	.-8      	; 0x26a6 <__stack+0x1e47>
    26ae:	00 c0       	rjmp	.+0      	; 0x26b0 <__stack+0x1e51>
    26b0:	00 00       	nop
    26b2:	01 97       	sbiw	r24, 0x01	; 1
				PORTD = 0x09; /* Last step to initial position */
				_delay_ms(period);
				_delay_ms(1000);

				/* Rotate Stepper Motor Anticlockwise with Full step sequence */
				for (int i = 0; i < 12; i++)
    26b4:	b1 f6       	brne	.-84     	; 0x2662 <__stack+0x1e03>
					PORTD = 0x06;
					_delay_ms(period);
					PORTD = 0x0C;
					_delay_ms(period);
				}
				PORTD = 0x09;
    26b6:	89 e0       	ldi	r24, 0x09	; 9
    26b8:	82 bb       	out	0x12, r24	; 18
    26ba:	8f ef       	ldi	r24, 0xFF	; 255
    26bc:	91 ee       	ldi	r25, 0xE1	; 225
    26be:	a4 e0       	ldi	r26, 0x04	; 4
    26c0:	81 50       	subi	r24, 0x01	; 1
    26c2:	90 40       	sbci	r25, 0x00	; 0
    26c4:	a0 40       	sbci	r26, 0x00	; 0
    26c6:	e1 f7       	brne	.-8      	; 0x26c0 <__stack+0x1e61>
    26c8:	00 c0       	rjmp	.+0      	; 0x26ca <__stack+0x1e6b>
    26ca:	00 00       	nop
    26cc:	bf ef       	ldi	r27, 0xFF	; 255
    26ce:	c3 ed       	ldi	r28, 0xD3	; 211
    26d0:	e0 e3       	ldi	r30, 0x30	; 48
    26d2:	b1 50       	subi	r27, 0x01	; 1
    26d4:	c0 40       	sbci	r28, 0x00	; 0
    26d6:	e0 40       	sbci	r30, 0x00	; 0
    26d8:	e1 f7       	brne	.-8      	; 0x26d2 <__stack+0x1e73>
    26da:	00 c0       	rjmp	.+0      	; 0x26dc <__stack+0x1e7d>
    26dc:	00 00       	nop
    26de:	0c 94 2c 3b 	jmp	0x7658	; 0x7658 <__stack+0x6df9>
				break;
			}
		}
		break;
		case 3:
		switch (personNum)
    26e2:	8c e0       	ldi	r24, 0x0C	; 12
    26e4:	90 e0       	ldi	r25, 0x00	; 0
			case 9:
			{
				/* Rotate Stepper Motor clockwise with Half step sequence */
				for (int i = 0; i < 12; i++)
				{
					PORTD = 0x09;
    26e6:	f9 e0       	ldi	r31, 0x09	; 9
					_delay_ms(period);
					PORTD = 0x08;
    26e8:	e8 e0       	ldi	r30, 0x08	; 8
					_delay_ms(period);
					PORTD = 0x0C;
    26ea:	7c e0       	ldi	r23, 0x0C	; 12
					_delay_ms(period);
					PORTD = 0x04;
    26ec:	64 e0       	ldi	r22, 0x04	; 4
					_delay_ms(period);
					PORTD = 0x06;
    26ee:	56 e0       	ldi	r21, 0x06	; 6
					_delay_ms(period);
					PORTD = 0x02;
    26f0:	42 e0       	ldi	r20, 0x02	; 2
					_delay_ms(period);
					PORTD = 0x03;
    26f2:	33 e0       	ldi	r19, 0x03	; 3
					_delay_ms(period);
					PORTD = 0x01;
    26f4:	21 e0       	ldi	r18, 0x01	; 1
			case 9:
			{
				/* Rotate Stepper Motor clockwise with Half step sequence */
				for (int i = 0; i < 12; i++)
				{
					PORTD = 0x09;
    26f6:	f2 bb       	out	0x12, r31	; 18
    26f8:	af ef       	ldi	r26, 0xFF	; 255
    26fa:	b1 ee       	ldi	r27, 0xE1	; 225
    26fc:	c4 e0       	ldi	r28, 0x04	; 4
    26fe:	a1 50       	subi	r26, 0x01	; 1
    2700:	b0 40       	sbci	r27, 0x00	; 0
    2702:	c0 40       	sbci	r28, 0x00	; 0
    2704:	e1 f7       	brne	.-8      	; 0x26fe <__stack+0x1e9f>
    2706:	00 c0       	rjmp	.+0      	; 0x2708 <__stack+0x1ea9>
    2708:	00 00       	nop
					_delay_ms(period);
					PORTD = 0x08;
    270a:	e2 bb       	out	0x12, r30	; 18
    270c:	af ef       	ldi	r26, 0xFF	; 255
    270e:	b1 ee       	ldi	r27, 0xE1	; 225
    2710:	c4 e0       	ldi	r28, 0x04	; 4
    2712:	a1 50       	subi	r26, 0x01	; 1
    2714:	b0 40       	sbci	r27, 0x00	; 0
    2716:	c0 40       	sbci	r28, 0x00	; 0
    2718:	e1 f7       	brne	.-8      	; 0x2712 <__stack+0x1eb3>
    271a:	00 c0       	rjmp	.+0      	; 0x271c <__stack+0x1ebd>
    271c:	00 00       	nop
					_delay_ms(period);
					PORTD = 0x0C;
    271e:	72 bb       	out	0x12, r23	; 18
    2720:	af ef       	ldi	r26, 0xFF	; 255
    2722:	b1 ee       	ldi	r27, 0xE1	; 225
    2724:	c4 e0       	ldi	r28, 0x04	; 4
    2726:	a1 50       	subi	r26, 0x01	; 1
    2728:	b0 40       	sbci	r27, 0x00	; 0
    272a:	c0 40       	sbci	r28, 0x00	; 0
    272c:	e1 f7       	brne	.-8      	; 0x2726 <__stack+0x1ec7>
    272e:	00 c0       	rjmp	.+0      	; 0x2730 <__stack+0x1ed1>
    2730:	00 00       	nop
					_delay_ms(period);
					PORTD = 0x04;
    2732:	62 bb       	out	0x12, r22	; 18
    2734:	af ef       	ldi	r26, 0xFF	; 255
    2736:	b1 ee       	ldi	r27, 0xE1	; 225
    2738:	c4 e0       	ldi	r28, 0x04	; 4
    273a:	a1 50       	subi	r26, 0x01	; 1
    273c:	b0 40       	sbci	r27, 0x00	; 0
    273e:	c0 40       	sbci	r28, 0x00	; 0
    2740:	e1 f7       	brne	.-8      	; 0x273a <__stack+0x1edb>
    2742:	00 c0       	rjmp	.+0      	; 0x2744 <__stack+0x1ee5>
    2744:	00 00       	nop
					_delay_ms(period);
					PORTD = 0x06;
    2746:	52 bb       	out	0x12, r21	; 18
    2748:	af ef       	ldi	r26, 0xFF	; 255
    274a:	b1 ee       	ldi	r27, 0xE1	; 225
    274c:	c4 e0       	ldi	r28, 0x04	; 4
    274e:	a1 50       	subi	r26, 0x01	; 1
    2750:	b0 40       	sbci	r27, 0x00	; 0
    2752:	c0 40       	sbci	r28, 0x00	; 0
    2754:	e1 f7       	brne	.-8      	; 0x274e <__stack+0x1eef>
    2756:	00 c0       	rjmp	.+0      	; 0x2758 <__stack+0x1ef9>
    2758:	00 00       	nop
					_delay_ms(period);
					PORTD = 0x02;
    275a:	42 bb       	out	0x12, r20	; 18
    275c:	af ef       	ldi	r26, 0xFF	; 255
    275e:	b1 ee       	ldi	r27, 0xE1	; 225
    2760:	c4 e0       	ldi	r28, 0x04	; 4
    2762:	a1 50       	subi	r26, 0x01	; 1
    2764:	b0 40       	sbci	r27, 0x00	; 0
    2766:	c0 40       	sbci	r28, 0x00	; 0
    2768:	e1 f7       	brne	.-8      	; 0x2762 <__stack+0x1f03>
    276a:	00 c0       	rjmp	.+0      	; 0x276c <__stack+0x1f0d>
    276c:	00 00       	nop
					_delay_ms(period);
					PORTD = 0x03;
    276e:	32 bb       	out	0x12, r19	; 18
    2770:	af ef       	ldi	r26, 0xFF	; 255
    2772:	b1 ee       	ldi	r27, 0xE1	; 225
    2774:	c4 e0       	ldi	r28, 0x04	; 4
    2776:	a1 50       	subi	r26, 0x01	; 1
    2778:	b0 40       	sbci	r27, 0x00	; 0
    277a:	c0 40       	sbci	r28, 0x00	; 0
    277c:	e1 f7       	brne	.-8      	; 0x2776 <__stack+0x1f17>
    277e:	00 c0       	rjmp	.+0      	; 0x2780 <__stack+0x1f21>
    2780:	00 00       	nop
					_delay_ms(period);
					PORTD = 0x01;
    2782:	22 bb       	out	0x12, r18	; 18
    2784:	af ef       	ldi	r26, 0xFF	; 255
    2786:	b1 ee       	ldi	r27, 0xE1	; 225
    2788:	c4 e0       	ldi	r28, 0x04	; 4
    278a:	a1 50       	subi	r26, 0x01	; 1
    278c:	b0 40       	sbci	r27, 0x00	; 0
    278e:	c0 40       	sbci	r28, 0x00	; 0
    2790:	e1 f7       	brne	.-8      	; 0x278a <__stack+0x1f2b>
    2792:	00 c0       	rjmp	.+0      	; 0x2794 <__stack+0x1f35>
    2794:	00 00       	nop
    2796:	01 97       	sbiw	r24, 0x01	; 1
				break;
			}
			case 9:
			{
				/* Rotate Stepper Motor clockwise with Half step sequence */
				for (int i = 0; i < 12; i++)
    2798:	09 f0       	breq	.+2      	; 0x279c <__stack+0x1f3d>
    279a:	ad cf       	rjmp	.-166    	; 0x26f6 <__stack+0x1e97>
					PORTD = 0x03;
					_delay_ms(period);
					PORTD = 0x01;
					_delay_ms(period);
				}
				PORTD = 0x09; /* Last step to initial position */
    279c:	89 e0       	ldi	r24, 0x09	; 9
    279e:	82 bb       	out	0x12, r24	; 18
    27a0:	ef ef       	ldi	r30, 0xFF	; 255
    27a2:	21 ee       	ldi	r18, 0xE1	; 225
    27a4:	64 e0       	ldi	r22, 0x04	; 4
    27a6:	e1 50       	subi	r30, 0x01	; 1
    27a8:	20 40       	sbci	r18, 0x00	; 0
    27aa:	60 40       	sbci	r22, 0x00	; 0
    27ac:	e1 f7       	brne	.-8      	; 0x27a6 <__stack+0x1f47>
    27ae:	00 c0       	rjmp	.+0      	; 0x27b0 <__stack+0x1f51>
    27b0:	00 00       	nop
    27b2:	7f ef       	ldi	r23, 0xFF	; 255
    27b4:	83 ed       	ldi	r24, 0xD3	; 211
    27b6:	90 e3       	ldi	r25, 0x30	; 48
    27b8:	71 50       	subi	r23, 0x01	; 1
    27ba:	80 40       	sbci	r24, 0x00	; 0
    27bc:	90 40       	sbci	r25, 0x00	; 0
    27be:	e1 f7       	brne	.-8      	; 0x27b8 <__stack+0x1f59>
    27c0:	00 c0       	rjmp	.+0      	; 0x27c2 <__stack+0x1f63>
    27c2:	00 00       	nop
    27c4:	8c e0       	ldi	r24, 0x0C	; 12
    27c6:	90 e0       	ldi	r25, 0x00	; 0
				_delay_ms(1000);

				/* Rotate Stepper Motor Anticlockwise with Full step sequence */
				for (int i = 0; i < 12; i++)
				{
					PORTD = 0x09;
    27c8:	59 e0       	ldi	r21, 0x09	; 9
					_delay_ms(period);
					PORTD = 0x03;
    27ca:	43 e0       	ldi	r20, 0x03	; 3
					_delay_ms(period);
					PORTD = 0x06;
    27cc:	36 e0       	ldi	r19, 0x06	; 6
					_delay_ms(period);
					PORTD = 0x0C;
    27ce:	2c e0       	ldi	r18, 0x0C	; 12
				_delay_ms(1000);

				/* Rotate Stepper Motor Anticlockwise with Full step sequence */
				for (int i = 0; i < 12; i++)
				{
					PORTD = 0x09;
    27d0:	52 bb       	out	0x12, r21	; 18
    27d2:	af ef       	ldi	r26, 0xFF	; 255
    27d4:	b1 ee       	ldi	r27, 0xE1	; 225
    27d6:	c4 e0       	ldi	r28, 0x04	; 4
    27d8:	a1 50       	subi	r26, 0x01	; 1
    27da:	b0 40       	sbci	r27, 0x00	; 0
    27dc:	c0 40       	sbci	r28, 0x00	; 0
    27de:	e1 f7       	brne	.-8      	; 0x27d8 <__stack+0x1f79>
    27e0:	00 c0       	rjmp	.+0      	; 0x27e2 <__stack+0x1f83>
    27e2:	00 00       	nop
					_delay_ms(period);
					PORTD = 0x03;
    27e4:	42 bb       	out	0x12, r20	; 18
    27e6:	ef ef       	ldi	r30, 0xFF	; 255
    27e8:	61 ee       	ldi	r22, 0xE1	; 225
    27ea:	74 e0       	ldi	r23, 0x04	; 4
    27ec:	e1 50       	subi	r30, 0x01	; 1
    27ee:	60 40       	sbci	r22, 0x00	; 0
    27f0:	70 40       	sbci	r23, 0x00	; 0
    27f2:	e1 f7       	brne	.-8      	; 0x27ec <__stack+0x1f8d>
    27f4:	00 c0       	rjmp	.+0      	; 0x27f6 <__stack+0x1f97>
    27f6:	00 00       	nop
					_delay_ms(period);
					PORTD = 0x06;
    27f8:	32 bb       	out	0x12, r19	; 18
    27fa:	af ef       	ldi	r26, 0xFF	; 255
    27fc:	b1 ee       	ldi	r27, 0xE1	; 225
    27fe:	c4 e0       	ldi	r28, 0x04	; 4
    2800:	a1 50       	subi	r26, 0x01	; 1
    2802:	b0 40       	sbci	r27, 0x00	; 0
    2804:	c0 40       	sbci	r28, 0x00	; 0
    2806:	e1 f7       	brne	.-8      	; 0x2800 <__stack+0x1fa1>
    2808:	00 c0       	rjmp	.+0      	; 0x280a <__stack+0x1fab>
    280a:	00 00       	nop
					_delay_ms(period);
					PORTD = 0x0C;
    280c:	22 bb       	out	0x12, r18	; 18
    280e:	ef ef       	ldi	r30, 0xFF	; 255
    2810:	61 ee       	ldi	r22, 0xE1	; 225
    2812:	74 e0       	ldi	r23, 0x04	; 4
    2814:	e1 50       	subi	r30, 0x01	; 1
    2816:	60 40       	sbci	r22, 0x00	; 0
    2818:	70 40       	sbci	r23, 0x00	; 0
    281a:	e1 f7       	brne	.-8      	; 0x2814 <__stack+0x1fb5>
    281c:	00 c0       	rjmp	.+0      	; 0x281e <__stack+0x1fbf>
    281e:	00 00       	nop
    2820:	01 97       	sbiw	r24, 0x01	; 1
				PORTD = 0x09; /* Last step to initial position */
				_delay_ms(period);
				_delay_ms(1000);

				/* Rotate Stepper Motor Anticlockwise with Full step sequence */
				for (int i = 0; i < 12; i++)
    2822:	b1 f6       	brne	.-84     	; 0x27d0 <__stack+0x1f71>
					PORTD = 0x06;
					_delay_ms(period);
					PORTD = 0x0C;
					_delay_ms(period);
				}
				PORTD = 0x09;
    2824:	89 e0       	ldi	r24, 0x09	; 9
    2826:	82 bb       	out	0x12, r24	; 18
    2828:	8f ef       	ldi	r24, 0xFF	; 255
    282a:	91 ee       	ldi	r25, 0xE1	; 225
    282c:	a4 e0       	ldi	r26, 0x04	; 4
    282e:	81 50       	subi	r24, 0x01	; 1
    2830:	90 40       	sbci	r25, 0x00	; 0
    2832:	a0 40       	sbci	r26, 0x00	; 0
    2834:	e1 f7       	brne	.-8      	; 0x282e <__stack+0x1fcf>
    2836:	00 c0       	rjmp	.+0      	; 0x2838 <__stack+0x1fd9>
    2838:	00 00       	nop
    283a:	bf ef       	ldi	r27, 0xFF	; 255
    283c:	c3 ed       	ldi	r28, 0xD3	; 211
    283e:	e0 e3       	ldi	r30, 0x30	; 48
    2840:	b1 50       	subi	r27, 0x01	; 1
    2842:	c0 40       	sbci	r28, 0x00	; 0
    2844:	e0 40       	sbci	r30, 0x00	; 0
    2846:	e1 f7       	brne	.-8      	; 0x2840 <__stack+0x1fe1>
    2848:	00 c0       	rjmp	.+0      	; 0x284a <__stack+0x1feb>
    284a:	00 00       	nop
    284c:	0c 94 2c 3b 	jmp	0x7658	; 0x7658 <__stack+0x6df9>
				break;
			}
		}
		break;
		case 4:
		switch (personNum)
    2850:	8c e0       	ldi	r24, 0x0C	; 12
    2852:	90 e0       	ldi	r25, 0x00	; 0
			case 1:
			{
				/* Rotate Stepper Motor clockwise with Half step sequence */
				for (int i = 0; i < 12; i++)
				{
					PORTD = 0x09;
    2854:	f9 e0       	ldi	r31, 0x09	; 9
					_delay_ms(period);
					PORTD = 0x08;
    2856:	e8 e0       	ldi	r30, 0x08	; 8
					_delay_ms(period);
					PORTD = 0x0C;
    2858:	7c e0       	ldi	r23, 0x0C	; 12
					_delay_ms(period);
					PORTD = 0x04;
    285a:	64 e0       	ldi	r22, 0x04	; 4
					_delay_ms(period);
					PORTD = 0x06;
    285c:	56 e0       	ldi	r21, 0x06	; 6
					_delay_ms(period);
					PORTD = 0x02;
    285e:	42 e0       	ldi	r20, 0x02	; 2
					_delay_ms(period);
					PORTD = 0x03;
    2860:	33 e0       	ldi	r19, 0x03	; 3
					_delay_ms(period);
					PORTD = 0x01;
    2862:	21 e0       	ldi	r18, 0x01	; 1
			case 1:
			{
				/* Rotate Stepper Motor clockwise with Half step sequence */
				for (int i = 0; i < 12; i++)
				{
					PORTD = 0x09;
    2864:	f2 bb       	out	0x12, r31	; 18
    2866:	af ef       	ldi	r26, 0xFF	; 255
    2868:	b1 ee       	ldi	r27, 0xE1	; 225
    286a:	c4 e0       	ldi	r28, 0x04	; 4
    286c:	a1 50       	subi	r26, 0x01	; 1
    286e:	b0 40       	sbci	r27, 0x00	; 0
    2870:	c0 40       	sbci	r28, 0x00	; 0
    2872:	e1 f7       	brne	.-8      	; 0x286c <__stack+0x200d>
    2874:	00 c0       	rjmp	.+0      	; 0x2876 <__stack+0x2017>
    2876:	00 00       	nop
					_delay_ms(period);
					PORTD = 0x08;
    2878:	e2 bb       	out	0x12, r30	; 18
    287a:	af ef       	ldi	r26, 0xFF	; 255
    287c:	b1 ee       	ldi	r27, 0xE1	; 225
    287e:	c4 e0       	ldi	r28, 0x04	; 4
    2880:	a1 50       	subi	r26, 0x01	; 1
    2882:	b0 40       	sbci	r27, 0x00	; 0
    2884:	c0 40       	sbci	r28, 0x00	; 0
    2886:	e1 f7       	brne	.-8      	; 0x2880 <__stack+0x2021>
    2888:	00 c0       	rjmp	.+0      	; 0x288a <__stack+0x202b>
    288a:	00 00       	nop
					_delay_ms(period);
					PORTD = 0x0C;
    288c:	72 bb       	out	0x12, r23	; 18
    288e:	af ef       	ldi	r26, 0xFF	; 255
    2890:	b1 ee       	ldi	r27, 0xE1	; 225
    2892:	c4 e0       	ldi	r28, 0x04	; 4
    2894:	a1 50       	subi	r26, 0x01	; 1
    2896:	b0 40       	sbci	r27, 0x00	; 0
    2898:	c0 40       	sbci	r28, 0x00	; 0
    289a:	e1 f7       	brne	.-8      	; 0x2894 <__stack+0x2035>
    289c:	00 c0       	rjmp	.+0      	; 0x289e <__stack+0x203f>
    289e:	00 00       	nop
					_delay_ms(period);
					PORTD = 0x04;
    28a0:	62 bb       	out	0x12, r22	; 18
    28a2:	af ef       	ldi	r26, 0xFF	; 255
    28a4:	b1 ee       	ldi	r27, 0xE1	; 225
    28a6:	c4 e0       	ldi	r28, 0x04	; 4
    28a8:	a1 50       	subi	r26, 0x01	; 1
    28aa:	b0 40       	sbci	r27, 0x00	; 0
    28ac:	c0 40       	sbci	r28, 0x00	; 0
    28ae:	e1 f7       	brne	.-8      	; 0x28a8 <__stack+0x2049>
    28b0:	00 c0       	rjmp	.+0      	; 0x28b2 <__stack+0x2053>
    28b2:	00 00       	nop
					_delay_ms(period);
					PORTD = 0x06;
    28b4:	52 bb       	out	0x12, r21	; 18
    28b6:	af ef       	ldi	r26, 0xFF	; 255
    28b8:	b1 ee       	ldi	r27, 0xE1	; 225
    28ba:	c4 e0       	ldi	r28, 0x04	; 4
    28bc:	a1 50       	subi	r26, 0x01	; 1
    28be:	b0 40       	sbci	r27, 0x00	; 0
    28c0:	c0 40       	sbci	r28, 0x00	; 0
    28c2:	e1 f7       	brne	.-8      	; 0x28bc <__stack+0x205d>
    28c4:	00 c0       	rjmp	.+0      	; 0x28c6 <__stack+0x2067>
    28c6:	00 00       	nop
					_delay_ms(period);
					PORTD = 0x02;
    28c8:	42 bb       	out	0x12, r20	; 18
    28ca:	af ef       	ldi	r26, 0xFF	; 255
    28cc:	b1 ee       	ldi	r27, 0xE1	; 225
    28ce:	c4 e0       	ldi	r28, 0x04	; 4
    28d0:	a1 50       	subi	r26, 0x01	; 1
    28d2:	b0 40       	sbci	r27, 0x00	; 0
    28d4:	c0 40       	sbci	r28, 0x00	; 0
    28d6:	e1 f7       	brne	.-8      	; 0x28d0 <__stack+0x2071>
    28d8:	00 c0       	rjmp	.+0      	; 0x28da <__stack+0x207b>
    28da:	00 00       	nop
					_delay_ms(period);
					PORTD = 0x03;
    28dc:	32 bb       	out	0x12, r19	; 18
    28de:	af ef       	ldi	r26, 0xFF	; 255
    28e0:	b1 ee       	ldi	r27, 0xE1	; 225
    28e2:	c4 e0       	ldi	r28, 0x04	; 4
    28e4:	a1 50       	subi	r26, 0x01	; 1
    28e6:	b0 40       	sbci	r27, 0x00	; 0
    28e8:	c0 40       	sbci	r28, 0x00	; 0
    28ea:	e1 f7       	brne	.-8      	; 0x28e4 <__stack+0x2085>
    28ec:	00 c0       	rjmp	.+0      	; 0x28ee <__stack+0x208f>
    28ee:	00 00       	nop
					_delay_ms(period);
					PORTD = 0x01;
    28f0:	22 bb       	out	0x12, r18	; 18
    28f2:	af ef       	ldi	r26, 0xFF	; 255
    28f4:	b1 ee       	ldi	r27, 0xE1	; 225
    28f6:	c4 e0       	ldi	r28, 0x04	; 4
    28f8:	a1 50       	subi	r26, 0x01	; 1
    28fa:	b0 40       	sbci	r27, 0x00	; 0
    28fc:	c0 40       	sbci	r28, 0x00	; 0
    28fe:	e1 f7       	brne	.-8      	; 0x28f8 <__stack+0x2099>
    2900:	00 c0       	rjmp	.+0      	; 0x2902 <__stack+0x20a3>
    2902:	00 00       	nop
    2904:	01 97       	sbiw	r24, 0x01	; 1
		switch (personNum)
		{
			case 1:
			{
				/* Rotate Stepper Motor clockwise with Half step sequence */
				for (int i = 0; i < 12; i++)
    2906:	09 f0       	breq	.+2      	; 0x290a <__stack+0x20ab>
    2908:	ad cf       	rjmp	.-166    	; 0x2864 <__stack+0x2005>
					PORTD = 0x03;
					_delay_ms(period);
					PORTD = 0x01;
					_delay_ms(period);
				}
				PORTD = 0x09; /* Last step to initial position */
    290a:	89 e0       	ldi	r24, 0x09	; 9
    290c:	82 bb       	out	0x12, r24	; 18
    290e:	ef ef       	ldi	r30, 0xFF	; 255
    2910:	21 ee       	ldi	r18, 0xE1	; 225
    2912:	64 e0       	ldi	r22, 0x04	; 4
    2914:	e1 50       	subi	r30, 0x01	; 1
    2916:	20 40       	sbci	r18, 0x00	; 0
    2918:	60 40       	sbci	r22, 0x00	; 0
    291a:	e1 f7       	brne	.-8      	; 0x2914 <__stack+0x20b5>
    291c:	00 c0       	rjmp	.+0      	; 0x291e <__stack+0x20bf>
    291e:	00 00       	nop
    2920:	7f ef       	ldi	r23, 0xFF	; 255
    2922:	83 ed       	ldi	r24, 0xD3	; 211
    2924:	90 e3       	ldi	r25, 0x30	; 48
    2926:	71 50       	subi	r23, 0x01	; 1
    2928:	80 40       	sbci	r24, 0x00	; 0
    292a:	90 40       	sbci	r25, 0x00	; 0
    292c:	e1 f7       	brne	.-8      	; 0x2926 <__stack+0x20c7>
    292e:	00 c0       	rjmp	.+0      	; 0x2930 <__stack+0x20d1>
    2930:	00 00       	nop
    2932:	8c e0       	ldi	r24, 0x0C	; 12
    2934:	90 e0       	ldi	r25, 0x00	; 0
				_delay_ms(1000);

				/* Rotate Stepper Motor Anticlockwise with Full step sequence */
				for (int i = 0; i < 12; i++)
				{
					PORTD = 0x09;
    2936:	59 e0       	ldi	r21, 0x09	; 9
					_delay_ms(period);
					PORTD = 0x03;
    2938:	43 e0       	ldi	r20, 0x03	; 3
					_delay_ms(period);
					PORTD = 0x06;
    293a:	36 e0       	ldi	r19, 0x06	; 6
					_delay_ms(period);
					PORTD = 0x0C;
    293c:	2c e0       	ldi	r18, 0x0C	; 12
				_delay_ms(1000);

				/* Rotate Stepper Motor Anticlockwise with Full step sequence */
				for (int i = 0; i < 12; i++)
				{
					PORTD = 0x09;
    293e:	52 bb       	out	0x12, r21	; 18
    2940:	af ef       	ldi	r26, 0xFF	; 255
    2942:	b1 ee       	ldi	r27, 0xE1	; 225
    2944:	c4 e0       	ldi	r28, 0x04	; 4
    2946:	a1 50       	subi	r26, 0x01	; 1
    2948:	b0 40       	sbci	r27, 0x00	; 0
    294a:	c0 40       	sbci	r28, 0x00	; 0
    294c:	e1 f7       	brne	.-8      	; 0x2946 <__stack+0x20e7>
    294e:	00 c0       	rjmp	.+0      	; 0x2950 <__stack+0x20f1>
    2950:	00 00       	nop
					_delay_ms(period);
					PORTD = 0x03;
    2952:	42 bb       	out	0x12, r20	; 18
    2954:	ef ef       	ldi	r30, 0xFF	; 255
    2956:	61 ee       	ldi	r22, 0xE1	; 225
    2958:	74 e0       	ldi	r23, 0x04	; 4
    295a:	e1 50       	subi	r30, 0x01	; 1
    295c:	60 40       	sbci	r22, 0x00	; 0
    295e:	70 40       	sbci	r23, 0x00	; 0
    2960:	e1 f7       	brne	.-8      	; 0x295a <__stack+0x20fb>
    2962:	00 c0       	rjmp	.+0      	; 0x2964 <__stack+0x2105>
    2964:	00 00       	nop
					_delay_ms(period);
					PORTD = 0x06;
    2966:	32 bb       	out	0x12, r19	; 18
    2968:	af ef       	ldi	r26, 0xFF	; 255
    296a:	b1 ee       	ldi	r27, 0xE1	; 225
    296c:	c4 e0       	ldi	r28, 0x04	; 4
    296e:	a1 50       	subi	r26, 0x01	; 1
    2970:	b0 40       	sbci	r27, 0x00	; 0
    2972:	c0 40       	sbci	r28, 0x00	; 0
    2974:	e1 f7       	brne	.-8      	; 0x296e <__stack+0x210f>
    2976:	00 c0       	rjmp	.+0      	; 0x2978 <__stack+0x2119>
    2978:	00 00       	nop
					_delay_ms(period);
					PORTD = 0x0C;
    297a:	22 bb       	out	0x12, r18	; 18
    297c:	ef ef       	ldi	r30, 0xFF	; 255
    297e:	61 ee       	ldi	r22, 0xE1	; 225
    2980:	74 e0       	ldi	r23, 0x04	; 4
    2982:	e1 50       	subi	r30, 0x01	; 1
    2984:	60 40       	sbci	r22, 0x00	; 0
    2986:	70 40       	sbci	r23, 0x00	; 0
    2988:	e1 f7       	brne	.-8      	; 0x2982 <__stack+0x2123>
    298a:	00 c0       	rjmp	.+0      	; 0x298c <__stack+0x212d>
    298c:	00 00       	nop
    298e:	01 97       	sbiw	r24, 0x01	; 1
				PORTD = 0x09; /* Last step to initial position */
				_delay_ms(period);
				_delay_ms(1000);

				/* Rotate Stepper Motor Anticlockwise with Full step sequence */
				for (int i = 0; i < 12; i++)
    2990:	b1 f6       	brne	.-84     	; 0x293e <__stack+0x20df>
					PORTD = 0x06;
					_delay_ms(period);
					PORTD = 0x0C;
					_delay_ms(period);
				}
				PORTD = 0x09;
    2992:	89 e0       	ldi	r24, 0x09	; 9
    2994:	82 bb       	out	0x12, r24	; 18
    2996:	8f ef       	ldi	r24, 0xFF	; 255
    2998:	91 ee       	ldi	r25, 0xE1	; 225
    299a:	a4 e0       	ldi	r26, 0x04	; 4
    299c:	81 50       	subi	r24, 0x01	; 1
    299e:	90 40       	sbci	r25, 0x00	; 0
    29a0:	a0 40       	sbci	r26, 0x00	; 0
    29a2:	e1 f7       	brne	.-8      	; 0x299c <__stack+0x213d>
    29a4:	00 c0       	rjmp	.+0      	; 0x29a6 <__stack+0x2147>
    29a6:	00 00       	nop
    29a8:	bf ef       	ldi	r27, 0xFF	; 255
    29aa:	c3 ed       	ldi	r28, 0xD3	; 211
    29ac:	e0 e3       	ldi	r30, 0x30	; 48
    29ae:	b1 50       	subi	r27, 0x01	; 1
    29b0:	c0 40       	sbci	r28, 0x00	; 0
    29b2:	e0 40       	sbci	r30, 0x00	; 0
    29b4:	e1 f7       	brne	.-8      	; 0x29ae <__stack+0x214f>
    29b6:	00 c0       	rjmp	.+0      	; 0x29b8 <__stack+0x2159>
    29b8:	00 00       	nop
    29ba:	0c 94 2c 3b 	jmp	0x7658	; 0x7658 <__stack+0x6df9>
				break;
			}
		}
		break;
		case 4:
		switch (personNum)
    29be:	8c e0       	ldi	r24, 0x0C	; 12
    29c0:	90 e0       	ldi	r25, 0x00	; 0
			case 2:
			{
				/* Rotate Stepper Motor clockwise with Half step sequence */
				for (int i = 0; i < 12; i++)
				{
					PORTD = 0x09;
    29c2:	f9 e0       	ldi	r31, 0x09	; 9
					_delay_ms(period);
					PORTD = 0x08;
    29c4:	e8 e0       	ldi	r30, 0x08	; 8
					_delay_ms(period);
					PORTD = 0x0C;
    29c6:	7c e0       	ldi	r23, 0x0C	; 12
					_delay_ms(period);
					PORTD = 0x04;
    29c8:	64 e0       	ldi	r22, 0x04	; 4
					_delay_ms(period);
					PORTD = 0x06;
    29ca:	56 e0       	ldi	r21, 0x06	; 6
					_delay_ms(period);
					PORTD = 0x02;
    29cc:	42 e0       	ldi	r20, 0x02	; 2
					_delay_ms(period);
					PORTD = 0x03;
    29ce:	33 e0       	ldi	r19, 0x03	; 3
					_delay_ms(period);
					PORTD = 0x01;
    29d0:	21 e0       	ldi	r18, 0x01	; 1
			case 2:
			{
				/* Rotate Stepper Motor clockwise with Half step sequence */
				for (int i = 0; i < 12; i++)
				{
					PORTD = 0x09;
    29d2:	f2 bb       	out	0x12, r31	; 18
    29d4:	af ef       	ldi	r26, 0xFF	; 255
    29d6:	b1 ee       	ldi	r27, 0xE1	; 225
    29d8:	c4 e0       	ldi	r28, 0x04	; 4
    29da:	a1 50       	subi	r26, 0x01	; 1
    29dc:	b0 40       	sbci	r27, 0x00	; 0
    29de:	c0 40       	sbci	r28, 0x00	; 0
    29e0:	e1 f7       	brne	.-8      	; 0x29da <__stack+0x217b>
    29e2:	00 c0       	rjmp	.+0      	; 0x29e4 <__stack+0x2185>
    29e4:	00 00       	nop
					_delay_ms(period);
					PORTD = 0x08;
    29e6:	e2 bb       	out	0x12, r30	; 18
    29e8:	af ef       	ldi	r26, 0xFF	; 255
    29ea:	b1 ee       	ldi	r27, 0xE1	; 225
    29ec:	c4 e0       	ldi	r28, 0x04	; 4
    29ee:	a1 50       	subi	r26, 0x01	; 1
    29f0:	b0 40       	sbci	r27, 0x00	; 0
    29f2:	c0 40       	sbci	r28, 0x00	; 0
    29f4:	e1 f7       	brne	.-8      	; 0x29ee <__stack+0x218f>
    29f6:	00 c0       	rjmp	.+0      	; 0x29f8 <__stack+0x2199>
    29f8:	00 00       	nop
					_delay_ms(period);
					PORTD = 0x0C;
    29fa:	72 bb       	out	0x12, r23	; 18
    29fc:	af ef       	ldi	r26, 0xFF	; 255
    29fe:	b1 ee       	ldi	r27, 0xE1	; 225
    2a00:	c4 e0       	ldi	r28, 0x04	; 4
    2a02:	a1 50       	subi	r26, 0x01	; 1
    2a04:	b0 40       	sbci	r27, 0x00	; 0
    2a06:	c0 40       	sbci	r28, 0x00	; 0
    2a08:	e1 f7       	brne	.-8      	; 0x2a02 <__stack+0x21a3>
    2a0a:	00 c0       	rjmp	.+0      	; 0x2a0c <__stack+0x21ad>
    2a0c:	00 00       	nop
					_delay_ms(period);
					PORTD = 0x04;
    2a0e:	62 bb       	out	0x12, r22	; 18
    2a10:	af ef       	ldi	r26, 0xFF	; 255
    2a12:	b1 ee       	ldi	r27, 0xE1	; 225
    2a14:	c4 e0       	ldi	r28, 0x04	; 4
    2a16:	a1 50       	subi	r26, 0x01	; 1
    2a18:	b0 40       	sbci	r27, 0x00	; 0
    2a1a:	c0 40       	sbci	r28, 0x00	; 0
    2a1c:	e1 f7       	brne	.-8      	; 0x2a16 <__stack+0x21b7>
    2a1e:	00 c0       	rjmp	.+0      	; 0x2a20 <__stack+0x21c1>
    2a20:	00 00       	nop
					_delay_ms(period);
					PORTD = 0x06;
    2a22:	52 bb       	out	0x12, r21	; 18
    2a24:	af ef       	ldi	r26, 0xFF	; 255
    2a26:	b1 ee       	ldi	r27, 0xE1	; 225
    2a28:	c4 e0       	ldi	r28, 0x04	; 4
    2a2a:	a1 50       	subi	r26, 0x01	; 1
    2a2c:	b0 40       	sbci	r27, 0x00	; 0
    2a2e:	c0 40       	sbci	r28, 0x00	; 0
    2a30:	e1 f7       	brne	.-8      	; 0x2a2a <__stack+0x21cb>
    2a32:	00 c0       	rjmp	.+0      	; 0x2a34 <__stack+0x21d5>
    2a34:	00 00       	nop
					_delay_ms(period);
					PORTD = 0x02;
    2a36:	42 bb       	out	0x12, r20	; 18
    2a38:	af ef       	ldi	r26, 0xFF	; 255
    2a3a:	b1 ee       	ldi	r27, 0xE1	; 225
    2a3c:	c4 e0       	ldi	r28, 0x04	; 4
    2a3e:	a1 50       	subi	r26, 0x01	; 1
    2a40:	b0 40       	sbci	r27, 0x00	; 0
    2a42:	c0 40       	sbci	r28, 0x00	; 0
    2a44:	e1 f7       	brne	.-8      	; 0x2a3e <__stack+0x21df>
    2a46:	00 c0       	rjmp	.+0      	; 0x2a48 <__stack+0x21e9>
    2a48:	00 00       	nop
					_delay_ms(period);
					PORTD = 0x03;
    2a4a:	32 bb       	out	0x12, r19	; 18
    2a4c:	af ef       	ldi	r26, 0xFF	; 255
    2a4e:	b1 ee       	ldi	r27, 0xE1	; 225
    2a50:	c4 e0       	ldi	r28, 0x04	; 4
    2a52:	a1 50       	subi	r26, 0x01	; 1
    2a54:	b0 40       	sbci	r27, 0x00	; 0
    2a56:	c0 40       	sbci	r28, 0x00	; 0
    2a58:	e1 f7       	brne	.-8      	; 0x2a52 <__stack+0x21f3>
    2a5a:	00 c0       	rjmp	.+0      	; 0x2a5c <__stack+0x21fd>
    2a5c:	00 00       	nop
					_delay_ms(period);
					PORTD = 0x01;
    2a5e:	22 bb       	out	0x12, r18	; 18
    2a60:	af ef       	ldi	r26, 0xFF	; 255
    2a62:	b1 ee       	ldi	r27, 0xE1	; 225
    2a64:	c4 e0       	ldi	r28, 0x04	; 4
    2a66:	a1 50       	subi	r26, 0x01	; 1
    2a68:	b0 40       	sbci	r27, 0x00	; 0
    2a6a:	c0 40       	sbci	r28, 0x00	; 0
    2a6c:	e1 f7       	brne	.-8      	; 0x2a66 <__stack+0x2207>
    2a6e:	00 c0       	rjmp	.+0      	; 0x2a70 <__stack+0x2211>
    2a70:	00 00       	nop
    2a72:	01 97       	sbiw	r24, 0x01	; 1
				break;
			}
			case 2:
			{
				/* Rotate Stepper Motor clockwise with Half step sequence */
				for (int i = 0; i < 12; i++)
    2a74:	09 f0       	breq	.+2      	; 0x2a78 <__stack+0x2219>
    2a76:	ad cf       	rjmp	.-166    	; 0x29d2 <__stack+0x2173>
					PORTD = 0x03;
					_delay_ms(period);
					PORTD = 0x01;
					_delay_ms(period);
				}
				PORTD = 0x09; /* Last step to initial position */
    2a78:	89 e0       	ldi	r24, 0x09	; 9
    2a7a:	82 bb       	out	0x12, r24	; 18
    2a7c:	ef ef       	ldi	r30, 0xFF	; 255
    2a7e:	21 ee       	ldi	r18, 0xE1	; 225
    2a80:	64 e0       	ldi	r22, 0x04	; 4
    2a82:	e1 50       	subi	r30, 0x01	; 1
    2a84:	20 40       	sbci	r18, 0x00	; 0
    2a86:	60 40       	sbci	r22, 0x00	; 0
    2a88:	e1 f7       	brne	.-8      	; 0x2a82 <__stack+0x2223>
    2a8a:	00 c0       	rjmp	.+0      	; 0x2a8c <__stack+0x222d>
    2a8c:	00 00       	nop
    2a8e:	7f ef       	ldi	r23, 0xFF	; 255
    2a90:	83 ed       	ldi	r24, 0xD3	; 211
    2a92:	90 e3       	ldi	r25, 0x30	; 48
    2a94:	71 50       	subi	r23, 0x01	; 1
    2a96:	80 40       	sbci	r24, 0x00	; 0
    2a98:	90 40       	sbci	r25, 0x00	; 0
    2a9a:	e1 f7       	brne	.-8      	; 0x2a94 <__stack+0x2235>
    2a9c:	00 c0       	rjmp	.+0      	; 0x2a9e <__stack+0x223f>
    2a9e:	00 00       	nop
    2aa0:	8c e0       	ldi	r24, 0x0C	; 12
    2aa2:	90 e0       	ldi	r25, 0x00	; 0
				_delay_ms(1000);

				/* Rotate Stepper Motor Anticlockwise with Full step sequence */
				for (int i = 0; i < 12; i++)
				{
					PORTD = 0x09;
    2aa4:	59 e0       	ldi	r21, 0x09	; 9
					_delay_ms(period);
					PORTD = 0x03;
    2aa6:	43 e0       	ldi	r20, 0x03	; 3
					_delay_ms(period);
					PORTD = 0x06;
    2aa8:	36 e0       	ldi	r19, 0x06	; 6
					_delay_ms(period);
					PORTD = 0x0C;
    2aaa:	2c e0       	ldi	r18, 0x0C	; 12
				_delay_ms(1000);

				/* Rotate Stepper Motor Anticlockwise with Full step sequence */
				for (int i = 0; i < 12; i++)
				{
					PORTD = 0x09;
    2aac:	52 bb       	out	0x12, r21	; 18
    2aae:	af ef       	ldi	r26, 0xFF	; 255
    2ab0:	b1 ee       	ldi	r27, 0xE1	; 225
    2ab2:	c4 e0       	ldi	r28, 0x04	; 4
    2ab4:	a1 50       	subi	r26, 0x01	; 1
    2ab6:	b0 40       	sbci	r27, 0x00	; 0
    2ab8:	c0 40       	sbci	r28, 0x00	; 0
    2aba:	e1 f7       	brne	.-8      	; 0x2ab4 <__stack+0x2255>
    2abc:	00 c0       	rjmp	.+0      	; 0x2abe <__stack+0x225f>
    2abe:	00 00       	nop
					_delay_ms(period);
					PORTD = 0x03;
    2ac0:	42 bb       	out	0x12, r20	; 18
    2ac2:	ef ef       	ldi	r30, 0xFF	; 255
    2ac4:	61 ee       	ldi	r22, 0xE1	; 225
    2ac6:	74 e0       	ldi	r23, 0x04	; 4
    2ac8:	e1 50       	subi	r30, 0x01	; 1
    2aca:	60 40       	sbci	r22, 0x00	; 0
    2acc:	70 40       	sbci	r23, 0x00	; 0
    2ace:	e1 f7       	brne	.-8      	; 0x2ac8 <__stack+0x2269>
    2ad0:	00 c0       	rjmp	.+0      	; 0x2ad2 <__stack+0x2273>
    2ad2:	00 00       	nop
					_delay_ms(period);
					PORTD = 0x06;
    2ad4:	32 bb       	out	0x12, r19	; 18
    2ad6:	af ef       	ldi	r26, 0xFF	; 255
    2ad8:	b1 ee       	ldi	r27, 0xE1	; 225
    2ada:	c4 e0       	ldi	r28, 0x04	; 4
    2adc:	a1 50       	subi	r26, 0x01	; 1
    2ade:	b0 40       	sbci	r27, 0x00	; 0
    2ae0:	c0 40       	sbci	r28, 0x00	; 0
    2ae2:	e1 f7       	brne	.-8      	; 0x2adc <__stack+0x227d>
    2ae4:	00 c0       	rjmp	.+0      	; 0x2ae6 <__stack+0x2287>
    2ae6:	00 00       	nop
					_delay_ms(period);
					PORTD = 0x0C;
    2ae8:	22 bb       	out	0x12, r18	; 18
    2aea:	ef ef       	ldi	r30, 0xFF	; 255
    2aec:	61 ee       	ldi	r22, 0xE1	; 225
    2aee:	74 e0       	ldi	r23, 0x04	; 4
    2af0:	e1 50       	subi	r30, 0x01	; 1
    2af2:	60 40       	sbci	r22, 0x00	; 0
    2af4:	70 40       	sbci	r23, 0x00	; 0
    2af6:	e1 f7       	brne	.-8      	; 0x2af0 <__stack+0x2291>
    2af8:	00 c0       	rjmp	.+0      	; 0x2afa <__stack+0x229b>
    2afa:	00 00       	nop
    2afc:	01 97       	sbiw	r24, 0x01	; 1
				PORTD = 0x09; /* Last step to initial position */
				_delay_ms(period);
				_delay_ms(1000);

				/* Rotate Stepper Motor Anticlockwise with Full step sequence */
				for (int i = 0; i < 12; i++)
    2afe:	b1 f6       	brne	.-84     	; 0x2aac <__stack+0x224d>
					PORTD = 0x06;
					_delay_ms(period);
					PORTD = 0x0C;
					_delay_ms(period);
				}
				PORTD = 0x09;
    2b00:	89 e0       	ldi	r24, 0x09	; 9
    2b02:	82 bb       	out	0x12, r24	; 18
    2b04:	8f ef       	ldi	r24, 0xFF	; 255
    2b06:	91 ee       	ldi	r25, 0xE1	; 225
    2b08:	a4 e0       	ldi	r26, 0x04	; 4
    2b0a:	81 50       	subi	r24, 0x01	; 1
    2b0c:	90 40       	sbci	r25, 0x00	; 0
    2b0e:	a0 40       	sbci	r26, 0x00	; 0
    2b10:	e1 f7       	brne	.-8      	; 0x2b0a <__stack+0x22ab>
    2b12:	00 c0       	rjmp	.+0      	; 0x2b14 <__stack+0x22b5>
    2b14:	00 00       	nop
    2b16:	bf ef       	ldi	r27, 0xFF	; 255
    2b18:	c3 ed       	ldi	r28, 0xD3	; 211
    2b1a:	e0 e3       	ldi	r30, 0x30	; 48
    2b1c:	b1 50       	subi	r27, 0x01	; 1
    2b1e:	c0 40       	sbci	r28, 0x00	; 0
    2b20:	e0 40       	sbci	r30, 0x00	; 0
    2b22:	e1 f7       	brne	.-8      	; 0x2b1c <__stack+0x22bd>
    2b24:	00 c0       	rjmp	.+0      	; 0x2b26 <__stack+0x22c7>
    2b26:	00 00       	nop
    2b28:	0c 94 2c 3b 	jmp	0x7658	; 0x7658 <__stack+0x6df9>
				break;
			}
		}
		break;
		case 4:
		switch (personNum)
    2b2c:	8c e0       	ldi	r24, 0x0C	; 12
    2b2e:	90 e0       	ldi	r25, 0x00	; 0
			case 3:
			{
				/* Rotate Stepper Motor clockwise with Half step sequence */
				for (int i = 0; i < 12; i++)
				{
					PORTD = 0x09;
    2b30:	f9 e0       	ldi	r31, 0x09	; 9
					_delay_ms(period);
					PORTD = 0x08;
    2b32:	e8 e0       	ldi	r30, 0x08	; 8
					_delay_ms(period);
					PORTD = 0x0C;
    2b34:	7c e0       	ldi	r23, 0x0C	; 12
					_delay_ms(period);
					PORTD = 0x04;
    2b36:	64 e0       	ldi	r22, 0x04	; 4
					_delay_ms(period);
					PORTD = 0x06;
    2b38:	56 e0       	ldi	r21, 0x06	; 6
					_delay_ms(period);
					PORTD = 0x02;
    2b3a:	42 e0       	ldi	r20, 0x02	; 2
					_delay_ms(period);
					PORTD = 0x03;
    2b3c:	33 e0       	ldi	r19, 0x03	; 3
					_delay_ms(period);
					PORTD = 0x01;
    2b3e:	21 e0       	ldi	r18, 0x01	; 1
			case 3:
			{
				/* Rotate Stepper Motor clockwise with Half step sequence */
				for (int i = 0; i < 12; i++)
				{
					PORTD = 0x09;
    2b40:	f2 bb       	out	0x12, r31	; 18
    2b42:	af ef       	ldi	r26, 0xFF	; 255
    2b44:	b1 ee       	ldi	r27, 0xE1	; 225
    2b46:	c4 e0       	ldi	r28, 0x04	; 4
    2b48:	a1 50       	subi	r26, 0x01	; 1
    2b4a:	b0 40       	sbci	r27, 0x00	; 0
    2b4c:	c0 40       	sbci	r28, 0x00	; 0
    2b4e:	e1 f7       	brne	.-8      	; 0x2b48 <__stack+0x22e9>
    2b50:	00 c0       	rjmp	.+0      	; 0x2b52 <__stack+0x22f3>
    2b52:	00 00       	nop
					_delay_ms(period);
					PORTD = 0x08;
    2b54:	e2 bb       	out	0x12, r30	; 18
    2b56:	af ef       	ldi	r26, 0xFF	; 255
    2b58:	b1 ee       	ldi	r27, 0xE1	; 225
    2b5a:	c4 e0       	ldi	r28, 0x04	; 4
    2b5c:	a1 50       	subi	r26, 0x01	; 1
    2b5e:	b0 40       	sbci	r27, 0x00	; 0
    2b60:	c0 40       	sbci	r28, 0x00	; 0
    2b62:	e1 f7       	brne	.-8      	; 0x2b5c <__stack+0x22fd>
    2b64:	00 c0       	rjmp	.+0      	; 0x2b66 <__stack+0x2307>
    2b66:	00 00       	nop
					_delay_ms(period);
					PORTD = 0x0C;
    2b68:	72 bb       	out	0x12, r23	; 18
    2b6a:	af ef       	ldi	r26, 0xFF	; 255
    2b6c:	b1 ee       	ldi	r27, 0xE1	; 225
    2b6e:	c4 e0       	ldi	r28, 0x04	; 4
    2b70:	a1 50       	subi	r26, 0x01	; 1
    2b72:	b0 40       	sbci	r27, 0x00	; 0
    2b74:	c0 40       	sbci	r28, 0x00	; 0
    2b76:	e1 f7       	brne	.-8      	; 0x2b70 <__stack+0x2311>
    2b78:	00 c0       	rjmp	.+0      	; 0x2b7a <__stack+0x231b>
    2b7a:	00 00       	nop
					_delay_ms(period);
					PORTD = 0x04;
    2b7c:	62 bb       	out	0x12, r22	; 18
    2b7e:	af ef       	ldi	r26, 0xFF	; 255
    2b80:	b1 ee       	ldi	r27, 0xE1	; 225
    2b82:	c4 e0       	ldi	r28, 0x04	; 4
    2b84:	a1 50       	subi	r26, 0x01	; 1
    2b86:	b0 40       	sbci	r27, 0x00	; 0
    2b88:	c0 40       	sbci	r28, 0x00	; 0
    2b8a:	e1 f7       	brne	.-8      	; 0x2b84 <__stack+0x2325>
    2b8c:	00 c0       	rjmp	.+0      	; 0x2b8e <__stack+0x232f>
    2b8e:	00 00       	nop
					_delay_ms(period);
					PORTD = 0x06;
    2b90:	52 bb       	out	0x12, r21	; 18
    2b92:	af ef       	ldi	r26, 0xFF	; 255
    2b94:	b1 ee       	ldi	r27, 0xE1	; 225
    2b96:	c4 e0       	ldi	r28, 0x04	; 4
    2b98:	a1 50       	subi	r26, 0x01	; 1
    2b9a:	b0 40       	sbci	r27, 0x00	; 0
    2b9c:	c0 40       	sbci	r28, 0x00	; 0
    2b9e:	e1 f7       	brne	.-8      	; 0x2b98 <__stack+0x2339>
    2ba0:	00 c0       	rjmp	.+0      	; 0x2ba2 <__stack+0x2343>
    2ba2:	00 00       	nop
					_delay_ms(period);
					PORTD = 0x02;
    2ba4:	42 bb       	out	0x12, r20	; 18
    2ba6:	af ef       	ldi	r26, 0xFF	; 255
    2ba8:	b1 ee       	ldi	r27, 0xE1	; 225
    2baa:	c4 e0       	ldi	r28, 0x04	; 4
    2bac:	a1 50       	subi	r26, 0x01	; 1
    2bae:	b0 40       	sbci	r27, 0x00	; 0
    2bb0:	c0 40       	sbci	r28, 0x00	; 0
    2bb2:	e1 f7       	brne	.-8      	; 0x2bac <__stack+0x234d>
    2bb4:	00 c0       	rjmp	.+0      	; 0x2bb6 <__stack+0x2357>
    2bb6:	00 00       	nop
					_delay_ms(period);
					PORTD = 0x03;
    2bb8:	32 bb       	out	0x12, r19	; 18
    2bba:	af ef       	ldi	r26, 0xFF	; 255
    2bbc:	b1 ee       	ldi	r27, 0xE1	; 225
    2bbe:	c4 e0       	ldi	r28, 0x04	; 4
    2bc0:	a1 50       	subi	r26, 0x01	; 1
    2bc2:	b0 40       	sbci	r27, 0x00	; 0
    2bc4:	c0 40       	sbci	r28, 0x00	; 0
    2bc6:	e1 f7       	brne	.-8      	; 0x2bc0 <__stack+0x2361>
    2bc8:	00 c0       	rjmp	.+0      	; 0x2bca <__stack+0x236b>
    2bca:	00 00       	nop
					_delay_ms(period);
					PORTD = 0x01;
    2bcc:	22 bb       	out	0x12, r18	; 18
    2bce:	af ef       	ldi	r26, 0xFF	; 255
    2bd0:	b1 ee       	ldi	r27, 0xE1	; 225
    2bd2:	c4 e0       	ldi	r28, 0x04	; 4
    2bd4:	a1 50       	subi	r26, 0x01	; 1
    2bd6:	b0 40       	sbci	r27, 0x00	; 0
    2bd8:	c0 40       	sbci	r28, 0x00	; 0
    2bda:	e1 f7       	brne	.-8      	; 0x2bd4 <__stack+0x2375>
    2bdc:	00 c0       	rjmp	.+0      	; 0x2bde <__stack+0x237f>
    2bde:	00 00       	nop
    2be0:	01 97       	sbiw	r24, 0x01	; 1
				break;
			}
			case 3:
			{
				/* Rotate Stepper Motor clockwise with Half step sequence */
				for (int i = 0; i < 12; i++)
    2be2:	09 f0       	breq	.+2      	; 0x2be6 <__stack+0x2387>
    2be4:	ad cf       	rjmp	.-166    	; 0x2b40 <__stack+0x22e1>
					PORTD = 0x03;
					_delay_ms(period);
					PORTD = 0x01;
					_delay_ms(period);
				}
				PORTD = 0x09; /* Last step to initial position */
    2be6:	89 e0       	ldi	r24, 0x09	; 9
    2be8:	82 bb       	out	0x12, r24	; 18
    2bea:	ef ef       	ldi	r30, 0xFF	; 255
    2bec:	21 ee       	ldi	r18, 0xE1	; 225
    2bee:	64 e0       	ldi	r22, 0x04	; 4
    2bf0:	e1 50       	subi	r30, 0x01	; 1
    2bf2:	20 40       	sbci	r18, 0x00	; 0
    2bf4:	60 40       	sbci	r22, 0x00	; 0
    2bf6:	e1 f7       	brne	.-8      	; 0x2bf0 <__stack+0x2391>
    2bf8:	00 c0       	rjmp	.+0      	; 0x2bfa <__stack+0x239b>
    2bfa:	00 00       	nop
    2bfc:	7f ef       	ldi	r23, 0xFF	; 255
    2bfe:	83 ed       	ldi	r24, 0xD3	; 211
    2c00:	90 e3       	ldi	r25, 0x30	; 48
    2c02:	71 50       	subi	r23, 0x01	; 1
    2c04:	80 40       	sbci	r24, 0x00	; 0
    2c06:	90 40       	sbci	r25, 0x00	; 0
    2c08:	e1 f7       	brne	.-8      	; 0x2c02 <__stack+0x23a3>
    2c0a:	00 c0       	rjmp	.+0      	; 0x2c0c <__stack+0x23ad>
    2c0c:	00 00       	nop
    2c0e:	8c e0       	ldi	r24, 0x0C	; 12
    2c10:	90 e0       	ldi	r25, 0x00	; 0
				_delay_ms(1000);

				/* Rotate Stepper Motor Anticlockwise with Full step sequence */
				for (int i = 0; i < 12; i++)
				{
					PORTD = 0x09;
    2c12:	59 e0       	ldi	r21, 0x09	; 9
					_delay_ms(period);
					PORTD = 0x03;
    2c14:	43 e0       	ldi	r20, 0x03	; 3
					_delay_ms(period);
					PORTD = 0x06;
    2c16:	36 e0       	ldi	r19, 0x06	; 6
					_delay_ms(period);
					PORTD = 0x0C;
    2c18:	2c e0       	ldi	r18, 0x0C	; 12
				_delay_ms(1000);

				/* Rotate Stepper Motor Anticlockwise with Full step sequence */
				for (int i = 0; i < 12; i++)
				{
					PORTD = 0x09;
    2c1a:	52 bb       	out	0x12, r21	; 18
    2c1c:	af ef       	ldi	r26, 0xFF	; 255
    2c1e:	b1 ee       	ldi	r27, 0xE1	; 225
    2c20:	c4 e0       	ldi	r28, 0x04	; 4
    2c22:	a1 50       	subi	r26, 0x01	; 1
    2c24:	b0 40       	sbci	r27, 0x00	; 0
    2c26:	c0 40       	sbci	r28, 0x00	; 0
    2c28:	e1 f7       	brne	.-8      	; 0x2c22 <__stack+0x23c3>
    2c2a:	00 c0       	rjmp	.+0      	; 0x2c2c <__stack+0x23cd>
    2c2c:	00 00       	nop
					_delay_ms(period);
					PORTD = 0x03;
    2c2e:	42 bb       	out	0x12, r20	; 18
    2c30:	ef ef       	ldi	r30, 0xFF	; 255
    2c32:	61 ee       	ldi	r22, 0xE1	; 225
    2c34:	74 e0       	ldi	r23, 0x04	; 4
    2c36:	e1 50       	subi	r30, 0x01	; 1
    2c38:	60 40       	sbci	r22, 0x00	; 0
    2c3a:	70 40       	sbci	r23, 0x00	; 0
    2c3c:	e1 f7       	brne	.-8      	; 0x2c36 <__stack+0x23d7>
    2c3e:	00 c0       	rjmp	.+0      	; 0x2c40 <__stack+0x23e1>
    2c40:	00 00       	nop
					_delay_ms(period);
					PORTD = 0x06;
    2c42:	32 bb       	out	0x12, r19	; 18
    2c44:	af ef       	ldi	r26, 0xFF	; 255
    2c46:	b1 ee       	ldi	r27, 0xE1	; 225
    2c48:	c4 e0       	ldi	r28, 0x04	; 4
    2c4a:	a1 50       	subi	r26, 0x01	; 1
    2c4c:	b0 40       	sbci	r27, 0x00	; 0
    2c4e:	c0 40       	sbci	r28, 0x00	; 0
    2c50:	e1 f7       	brne	.-8      	; 0x2c4a <__stack+0x23eb>
    2c52:	00 c0       	rjmp	.+0      	; 0x2c54 <__stack+0x23f5>
    2c54:	00 00       	nop
					_delay_ms(period);
					PORTD = 0x0C;
    2c56:	22 bb       	out	0x12, r18	; 18
    2c58:	ef ef       	ldi	r30, 0xFF	; 255
    2c5a:	61 ee       	ldi	r22, 0xE1	; 225
    2c5c:	74 e0       	ldi	r23, 0x04	; 4
    2c5e:	e1 50       	subi	r30, 0x01	; 1
    2c60:	60 40       	sbci	r22, 0x00	; 0
    2c62:	70 40       	sbci	r23, 0x00	; 0
    2c64:	e1 f7       	brne	.-8      	; 0x2c5e <__stack+0x23ff>
    2c66:	00 c0       	rjmp	.+0      	; 0x2c68 <__stack+0x2409>
    2c68:	00 00       	nop
    2c6a:	01 97       	sbiw	r24, 0x01	; 1
				PORTD = 0x09; /* Last step to initial position */
				_delay_ms(period);
				_delay_ms(1000);

				/* Rotate Stepper Motor Anticlockwise with Full step sequence */
				for (int i = 0; i < 12; i++)
    2c6c:	b1 f6       	brne	.-84     	; 0x2c1a <__stack+0x23bb>
					PORTD = 0x06;
					_delay_ms(period);
					PORTD = 0x0C;
					_delay_ms(period);
				}
				PORTD = 0x09;
    2c6e:	89 e0       	ldi	r24, 0x09	; 9
    2c70:	82 bb       	out	0x12, r24	; 18
    2c72:	8f ef       	ldi	r24, 0xFF	; 255
    2c74:	91 ee       	ldi	r25, 0xE1	; 225
    2c76:	a4 e0       	ldi	r26, 0x04	; 4
    2c78:	81 50       	subi	r24, 0x01	; 1
    2c7a:	90 40       	sbci	r25, 0x00	; 0
    2c7c:	a0 40       	sbci	r26, 0x00	; 0
    2c7e:	e1 f7       	brne	.-8      	; 0x2c78 <__stack+0x2419>
    2c80:	00 c0       	rjmp	.+0      	; 0x2c82 <__stack+0x2423>
    2c82:	00 00       	nop
    2c84:	bf ef       	ldi	r27, 0xFF	; 255
    2c86:	c3 ed       	ldi	r28, 0xD3	; 211
    2c88:	e0 e3       	ldi	r30, 0x30	; 48
    2c8a:	b1 50       	subi	r27, 0x01	; 1
    2c8c:	c0 40       	sbci	r28, 0x00	; 0
    2c8e:	e0 40       	sbci	r30, 0x00	; 0
    2c90:	e1 f7       	brne	.-8      	; 0x2c8a <__stack+0x242b>
    2c92:	00 c0       	rjmp	.+0      	; 0x2c94 <__stack+0x2435>
    2c94:	00 00       	nop
    2c96:	0c 94 2c 3b 	jmp	0x7658	; 0x7658 <__stack+0x6df9>
				break;
			}
		}
		break;
		case 4:
		switch (personNum)
    2c9a:	8c e0       	ldi	r24, 0x0C	; 12
    2c9c:	90 e0       	ldi	r25, 0x00	; 0
			case 4:
			{
				/* Rotate Stepper Motor clockwise with Half step sequence */
				for (int i = 0; i < 12; i++)
				{
					PORTD = 0x09;
    2c9e:	f9 e0       	ldi	r31, 0x09	; 9
					_delay_ms(period);
					PORTD = 0x08;
    2ca0:	e8 e0       	ldi	r30, 0x08	; 8
					_delay_ms(period);
					PORTD = 0x0C;
    2ca2:	7c e0       	ldi	r23, 0x0C	; 12
					_delay_ms(period);
					PORTD = 0x04;
    2ca4:	64 e0       	ldi	r22, 0x04	; 4
					_delay_ms(period);
					PORTD = 0x06;
    2ca6:	56 e0       	ldi	r21, 0x06	; 6
					_delay_ms(period);
					PORTD = 0x02;
    2ca8:	42 e0       	ldi	r20, 0x02	; 2
					_delay_ms(period);
					PORTD = 0x03;
    2caa:	33 e0       	ldi	r19, 0x03	; 3
					_delay_ms(period);
					PORTD = 0x01;
    2cac:	21 e0       	ldi	r18, 0x01	; 1
			case 4:
			{
				/* Rotate Stepper Motor clockwise with Half step sequence */
				for (int i = 0; i < 12; i++)
				{
					PORTD = 0x09;
    2cae:	f2 bb       	out	0x12, r31	; 18
    2cb0:	af ef       	ldi	r26, 0xFF	; 255
    2cb2:	b1 ee       	ldi	r27, 0xE1	; 225
    2cb4:	c4 e0       	ldi	r28, 0x04	; 4
    2cb6:	a1 50       	subi	r26, 0x01	; 1
    2cb8:	b0 40       	sbci	r27, 0x00	; 0
    2cba:	c0 40       	sbci	r28, 0x00	; 0
    2cbc:	e1 f7       	brne	.-8      	; 0x2cb6 <__stack+0x2457>
    2cbe:	00 c0       	rjmp	.+0      	; 0x2cc0 <__stack+0x2461>
    2cc0:	00 00       	nop
					_delay_ms(period);
					PORTD = 0x08;
    2cc2:	e2 bb       	out	0x12, r30	; 18
    2cc4:	af ef       	ldi	r26, 0xFF	; 255
    2cc6:	b1 ee       	ldi	r27, 0xE1	; 225
    2cc8:	c4 e0       	ldi	r28, 0x04	; 4
    2cca:	a1 50       	subi	r26, 0x01	; 1
    2ccc:	b0 40       	sbci	r27, 0x00	; 0
    2cce:	c0 40       	sbci	r28, 0x00	; 0
    2cd0:	e1 f7       	brne	.-8      	; 0x2cca <__stack+0x246b>
    2cd2:	00 c0       	rjmp	.+0      	; 0x2cd4 <__stack+0x2475>
    2cd4:	00 00       	nop
					_delay_ms(period);
					PORTD = 0x0C;
    2cd6:	72 bb       	out	0x12, r23	; 18
    2cd8:	af ef       	ldi	r26, 0xFF	; 255
    2cda:	b1 ee       	ldi	r27, 0xE1	; 225
    2cdc:	c4 e0       	ldi	r28, 0x04	; 4
    2cde:	a1 50       	subi	r26, 0x01	; 1
    2ce0:	b0 40       	sbci	r27, 0x00	; 0
    2ce2:	c0 40       	sbci	r28, 0x00	; 0
    2ce4:	e1 f7       	brne	.-8      	; 0x2cde <__stack+0x247f>
    2ce6:	00 c0       	rjmp	.+0      	; 0x2ce8 <__stack+0x2489>
    2ce8:	00 00       	nop
					_delay_ms(period);
					PORTD = 0x04;
    2cea:	62 bb       	out	0x12, r22	; 18
    2cec:	af ef       	ldi	r26, 0xFF	; 255
    2cee:	b1 ee       	ldi	r27, 0xE1	; 225
    2cf0:	c4 e0       	ldi	r28, 0x04	; 4
    2cf2:	a1 50       	subi	r26, 0x01	; 1
    2cf4:	b0 40       	sbci	r27, 0x00	; 0
    2cf6:	c0 40       	sbci	r28, 0x00	; 0
    2cf8:	e1 f7       	brne	.-8      	; 0x2cf2 <__stack+0x2493>
    2cfa:	00 c0       	rjmp	.+0      	; 0x2cfc <__stack+0x249d>
    2cfc:	00 00       	nop
					_delay_ms(period);
					PORTD = 0x06;
    2cfe:	52 bb       	out	0x12, r21	; 18
    2d00:	af ef       	ldi	r26, 0xFF	; 255
    2d02:	b1 ee       	ldi	r27, 0xE1	; 225
    2d04:	c4 e0       	ldi	r28, 0x04	; 4
    2d06:	a1 50       	subi	r26, 0x01	; 1
    2d08:	b0 40       	sbci	r27, 0x00	; 0
    2d0a:	c0 40       	sbci	r28, 0x00	; 0
    2d0c:	e1 f7       	brne	.-8      	; 0x2d06 <__stack+0x24a7>
    2d0e:	00 c0       	rjmp	.+0      	; 0x2d10 <__stack+0x24b1>
    2d10:	00 00       	nop
					_delay_ms(period);
					PORTD = 0x02;
    2d12:	42 bb       	out	0x12, r20	; 18
    2d14:	af ef       	ldi	r26, 0xFF	; 255
    2d16:	b1 ee       	ldi	r27, 0xE1	; 225
    2d18:	c4 e0       	ldi	r28, 0x04	; 4
    2d1a:	a1 50       	subi	r26, 0x01	; 1
    2d1c:	b0 40       	sbci	r27, 0x00	; 0
    2d1e:	c0 40       	sbci	r28, 0x00	; 0
    2d20:	e1 f7       	brne	.-8      	; 0x2d1a <__stack+0x24bb>
    2d22:	00 c0       	rjmp	.+0      	; 0x2d24 <__stack+0x24c5>
    2d24:	00 00       	nop
					_delay_ms(period);
					PORTD = 0x03;
    2d26:	32 bb       	out	0x12, r19	; 18
    2d28:	af ef       	ldi	r26, 0xFF	; 255
    2d2a:	b1 ee       	ldi	r27, 0xE1	; 225
    2d2c:	c4 e0       	ldi	r28, 0x04	; 4
    2d2e:	a1 50       	subi	r26, 0x01	; 1
    2d30:	b0 40       	sbci	r27, 0x00	; 0
    2d32:	c0 40       	sbci	r28, 0x00	; 0
    2d34:	e1 f7       	brne	.-8      	; 0x2d2e <__stack+0x24cf>
    2d36:	00 c0       	rjmp	.+0      	; 0x2d38 <__stack+0x24d9>
    2d38:	00 00       	nop
					_delay_ms(period);
					PORTD = 0x01;
    2d3a:	22 bb       	out	0x12, r18	; 18
    2d3c:	af ef       	ldi	r26, 0xFF	; 255
    2d3e:	b1 ee       	ldi	r27, 0xE1	; 225
    2d40:	c4 e0       	ldi	r28, 0x04	; 4
    2d42:	a1 50       	subi	r26, 0x01	; 1
    2d44:	b0 40       	sbci	r27, 0x00	; 0
    2d46:	c0 40       	sbci	r28, 0x00	; 0
    2d48:	e1 f7       	brne	.-8      	; 0x2d42 <__stack+0x24e3>
    2d4a:	00 c0       	rjmp	.+0      	; 0x2d4c <__stack+0x24ed>
    2d4c:	00 00       	nop
    2d4e:	01 97       	sbiw	r24, 0x01	; 1
				break;
			}
			case 4:
			{
				/* Rotate Stepper Motor clockwise with Half step sequence */
				for (int i = 0; i < 12; i++)
    2d50:	09 f0       	breq	.+2      	; 0x2d54 <__stack+0x24f5>
    2d52:	ad cf       	rjmp	.-166    	; 0x2cae <__stack+0x244f>
					PORTD = 0x03;
					_delay_ms(period);
					PORTD = 0x01;
					_delay_ms(period);
				}
				PORTD = 0x09; /* Last step to initial position */
    2d54:	89 e0       	ldi	r24, 0x09	; 9
    2d56:	82 bb       	out	0x12, r24	; 18
    2d58:	ef ef       	ldi	r30, 0xFF	; 255
    2d5a:	21 ee       	ldi	r18, 0xE1	; 225
    2d5c:	64 e0       	ldi	r22, 0x04	; 4
    2d5e:	e1 50       	subi	r30, 0x01	; 1
    2d60:	20 40       	sbci	r18, 0x00	; 0
    2d62:	60 40       	sbci	r22, 0x00	; 0
    2d64:	e1 f7       	brne	.-8      	; 0x2d5e <__stack+0x24ff>
    2d66:	00 c0       	rjmp	.+0      	; 0x2d68 <__stack+0x2509>
    2d68:	00 00       	nop
    2d6a:	7f ef       	ldi	r23, 0xFF	; 255
    2d6c:	83 ed       	ldi	r24, 0xD3	; 211
    2d6e:	90 e3       	ldi	r25, 0x30	; 48
    2d70:	71 50       	subi	r23, 0x01	; 1
    2d72:	80 40       	sbci	r24, 0x00	; 0
    2d74:	90 40       	sbci	r25, 0x00	; 0
    2d76:	e1 f7       	brne	.-8      	; 0x2d70 <__stack+0x2511>
    2d78:	00 c0       	rjmp	.+0      	; 0x2d7a <__stack+0x251b>
    2d7a:	00 00       	nop
    2d7c:	8c e0       	ldi	r24, 0x0C	; 12
    2d7e:	90 e0       	ldi	r25, 0x00	; 0
				_delay_ms(1000);

				/* Rotate Stepper Motor Anticlockwise with Full step sequence */
				for (int i = 0; i < 12; i++)
				{
					PORTD = 0x09;
    2d80:	59 e0       	ldi	r21, 0x09	; 9
					_delay_ms(period);
					PORTD = 0x03;
    2d82:	43 e0       	ldi	r20, 0x03	; 3
					_delay_ms(period);
					PORTD = 0x06;
    2d84:	36 e0       	ldi	r19, 0x06	; 6
					_delay_ms(period);
					PORTD = 0x0C;
    2d86:	2c e0       	ldi	r18, 0x0C	; 12
				_delay_ms(1000);

				/* Rotate Stepper Motor Anticlockwise with Full step sequence */
				for (int i = 0; i < 12; i++)
				{
					PORTD = 0x09;
    2d88:	52 bb       	out	0x12, r21	; 18
    2d8a:	af ef       	ldi	r26, 0xFF	; 255
    2d8c:	b1 ee       	ldi	r27, 0xE1	; 225
    2d8e:	c4 e0       	ldi	r28, 0x04	; 4
    2d90:	a1 50       	subi	r26, 0x01	; 1
    2d92:	b0 40       	sbci	r27, 0x00	; 0
    2d94:	c0 40       	sbci	r28, 0x00	; 0
    2d96:	e1 f7       	brne	.-8      	; 0x2d90 <__stack+0x2531>
    2d98:	00 c0       	rjmp	.+0      	; 0x2d9a <__stack+0x253b>
    2d9a:	00 00       	nop
					_delay_ms(period);
					PORTD = 0x03;
    2d9c:	42 bb       	out	0x12, r20	; 18
    2d9e:	ef ef       	ldi	r30, 0xFF	; 255
    2da0:	61 ee       	ldi	r22, 0xE1	; 225
    2da2:	74 e0       	ldi	r23, 0x04	; 4
    2da4:	e1 50       	subi	r30, 0x01	; 1
    2da6:	60 40       	sbci	r22, 0x00	; 0
    2da8:	70 40       	sbci	r23, 0x00	; 0
    2daa:	e1 f7       	brne	.-8      	; 0x2da4 <__stack+0x2545>
    2dac:	00 c0       	rjmp	.+0      	; 0x2dae <__stack+0x254f>
    2dae:	00 00       	nop
					_delay_ms(period);
					PORTD = 0x06;
    2db0:	32 bb       	out	0x12, r19	; 18
    2db2:	af ef       	ldi	r26, 0xFF	; 255
    2db4:	b1 ee       	ldi	r27, 0xE1	; 225
    2db6:	c4 e0       	ldi	r28, 0x04	; 4
    2db8:	a1 50       	subi	r26, 0x01	; 1
    2dba:	b0 40       	sbci	r27, 0x00	; 0
    2dbc:	c0 40       	sbci	r28, 0x00	; 0
    2dbe:	e1 f7       	brne	.-8      	; 0x2db8 <__stack+0x2559>
    2dc0:	00 c0       	rjmp	.+0      	; 0x2dc2 <__stack+0x2563>
    2dc2:	00 00       	nop
					_delay_ms(period);
					PORTD = 0x0C;
    2dc4:	22 bb       	out	0x12, r18	; 18
    2dc6:	ef ef       	ldi	r30, 0xFF	; 255
    2dc8:	61 ee       	ldi	r22, 0xE1	; 225
    2dca:	74 e0       	ldi	r23, 0x04	; 4
    2dcc:	e1 50       	subi	r30, 0x01	; 1
    2dce:	60 40       	sbci	r22, 0x00	; 0
    2dd0:	70 40       	sbci	r23, 0x00	; 0
    2dd2:	e1 f7       	brne	.-8      	; 0x2dcc <__stack+0x256d>
    2dd4:	00 c0       	rjmp	.+0      	; 0x2dd6 <__stack+0x2577>
    2dd6:	00 00       	nop
    2dd8:	01 97       	sbiw	r24, 0x01	; 1
				PORTD = 0x09; /* Last step to initial position */
				_delay_ms(period);
				_delay_ms(1000);

				/* Rotate Stepper Motor Anticlockwise with Full step sequence */
				for (int i = 0; i < 12; i++)
    2dda:	b1 f6       	brne	.-84     	; 0x2d88 <__stack+0x2529>
					PORTD = 0x06;
					_delay_ms(period);
					PORTD = 0x0C;
					_delay_ms(period);
				}
				PORTD = 0x09;
    2ddc:	89 e0       	ldi	r24, 0x09	; 9
    2dde:	82 bb       	out	0x12, r24	; 18
    2de0:	8f ef       	ldi	r24, 0xFF	; 255
    2de2:	91 ee       	ldi	r25, 0xE1	; 225
    2de4:	a4 e0       	ldi	r26, 0x04	; 4
    2de6:	81 50       	subi	r24, 0x01	; 1
    2de8:	90 40       	sbci	r25, 0x00	; 0
    2dea:	a0 40       	sbci	r26, 0x00	; 0
    2dec:	e1 f7       	brne	.-8      	; 0x2de6 <__stack+0x2587>
    2dee:	00 c0       	rjmp	.+0      	; 0x2df0 <__stack+0x2591>
    2df0:	00 00       	nop
    2df2:	bf ef       	ldi	r27, 0xFF	; 255
    2df4:	c3 ed       	ldi	r28, 0xD3	; 211
    2df6:	e0 e3       	ldi	r30, 0x30	; 48
    2df8:	b1 50       	subi	r27, 0x01	; 1
    2dfa:	c0 40       	sbci	r28, 0x00	; 0
    2dfc:	e0 40       	sbci	r30, 0x00	; 0
    2dfe:	e1 f7       	brne	.-8      	; 0x2df8 <__stack+0x2599>
    2e00:	00 c0       	rjmp	.+0      	; 0x2e02 <__stack+0x25a3>
    2e02:	00 00       	nop
    2e04:	0c 94 2c 3b 	jmp	0x7658	; 0x7658 <__stack+0x6df9>
				break;
			}
		}
		break;
		case 4:
		switch (personNum)
    2e08:	8c e0       	ldi	r24, 0x0C	; 12
    2e0a:	90 e0       	ldi	r25, 0x00	; 0
			case 5:
			{
				/* Rotate Stepper Motor clockwise with Half step sequence */
				for (int i = 0; i < 12; i++)
				{
					PORTD = 0x09;
    2e0c:	f9 e0       	ldi	r31, 0x09	; 9
					_delay_ms(period);
					PORTD = 0x08;
    2e0e:	e8 e0       	ldi	r30, 0x08	; 8
					_delay_ms(period);
					PORTD = 0x0C;
    2e10:	7c e0       	ldi	r23, 0x0C	; 12
					_delay_ms(period);
					PORTD = 0x04;
    2e12:	64 e0       	ldi	r22, 0x04	; 4
					_delay_ms(period);
					PORTD = 0x06;
    2e14:	56 e0       	ldi	r21, 0x06	; 6
					_delay_ms(period);
					PORTD = 0x02;
    2e16:	42 e0       	ldi	r20, 0x02	; 2
					_delay_ms(period);
					PORTD = 0x03;
    2e18:	33 e0       	ldi	r19, 0x03	; 3
					_delay_ms(period);
					PORTD = 0x01;
    2e1a:	21 e0       	ldi	r18, 0x01	; 1
			case 5:
			{
				/* Rotate Stepper Motor clockwise with Half step sequence */
				for (int i = 0; i < 12; i++)
				{
					PORTD = 0x09;
    2e1c:	f2 bb       	out	0x12, r31	; 18
    2e1e:	af ef       	ldi	r26, 0xFF	; 255
    2e20:	b1 ee       	ldi	r27, 0xE1	; 225
    2e22:	c4 e0       	ldi	r28, 0x04	; 4
    2e24:	a1 50       	subi	r26, 0x01	; 1
    2e26:	b0 40       	sbci	r27, 0x00	; 0
    2e28:	c0 40       	sbci	r28, 0x00	; 0
    2e2a:	e1 f7       	brne	.-8      	; 0x2e24 <__stack+0x25c5>
    2e2c:	00 c0       	rjmp	.+0      	; 0x2e2e <__stack+0x25cf>
    2e2e:	00 00       	nop
					_delay_ms(period);
					PORTD = 0x08;
    2e30:	e2 bb       	out	0x12, r30	; 18
    2e32:	af ef       	ldi	r26, 0xFF	; 255
    2e34:	b1 ee       	ldi	r27, 0xE1	; 225
    2e36:	c4 e0       	ldi	r28, 0x04	; 4
    2e38:	a1 50       	subi	r26, 0x01	; 1
    2e3a:	b0 40       	sbci	r27, 0x00	; 0
    2e3c:	c0 40       	sbci	r28, 0x00	; 0
    2e3e:	e1 f7       	brne	.-8      	; 0x2e38 <__stack+0x25d9>
    2e40:	00 c0       	rjmp	.+0      	; 0x2e42 <__stack+0x25e3>
    2e42:	00 00       	nop
					_delay_ms(period);
					PORTD = 0x0C;
    2e44:	72 bb       	out	0x12, r23	; 18
    2e46:	af ef       	ldi	r26, 0xFF	; 255
    2e48:	b1 ee       	ldi	r27, 0xE1	; 225
    2e4a:	c4 e0       	ldi	r28, 0x04	; 4
    2e4c:	a1 50       	subi	r26, 0x01	; 1
    2e4e:	b0 40       	sbci	r27, 0x00	; 0
    2e50:	c0 40       	sbci	r28, 0x00	; 0
    2e52:	e1 f7       	brne	.-8      	; 0x2e4c <__stack+0x25ed>
    2e54:	00 c0       	rjmp	.+0      	; 0x2e56 <__stack+0x25f7>
    2e56:	00 00       	nop
					_delay_ms(period);
					PORTD = 0x04;
    2e58:	62 bb       	out	0x12, r22	; 18
    2e5a:	af ef       	ldi	r26, 0xFF	; 255
    2e5c:	b1 ee       	ldi	r27, 0xE1	; 225
    2e5e:	c4 e0       	ldi	r28, 0x04	; 4
    2e60:	a1 50       	subi	r26, 0x01	; 1
    2e62:	b0 40       	sbci	r27, 0x00	; 0
    2e64:	c0 40       	sbci	r28, 0x00	; 0
    2e66:	e1 f7       	brne	.-8      	; 0x2e60 <__stack+0x2601>
    2e68:	00 c0       	rjmp	.+0      	; 0x2e6a <__stack+0x260b>
    2e6a:	00 00       	nop
					_delay_ms(period);
					PORTD = 0x06;
    2e6c:	52 bb       	out	0x12, r21	; 18
    2e6e:	af ef       	ldi	r26, 0xFF	; 255
    2e70:	b1 ee       	ldi	r27, 0xE1	; 225
    2e72:	c4 e0       	ldi	r28, 0x04	; 4
    2e74:	a1 50       	subi	r26, 0x01	; 1
    2e76:	b0 40       	sbci	r27, 0x00	; 0
    2e78:	c0 40       	sbci	r28, 0x00	; 0
    2e7a:	e1 f7       	brne	.-8      	; 0x2e74 <__stack+0x2615>
    2e7c:	00 c0       	rjmp	.+0      	; 0x2e7e <__stack+0x261f>
    2e7e:	00 00       	nop
					_delay_ms(period);
					PORTD = 0x02;
    2e80:	42 bb       	out	0x12, r20	; 18
    2e82:	af ef       	ldi	r26, 0xFF	; 255
    2e84:	b1 ee       	ldi	r27, 0xE1	; 225
    2e86:	c4 e0       	ldi	r28, 0x04	; 4
    2e88:	a1 50       	subi	r26, 0x01	; 1
    2e8a:	b0 40       	sbci	r27, 0x00	; 0
    2e8c:	c0 40       	sbci	r28, 0x00	; 0
    2e8e:	e1 f7       	brne	.-8      	; 0x2e88 <__stack+0x2629>
    2e90:	00 c0       	rjmp	.+0      	; 0x2e92 <__stack+0x2633>
    2e92:	00 00       	nop
					_delay_ms(period);
					PORTD = 0x03;
    2e94:	32 bb       	out	0x12, r19	; 18
    2e96:	af ef       	ldi	r26, 0xFF	; 255
    2e98:	b1 ee       	ldi	r27, 0xE1	; 225
    2e9a:	c4 e0       	ldi	r28, 0x04	; 4
    2e9c:	a1 50       	subi	r26, 0x01	; 1
    2e9e:	b0 40       	sbci	r27, 0x00	; 0
    2ea0:	c0 40       	sbci	r28, 0x00	; 0
    2ea2:	e1 f7       	brne	.-8      	; 0x2e9c <__stack+0x263d>
    2ea4:	00 c0       	rjmp	.+0      	; 0x2ea6 <__stack+0x2647>
    2ea6:	00 00       	nop
					_delay_ms(period);
					PORTD = 0x01;
    2ea8:	22 bb       	out	0x12, r18	; 18
    2eaa:	af ef       	ldi	r26, 0xFF	; 255
    2eac:	b1 ee       	ldi	r27, 0xE1	; 225
    2eae:	c4 e0       	ldi	r28, 0x04	; 4
    2eb0:	a1 50       	subi	r26, 0x01	; 1
    2eb2:	b0 40       	sbci	r27, 0x00	; 0
    2eb4:	c0 40       	sbci	r28, 0x00	; 0
    2eb6:	e1 f7       	brne	.-8      	; 0x2eb0 <__stack+0x2651>
    2eb8:	00 c0       	rjmp	.+0      	; 0x2eba <__stack+0x265b>
    2eba:	00 00       	nop
    2ebc:	01 97       	sbiw	r24, 0x01	; 1
				break;
			}
			case 5:
			{
				/* Rotate Stepper Motor clockwise with Half step sequence */
				for (int i = 0; i < 12; i++)
    2ebe:	09 f0       	breq	.+2      	; 0x2ec2 <__stack+0x2663>
    2ec0:	ad cf       	rjmp	.-166    	; 0x2e1c <__stack+0x25bd>
					PORTD = 0x03;
					_delay_ms(period);
					PORTD = 0x01;
					_delay_ms(period);
				}
				PORTD = 0x09; /* Last step to initial position */
    2ec2:	89 e0       	ldi	r24, 0x09	; 9
    2ec4:	82 bb       	out	0x12, r24	; 18
    2ec6:	ef ef       	ldi	r30, 0xFF	; 255
    2ec8:	21 ee       	ldi	r18, 0xE1	; 225
    2eca:	64 e0       	ldi	r22, 0x04	; 4
    2ecc:	e1 50       	subi	r30, 0x01	; 1
    2ece:	20 40       	sbci	r18, 0x00	; 0
    2ed0:	60 40       	sbci	r22, 0x00	; 0
    2ed2:	e1 f7       	brne	.-8      	; 0x2ecc <__stack+0x266d>
    2ed4:	00 c0       	rjmp	.+0      	; 0x2ed6 <__stack+0x2677>
    2ed6:	00 00       	nop
    2ed8:	7f ef       	ldi	r23, 0xFF	; 255
    2eda:	83 ed       	ldi	r24, 0xD3	; 211
    2edc:	90 e3       	ldi	r25, 0x30	; 48
    2ede:	71 50       	subi	r23, 0x01	; 1
    2ee0:	80 40       	sbci	r24, 0x00	; 0
    2ee2:	90 40       	sbci	r25, 0x00	; 0
    2ee4:	e1 f7       	brne	.-8      	; 0x2ede <__stack+0x267f>
    2ee6:	00 c0       	rjmp	.+0      	; 0x2ee8 <__stack+0x2689>
    2ee8:	00 00       	nop
    2eea:	8c e0       	ldi	r24, 0x0C	; 12
    2eec:	90 e0       	ldi	r25, 0x00	; 0
				_delay_ms(1000);

				/* Rotate Stepper Motor Anticlockwise with Full step sequence */
				for (int i = 0; i < 12; i++)
				{
					PORTD = 0x09;
    2eee:	59 e0       	ldi	r21, 0x09	; 9
					_delay_ms(period);
					PORTD = 0x03;
    2ef0:	43 e0       	ldi	r20, 0x03	; 3
					_delay_ms(period);
					PORTD = 0x06;
    2ef2:	36 e0       	ldi	r19, 0x06	; 6
					_delay_ms(period);
					PORTD = 0x0C;
    2ef4:	2c e0       	ldi	r18, 0x0C	; 12
				_delay_ms(1000);

				/* Rotate Stepper Motor Anticlockwise with Full step sequence */
				for (int i = 0; i < 12; i++)
				{
					PORTD = 0x09;
    2ef6:	52 bb       	out	0x12, r21	; 18
    2ef8:	af ef       	ldi	r26, 0xFF	; 255
    2efa:	b1 ee       	ldi	r27, 0xE1	; 225
    2efc:	c4 e0       	ldi	r28, 0x04	; 4
    2efe:	a1 50       	subi	r26, 0x01	; 1
    2f00:	b0 40       	sbci	r27, 0x00	; 0
    2f02:	c0 40       	sbci	r28, 0x00	; 0
    2f04:	e1 f7       	brne	.-8      	; 0x2efe <__stack+0x269f>
    2f06:	00 c0       	rjmp	.+0      	; 0x2f08 <__stack+0x26a9>
    2f08:	00 00       	nop
					_delay_ms(period);
					PORTD = 0x03;
    2f0a:	42 bb       	out	0x12, r20	; 18
    2f0c:	ef ef       	ldi	r30, 0xFF	; 255
    2f0e:	61 ee       	ldi	r22, 0xE1	; 225
    2f10:	74 e0       	ldi	r23, 0x04	; 4
    2f12:	e1 50       	subi	r30, 0x01	; 1
    2f14:	60 40       	sbci	r22, 0x00	; 0
    2f16:	70 40       	sbci	r23, 0x00	; 0
    2f18:	e1 f7       	brne	.-8      	; 0x2f12 <__stack+0x26b3>
    2f1a:	00 c0       	rjmp	.+0      	; 0x2f1c <__stack+0x26bd>
    2f1c:	00 00       	nop
					_delay_ms(period);
					PORTD = 0x06;
    2f1e:	32 bb       	out	0x12, r19	; 18
    2f20:	af ef       	ldi	r26, 0xFF	; 255
    2f22:	b1 ee       	ldi	r27, 0xE1	; 225
    2f24:	c4 e0       	ldi	r28, 0x04	; 4
    2f26:	a1 50       	subi	r26, 0x01	; 1
    2f28:	b0 40       	sbci	r27, 0x00	; 0
    2f2a:	c0 40       	sbci	r28, 0x00	; 0
    2f2c:	e1 f7       	brne	.-8      	; 0x2f26 <__stack+0x26c7>
    2f2e:	00 c0       	rjmp	.+0      	; 0x2f30 <__stack+0x26d1>
    2f30:	00 00       	nop
					_delay_ms(period);
					PORTD = 0x0C;
    2f32:	22 bb       	out	0x12, r18	; 18
    2f34:	ef ef       	ldi	r30, 0xFF	; 255
    2f36:	61 ee       	ldi	r22, 0xE1	; 225
    2f38:	74 e0       	ldi	r23, 0x04	; 4
    2f3a:	e1 50       	subi	r30, 0x01	; 1
    2f3c:	60 40       	sbci	r22, 0x00	; 0
    2f3e:	70 40       	sbci	r23, 0x00	; 0
    2f40:	e1 f7       	brne	.-8      	; 0x2f3a <__stack+0x26db>
    2f42:	00 c0       	rjmp	.+0      	; 0x2f44 <__stack+0x26e5>
    2f44:	00 00       	nop
    2f46:	01 97       	sbiw	r24, 0x01	; 1
				PORTD = 0x09; /* Last step to initial position */
				_delay_ms(period);
				_delay_ms(1000);

				/* Rotate Stepper Motor Anticlockwise with Full step sequence */
				for (int i = 0; i < 12; i++)
    2f48:	b1 f6       	brne	.-84     	; 0x2ef6 <__stack+0x2697>
					PORTD = 0x06;
					_delay_ms(period);
					PORTD = 0x0C;
					_delay_ms(period);
				}
				PORTD = 0x09;
    2f4a:	89 e0       	ldi	r24, 0x09	; 9
    2f4c:	82 bb       	out	0x12, r24	; 18
    2f4e:	8f ef       	ldi	r24, 0xFF	; 255
    2f50:	91 ee       	ldi	r25, 0xE1	; 225
    2f52:	a4 e0       	ldi	r26, 0x04	; 4
    2f54:	81 50       	subi	r24, 0x01	; 1
    2f56:	90 40       	sbci	r25, 0x00	; 0
    2f58:	a0 40       	sbci	r26, 0x00	; 0
    2f5a:	e1 f7       	brne	.-8      	; 0x2f54 <__stack+0x26f5>
    2f5c:	00 c0       	rjmp	.+0      	; 0x2f5e <__stack+0x26ff>
    2f5e:	00 00       	nop
    2f60:	bf ef       	ldi	r27, 0xFF	; 255
    2f62:	c3 ed       	ldi	r28, 0xD3	; 211
    2f64:	e0 e3       	ldi	r30, 0x30	; 48
    2f66:	b1 50       	subi	r27, 0x01	; 1
    2f68:	c0 40       	sbci	r28, 0x00	; 0
    2f6a:	e0 40       	sbci	r30, 0x00	; 0
    2f6c:	e1 f7       	brne	.-8      	; 0x2f66 <__stack+0x2707>
    2f6e:	00 c0       	rjmp	.+0      	; 0x2f70 <__stack+0x2711>
    2f70:	00 00       	nop
    2f72:	0c 94 2c 3b 	jmp	0x7658	; 0x7658 <__stack+0x6df9>
				break;
			}
		}
		break;
		case 4:
		switch (personNum)
    2f76:	8c e0       	ldi	r24, 0x0C	; 12
    2f78:	90 e0       	ldi	r25, 0x00	; 0
			case 6:
			{
				/* Rotate Stepper Motor clockwise with Half step sequence */
				for (int i = 0; i < 12; i++)
				{
					PORTD = 0x09;
    2f7a:	f9 e0       	ldi	r31, 0x09	; 9
					_delay_ms(period);
					PORTD = 0x08;
    2f7c:	e8 e0       	ldi	r30, 0x08	; 8
					_delay_ms(period);
					PORTD = 0x0C;
    2f7e:	7c e0       	ldi	r23, 0x0C	; 12
					_delay_ms(period);
					PORTD = 0x04;
    2f80:	64 e0       	ldi	r22, 0x04	; 4
					_delay_ms(period);
					PORTD = 0x06;
    2f82:	56 e0       	ldi	r21, 0x06	; 6
					_delay_ms(period);
					PORTD = 0x02;
    2f84:	42 e0       	ldi	r20, 0x02	; 2
					_delay_ms(period);
					PORTD = 0x03;
    2f86:	33 e0       	ldi	r19, 0x03	; 3
					_delay_ms(period);
					PORTD = 0x01;
    2f88:	21 e0       	ldi	r18, 0x01	; 1
			case 6:
			{
				/* Rotate Stepper Motor clockwise with Half step sequence */
				for (int i = 0; i < 12; i++)
				{
					PORTD = 0x09;
    2f8a:	f2 bb       	out	0x12, r31	; 18
    2f8c:	af ef       	ldi	r26, 0xFF	; 255
    2f8e:	b1 ee       	ldi	r27, 0xE1	; 225
    2f90:	c4 e0       	ldi	r28, 0x04	; 4
    2f92:	a1 50       	subi	r26, 0x01	; 1
    2f94:	b0 40       	sbci	r27, 0x00	; 0
    2f96:	c0 40       	sbci	r28, 0x00	; 0
    2f98:	e1 f7       	brne	.-8      	; 0x2f92 <__stack+0x2733>
    2f9a:	00 c0       	rjmp	.+0      	; 0x2f9c <__stack+0x273d>
    2f9c:	00 00       	nop
					_delay_ms(period);
					PORTD = 0x08;
    2f9e:	e2 bb       	out	0x12, r30	; 18
    2fa0:	af ef       	ldi	r26, 0xFF	; 255
    2fa2:	b1 ee       	ldi	r27, 0xE1	; 225
    2fa4:	c4 e0       	ldi	r28, 0x04	; 4
    2fa6:	a1 50       	subi	r26, 0x01	; 1
    2fa8:	b0 40       	sbci	r27, 0x00	; 0
    2faa:	c0 40       	sbci	r28, 0x00	; 0
    2fac:	e1 f7       	brne	.-8      	; 0x2fa6 <__stack+0x2747>
    2fae:	00 c0       	rjmp	.+0      	; 0x2fb0 <__stack+0x2751>
    2fb0:	00 00       	nop
					_delay_ms(period);
					PORTD = 0x0C;
    2fb2:	72 bb       	out	0x12, r23	; 18
    2fb4:	af ef       	ldi	r26, 0xFF	; 255
    2fb6:	b1 ee       	ldi	r27, 0xE1	; 225
    2fb8:	c4 e0       	ldi	r28, 0x04	; 4
    2fba:	a1 50       	subi	r26, 0x01	; 1
    2fbc:	b0 40       	sbci	r27, 0x00	; 0
    2fbe:	c0 40       	sbci	r28, 0x00	; 0
    2fc0:	e1 f7       	brne	.-8      	; 0x2fba <__stack+0x275b>
    2fc2:	00 c0       	rjmp	.+0      	; 0x2fc4 <__stack+0x2765>
    2fc4:	00 00       	nop
					_delay_ms(period);
					PORTD = 0x04;
    2fc6:	62 bb       	out	0x12, r22	; 18
    2fc8:	af ef       	ldi	r26, 0xFF	; 255
    2fca:	b1 ee       	ldi	r27, 0xE1	; 225
    2fcc:	c4 e0       	ldi	r28, 0x04	; 4
    2fce:	a1 50       	subi	r26, 0x01	; 1
    2fd0:	b0 40       	sbci	r27, 0x00	; 0
    2fd2:	c0 40       	sbci	r28, 0x00	; 0
    2fd4:	e1 f7       	brne	.-8      	; 0x2fce <__stack+0x276f>
    2fd6:	00 c0       	rjmp	.+0      	; 0x2fd8 <__stack+0x2779>
    2fd8:	00 00       	nop
					_delay_ms(period);
					PORTD = 0x06;
    2fda:	52 bb       	out	0x12, r21	; 18
    2fdc:	af ef       	ldi	r26, 0xFF	; 255
    2fde:	b1 ee       	ldi	r27, 0xE1	; 225
    2fe0:	c4 e0       	ldi	r28, 0x04	; 4
    2fe2:	a1 50       	subi	r26, 0x01	; 1
    2fe4:	b0 40       	sbci	r27, 0x00	; 0
    2fe6:	c0 40       	sbci	r28, 0x00	; 0
    2fe8:	e1 f7       	brne	.-8      	; 0x2fe2 <__stack+0x2783>
    2fea:	00 c0       	rjmp	.+0      	; 0x2fec <__stack+0x278d>
    2fec:	00 00       	nop
					_delay_ms(period);
					PORTD = 0x02;
    2fee:	42 bb       	out	0x12, r20	; 18
    2ff0:	af ef       	ldi	r26, 0xFF	; 255
    2ff2:	b1 ee       	ldi	r27, 0xE1	; 225
    2ff4:	c4 e0       	ldi	r28, 0x04	; 4
    2ff6:	a1 50       	subi	r26, 0x01	; 1
    2ff8:	b0 40       	sbci	r27, 0x00	; 0
    2ffa:	c0 40       	sbci	r28, 0x00	; 0
    2ffc:	e1 f7       	brne	.-8      	; 0x2ff6 <__stack+0x2797>
    2ffe:	00 c0       	rjmp	.+0      	; 0x3000 <__stack+0x27a1>
    3000:	00 00       	nop
					_delay_ms(period);
					PORTD = 0x03;
    3002:	32 bb       	out	0x12, r19	; 18
    3004:	af ef       	ldi	r26, 0xFF	; 255
    3006:	b1 ee       	ldi	r27, 0xE1	; 225
    3008:	c4 e0       	ldi	r28, 0x04	; 4
    300a:	a1 50       	subi	r26, 0x01	; 1
    300c:	b0 40       	sbci	r27, 0x00	; 0
    300e:	c0 40       	sbci	r28, 0x00	; 0
    3010:	e1 f7       	brne	.-8      	; 0x300a <__stack+0x27ab>
    3012:	00 c0       	rjmp	.+0      	; 0x3014 <__stack+0x27b5>
    3014:	00 00       	nop
					_delay_ms(period);
					PORTD = 0x01;
    3016:	22 bb       	out	0x12, r18	; 18
    3018:	af ef       	ldi	r26, 0xFF	; 255
    301a:	b1 ee       	ldi	r27, 0xE1	; 225
    301c:	c4 e0       	ldi	r28, 0x04	; 4
    301e:	a1 50       	subi	r26, 0x01	; 1
    3020:	b0 40       	sbci	r27, 0x00	; 0
    3022:	c0 40       	sbci	r28, 0x00	; 0
    3024:	e1 f7       	brne	.-8      	; 0x301e <__stack+0x27bf>
    3026:	00 c0       	rjmp	.+0      	; 0x3028 <__stack+0x27c9>
    3028:	00 00       	nop
    302a:	01 97       	sbiw	r24, 0x01	; 1
				break;
			}
			case 6:
			{
				/* Rotate Stepper Motor clockwise with Half step sequence */
				for (int i = 0; i < 12; i++)
    302c:	09 f0       	breq	.+2      	; 0x3030 <__stack+0x27d1>
    302e:	ad cf       	rjmp	.-166    	; 0x2f8a <__stack+0x272b>
					PORTD = 0x03;
					_delay_ms(period);
					PORTD = 0x01;
					_delay_ms(period);
				}
				PORTD = 0x09; /* Last step to initial position */
    3030:	89 e0       	ldi	r24, 0x09	; 9
    3032:	82 bb       	out	0x12, r24	; 18
    3034:	ef ef       	ldi	r30, 0xFF	; 255
    3036:	21 ee       	ldi	r18, 0xE1	; 225
    3038:	64 e0       	ldi	r22, 0x04	; 4
    303a:	e1 50       	subi	r30, 0x01	; 1
    303c:	20 40       	sbci	r18, 0x00	; 0
    303e:	60 40       	sbci	r22, 0x00	; 0
    3040:	e1 f7       	brne	.-8      	; 0x303a <__stack+0x27db>
    3042:	00 c0       	rjmp	.+0      	; 0x3044 <__stack+0x27e5>
    3044:	00 00       	nop
    3046:	7f ef       	ldi	r23, 0xFF	; 255
    3048:	83 ed       	ldi	r24, 0xD3	; 211
    304a:	90 e3       	ldi	r25, 0x30	; 48
    304c:	71 50       	subi	r23, 0x01	; 1
    304e:	80 40       	sbci	r24, 0x00	; 0
    3050:	90 40       	sbci	r25, 0x00	; 0
    3052:	e1 f7       	brne	.-8      	; 0x304c <__stack+0x27ed>
    3054:	00 c0       	rjmp	.+0      	; 0x3056 <__stack+0x27f7>
    3056:	00 00       	nop
    3058:	8c e0       	ldi	r24, 0x0C	; 12
    305a:	90 e0       	ldi	r25, 0x00	; 0
				_delay_ms(1000);

				/* Rotate Stepper Motor Anticlockwise with Full step sequence */
				for (int i = 0; i < 12; i++)
				{
					PORTD = 0x09;
    305c:	59 e0       	ldi	r21, 0x09	; 9
					_delay_ms(period);
					PORTD = 0x03;
    305e:	43 e0       	ldi	r20, 0x03	; 3
					_delay_ms(period);
					PORTD = 0x06;
    3060:	36 e0       	ldi	r19, 0x06	; 6
					_delay_ms(period);
					PORTD = 0x0C;
    3062:	2c e0       	ldi	r18, 0x0C	; 12
				_delay_ms(1000);

				/* Rotate Stepper Motor Anticlockwise with Full step sequence */
				for (int i = 0; i < 12; i++)
				{
					PORTD = 0x09;
    3064:	52 bb       	out	0x12, r21	; 18
    3066:	af ef       	ldi	r26, 0xFF	; 255
    3068:	b1 ee       	ldi	r27, 0xE1	; 225
    306a:	c4 e0       	ldi	r28, 0x04	; 4
    306c:	a1 50       	subi	r26, 0x01	; 1
    306e:	b0 40       	sbci	r27, 0x00	; 0
    3070:	c0 40       	sbci	r28, 0x00	; 0
    3072:	e1 f7       	brne	.-8      	; 0x306c <__stack+0x280d>
    3074:	00 c0       	rjmp	.+0      	; 0x3076 <__stack+0x2817>
    3076:	00 00       	nop
					_delay_ms(period);
					PORTD = 0x03;
    3078:	42 bb       	out	0x12, r20	; 18
    307a:	ef ef       	ldi	r30, 0xFF	; 255
    307c:	61 ee       	ldi	r22, 0xE1	; 225
    307e:	74 e0       	ldi	r23, 0x04	; 4
    3080:	e1 50       	subi	r30, 0x01	; 1
    3082:	60 40       	sbci	r22, 0x00	; 0
    3084:	70 40       	sbci	r23, 0x00	; 0
    3086:	e1 f7       	brne	.-8      	; 0x3080 <__stack+0x2821>
    3088:	00 c0       	rjmp	.+0      	; 0x308a <__stack+0x282b>
    308a:	00 00       	nop
					_delay_ms(period);
					PORTD = 0x06;
    308c:	32 bb       	out	0x12, r19	; 18
    308e:	af ef       	ldi	r26, 0xFF	; 255
    3090:	b1 ee       	ldi	r27, 0xE1	; 225
    3092:	c4 e0       	ldi	r28, 0x04	; 4
    3094:	a1 50       	subi	r26, 0x01	; 1
    3096:	b0 40       	sbci	r27, 0x00	; 0
    3098:	c0 40       	sbci	r28, 0x00	; 0
    309a:	e1 f7       	brne	.-8      	; 0x3094 <__stack+0x2835>
    309c:	00 c0       	rjmp	.+0      	; 0x309e <__stack+0x283f>
    309e:	00 00       	nop
					_delay_ms(period);
					PORTD = 0x0C;
    30a0:	22 bb       	out	0x12, r18	; 18
    30a2:	ef ef       	ldi	r30, 0xFF	; 255
    30a4:	61 ee       	ldi	r22, 0xE1	; 225
    30a6:	74 e0       	ldi	r23, 0x04	; 4
    30a8:	e1 50       	subi	r30, 0x01	; 1
    30aa:	60 40       	sbci	r22, 0x00	; 0
    30ac:	70 40       	sbci	r23, 0x00	; 0
    30ae:	e1 f7       	brne	.-8      	; 0x30a8 <__stack+0x2849>
    30b0:	00 c0       	rjmp	.+0      	; 0x30b2 <__stack+0x2853>
    30b2:	00 00       	nop
    30b4:	01 97       	sbiw	r24, 0x01	; 1
				PORTD = 0x09; /* Last step to initial position */
				_delay_ms(period);
				_delay_ms(1000);

				/* Rotate Stepper Motor Anticlockwise with Full step sequence */
				for (int i = 0; i < 12; i++)
    30b6:	b1 f6       	brne	.-84     	; 0x3064 <__stack+0x2805>
					PORTD = 0x06;
					_delay_ms(period);
					PORTD = 0x0C;
					_delay_ms(period);
				}
				PORTD = 0x09;
    30b8:	89 e0       	ldi	r24, 0x09	; 9
    30ba:	82 bb       	out	0x12, r24	; 18
    30bc:	8f ef       	ldi	r24, 0xFF	; 255
    30be:	91 ee       	ldi	r25, 0xE1	; 225
    30c0:	a4 e0       	ldi	r26, 0x04	; 4
    30c2:	81 50       	subi	r24, 0x01	; 1
    30c4:	90 40       	sbci	r25, 0x00	; 0
    30c6:	a0 40       	sbci	r26, 0x00	; 0
    30c8:	e1 f7       	brne	.-8      	; 0x30c2 <__stack+0x2863>
    30ca:	00 c0       	rjmp	.+0      	; 0x30cc <__stack+0x286d>
    30cc:	00 00       	nop
    30ce:	bf ef       	ldi	r27, 0xFF	; 255
    30d0:	c3 ed       	ldi	r28, 0xD3	; 211
    30d2:	e0 e3       	ldi	r30, 0x30	; 48
    30d4:	b1 50       	subi	r27, 0x01	; 1
    30d6:	c0 40       	sbci	r28, 0x00	; 0
    30d8:	e0 40       	sbci	r30, 0x00	; 0
    30da:	e1 f7       	brne	.-8      	; 0x30d4 <__stack+0x2875>
    30dc:	00 c0       	rjmp	.+0      	; 0x30de <__stack+0x287f>
    30de:	00 00       	nop
    30e0:	0c 94 2c 3b 	jmp	0x7658	; 0x7658 <__stack+0x6df9>
				break;
			}
		}
		break;
		case 4:
		switch (personNum)
    30e4:	8c e0       	ldi	r24, 0x0C	; 12
    30e6:	90 e0       	ldi	r25, 0x00	; 0
			case 7:
			{
				/* Rotate Stepper Motor clockwise with Half step sequence */
				for (int i = 0; i < 12; i++)
				{
					PORTD = 0x09;
    30e8:	f9 e0       	ldi	r31, 0x09	; 9
					_delay_ms(period);
					PORTD = 0x08;
    30ea:	e8 e0       	ldi	r30, 0x08	; 8
					_delay_ms(period);
					PORTD = 0x0C;
    30ec:	7c e0       	ldi	r23, 0x0C	; 12
					_delay_ms(period);
					PORTD = 0x04;
    30ee:	64 e0       	ldi	r22, 0x04	; 4
					_delay_ms(period);
					PORTD = 0x06;
    30f0:	56 e0       	ldi	r21, 0x06	; 6
					_delay_ms(period);
					PORTD = 0x02;
    30f2:	42 e0       	ldi	r20, 0x02	; 2
					_delay_ms(period);
					PORTD = 0x03;
    30f4:	33 e0       	ldi	r19, 0x03	; 3
					_delay_ms(period);
					PORTD = 0x01;
    30f6:	21 e0       	ldi	r18, 0x01	; 1
			case 7:
			{
				/* Rotate Stepper Motor clockwise with Half step sequence */
				for (int i = 0; i < 12; i++)
				{
					PORTD = 0x09;
    30f8:	f2 bb       	out	0x12, r31	; 18
    30fa:	af ef       	ldi	r26, 0xFF	; 255
    30fc:	b1 ee       	ldi	r27, 0xE1	; 225
    30fe:	c4 e0       	ldi	r28, 0x04	; 4
    3100:	a1 50       	subi	r26, 0x01	; 1
    3102:	b0 40       	sbci	r27, 0x00	; 0
    3104:	c0 40       	sbci	r28, 0x00	; 0
    3106:	e1 f7       	brne	.-8      	; 0x3100 <__stack+0x28a1>
    3108:	00 c0       	rjmp	.+0      	; 0x310a <__stack+0x28ab>
    310a:	00 00       	nop
					_delay_ms(period);
					PORTD = 0x08;
    310c:	e2 bb       	out	0x12, r30	; 18
    310e:	af ef       	ldi	r26, 0xFF	; 255
    3110:	b1 ee       	ldi	r27, 0xE1	; 225
    3112:	c4 e0       	ldi	r28, 0x04	; 4
    3114:	a1 50       	subi	r26, 0x01	; 1
    3116:	b0 40       	sbci	r27, 0x00	; 0
    3118:	c0 40       	sbci	r28, 0x00	; 0
    311a:	e1 f7       	brne	.-8      	; 0x3114 <__stack+0x28b5>
    311c:	00 c0       	rjmp	.+0      	; 0x311e <__stack+0x28bf>
    311e:	00 00       	nop
					_delay_ms(period);
					PORTD = 0x0C;
    3120:	72 bb       	out	0x12, r23	; 18
    3122:	af ef       	ldi	r26, 0xFF	; 255
    3124:	b1 ee       	ldi	r27, 0xE1	; 225
    3126:	c4 e0       	ldi	r28, 0x04	; 4
    3128:	a1 50       	subi	r26, 0x01	; 1
    312a:	b0 40       	sbci	r27, 0x00	; 0
    312c:	c0 40       	sbci	r28, 0x00	; 0
    312e:	e1 f7       	brne	.-8      	; 0x3128 <__stack+0x28c9>
    3130:	00 c0       	rjmp	.+0      	; 0x3132 <__stack+0x28d3>
    3132:	00 00       	nop
					_delay_ms(period);
					PORTD = 0x04;
    3134:	62 bb       	out	0x12, r22	; 18
    3136:	af ef       	ldi	r26, 0xFF	; 255
    3138:	b1 ee       	ldi	r27, 0xE1	; 225
    313a:	c4 e0       	ldi	r28, 0x04	; 4
    313c:	a1 50       	subi	r26, 0x01	; 1
    313e:	b0 40       	sbci	r27, 0x00	; 0
    3140:	c0 40       	sbci	r28, 0x00	; 0
    3142:	e1 f7       	brne	.-8      	; 0x313c <__stack+0x28dd>
    3144:	00 c0       	rjmp	.+0      	; 0x3146 <__stack+0x28e7>
    3146:	00 00       	nop
					_delay_ms(period);
					PORTD = 0x06;
    3148:	52 bb       	out	0x12, r21	; 18
    314a:	af ef       	ldi	r26, 0xFF	; 255
    314c:	b1 ee       	ldi	r27, 0xE1	; 225
    314e:	c4 e0       	ldi	r28, 0x04	; 4
    3150:	a1 50       	subi	r26, 0x01	; 1
    3152:	b0 40       	sbci	r27, 0x00	; 0
    3154:	c0 40       	sbci	r28, 0x00	; 0
    3156:	e1 f7       	brne	.-8      	; 0x3150 <__stack+0x28f1>
    3158:	00 c0       	rjmp	.+0      	; 0x315a <__stack+0x28fb>
    315a:	00 00       	nop
					_delay_ms(period);
					PORTD = 0x02;
    315c:	42 bb       	out	0x12, r20	; 18
    315e:	af ef       	ldi	r26, 0xFF	; 255
    3160:	b1 ee       	ldi	r27, 0xE1	; 225
    3162:	c4 e0       	ldi	r28, 0x04	; 4
    3164:	a1 50       	subi	r26, 0x01	; 1
    3166:	b0 40       	sbci	r27, 0x00	; 0
    3168:	c0 40       	sbci	r28, 0x00	; 0
    316a:	e1 f7       	brne	.-8      	; 0x3164 <__stack+0x2905>
    316c:	00 c0       	rjmp	.+0      	; 0x316e <__stack+0x290f>
    316e:	00 00       	nop
					_delay_ms(period);
					PORTD = 0x03;
    3170:	32 bb       	out	0x12, r19	; 18
    3172:	af ef       	ldi	r26, 0xFF	; 255
    3174:	b1 ee       	ldi	r27, 0xE1	; 225
    3176:	c4 e0       	ldi	r28, 0x04	; 4
    3178:	a1 50       	subi	r26, 0x01	; 1
    317a:	b0 40       	sbci	r27, 0x00	; 0
    317c:	c0 40       	sbci	r28, 0x00	; 0
    317e:	e1 f7       	brne	.-8      	; 0x3178 <__stack+0x2919>
    3180:	00 c0       	rjmp	.+0      	; 0x3182 <__stack+0x2923>
    3182:	00 00       	nop
					_delay_ms(period);
					PORTD = 0x01;
    3184:	22 bb       	out	0x12, r18	; 18
    3186:	af ef       	ldi	r26, 0xFF	; 255
    3188:	b1 ee       	ldi	r27, 0xE1	; 225
    318a:	c4 e0       	ldi	r28, 0x04	; 4
    318c:	a1 50       	subi	r26, 0x01	; 1
    318e:	b0 40       	sbci	r27, 0x00	; 0
    3190:	c0 40       	sbci	r28, 0x00	; 0
    3192:	e1 f7       	brne	.-8      	; 0x318c <__stack+0x292d>
    3194:	00 c0       	rjmp	.+0      	; 0x3196 <__stack+0x2937>
    3196:	00 00       	nop
    3198:	01 97       	sbiw	r24, 0x01	; 1
				break;
			}
			case 7:
			{
				/* Rotate Stepper Motor clockwise with Half step sequence */
				for (int i = 0; i < 12; i++)
    319a:	09 f0       	breq	.+2      	; 0x319e <__stack+0x293f>
    319c:	ad cf       	rjmp	.-166    	; 0x30f8 <__stack+0x2899>
					PORTD = 0x03;
					_delay_ms(period);
					PORTD = 0x01;
					_delay_ms(period);
				}
				PORTD = 0x09; /* Last step to initial position */
    319e:	89 e0       	ldi	r24, 0x09	; 9
    31a0:	82 bb       	out	0x12, r24	; 18
    31a2:	ef ef       	ldi	r30, 0xFF	; 255
    31a4:	21 ee       	ldi	r18, 0xE1	; 225
    31a6:	64 e0       	ldi	r22, 0x04	; 4
    31a8:	e1 50       	subi	r30, 0x01	; 1
    31aa:	20 40       	sbci	r18, 0x00	; 0
    31ac:	60 40       	sbci	r22, 0x00	; 0
    31ae:	e1 f7       	brne	.-8      	; 0x31a8 <__stack+0x2949>
    31b0:	00 c0       	rjmp	.+0      	; 0x31b2 <__stack+0x2953>
    31b2:	00 00       	nop
    31b4:	7f ef       	ldi	r23, 0xFF	; 255
    31b6:	83 ed       	ldi	r24, 0xD3	; 211
    31b8:	90 e3       	ldi	r25, 0x30	; 48
    31ba:	71 50       	subi	r23, 0x01	; 1
    31bc:	80 40       	sbci	r24, 0x00	; 0
    31be:	90 40       	sbci	r25, 0x00	; 0
    31c0:	e1 f7       	brne	.-8      	; 0x31ba <__stack+0x295b>
    31c2:	00 c0       	rjmp	.+0      	; 0x31c4 <__stack+0x2965>
    31c4:	00 00       	nop
    31c6:	8c e0       	ldi	r24, 0x0C	; 12
    31c8:	90 e0       	ldi	r25, 0x00	; 0
				_delay_ms(1000);

				/* Rotate Stepper Motor Anticlockwise with Full step sequence */
				for (int i = 0; i < 12; i++)
				{
					PORTD = 0x09;
    31ca:	59 e0       	ldi	r21, 0x09	; 9
					_delay_ms(period);
					PORTD = 0x03;
    31cc:	43 e0       	ldi	r20, 0x03	; 3
					_delay_ms(period);
					PORTD = 0x06;
    31ce:	36 e0       	ldi	r19, 0x06	; 6
					_delay_ms(period);
					PORTD = 0x0C;
    31d0:	2c e0       	ldi	r18, 0x0C	; 12
				_delay_ms(1000);

				/* Rotate Stepper Motor Anticlockwise with Full step sequence */
				for (int i = 0; i < 12; i++)
				{
					PORTD = 0x09;
    31d2:	52 bb       	out	0x12, r21	; 18
    31d4:	af ef       	ldi	r26, 0xFF	; 255
    31d6:	b1 ee       	ldi	r27, 0xE1	; 225
    31d8:	c4 e0       	ldi	r28, 0x04	; 4
    31da:	a1 50       	subi	r26, 0x01	; 1
    31dc:	b0 40       	sbci	r27, 0x00	; 0
    31de:	c0 40       	sbci	r28, 0x00	; 0
    31e0:	e1 f7       	brne	.-8      	; 0x31da <__stack+0x297b>
    31e2:	00 c0       	rjmp	.+0      	; 0x31e4 <__stack+0x2985>
    31e4:	00 00       	nop
					_delay_ms(period);
					PORTD = 0x03;
    31e6:	42 bb       	out	0x12, r20	; 18
    31e8:	ef ef       	ldi	r30, 0xFF	; 255
    31ea:	61 ee       	ldi	r22, 0xE1	; 225
    31ec:	74 e0       	ldi	r23, 0x04	; 4
    31ee:	e1 50       	subi	r30, 0x01	; 1
    31f0:	60 40       	sbci	r22, 0x00	; 0
    31f2:	70 40       	sbci	r23, 0x00	; 0
    31f4:	e1 f7       	brne	.-8      	; 0x31ee <__stack+0x298f>
    31f6:	00 c0       	rjmp	.+0      	; 0x31f8 <__stack+0x2999>
    31f8:	00 00       	nop
					_delay_ms(period);
					PORTD = 0x06;
    31fa:	32 bb       	out	0x12, r19	; 18
    31fc:	af ef       	ldi	r26, 0xFF	; 255
    31fe:	b1 ee       	ldi	r27, 0xE1	; 225
    3200:	c4 e0       	ldi	r28, 0x04	; 4
    3202:	a1 50       	subi	r26, 0x01	; 1
    3204:	b0 40       	sbci	r27, 0x00	; 0
    3206:	c0 40       	sbci	r28, 0x00	; 0
    3208:	e1 f7       	brne	.-8      	; 0x3202 <__stack+0x29a3>
    320a:	00 c0       	rjmp	.+0      	; 0x320c <__stack+0x29ad>
    320c:	00 00       	nop
					_delay_ms(period);
					PORTD = 0x0C;
    320e:	22 bb       	out	0x12, r18	; 18
    3210:	ef ef       	ldi	r30, 0xFF	; 255
    3212:	61 ee       	ldi	r22, 0xE1	; 225
    3214:	74 e0       	ldi	r23, 0x04	; 4
    3216:	e1 50       	subi	r30, 0x01	; 1
    3218:	60 40       	sbci	r22, 0x00	; 0
    321a:	70 40       	sbci	r23, 0x00	; 0
    321c:	e1 f7       	brne	.-8      	; 0x3216 <__stack+0x29b7>
    321e:	00 c0       	rjmp	.+0      	; 0x3220 <__stack+0x29c1>
    3220:	00 00       	nop
    3222:	01 97       	sbiw	r24, 0x01	; 1
				PORTD = 0x09; /* Last step to initial position */
				_delay_ms(period);
				_delay_ms(1000);

				/* Rotate Stepper Motor Anticlockwise with Full step sequence */
				for (int i = 0; i < 12; i++)
    3224:	b1 f6       	brne	.-84     	; 0x31d2 <__stack+0x2973>
					PORTD = 0x06;
					_delay_ms(period);
					PORTD = 0x0C;
					_delay_ms(period);
				}
				PORTD = 0x09;
    3226:	89 e0       	ldi	r24, 0x09	; 9
    3228:	82 bb       	out	0x12, r24	; 18
    322a:	8f ef       	ldi	r24, 0xFF	; 255
    322c:	91 ee       	ldi	r25, 0xE1	; 225
    322e:	a4 e0       	ldi	r26, 0x04	; 4
    3230:	81 50       	subi	r24, 0x01	; 1
    3232:	90 40       	sbci	r25, 0x00	; 0
    3234:	a0 40       	sbci	r26, 0x00	; 0
    3236:	e1 f7       	brne	.-8      	; 0x3230 <__stack+0x29d1>
    3238:	00 c0       	rjmp	.+0      	; 0x323a <__stack+0x29db>
    323a:	00 00       	nop
    323c:	bf ef       	ldi	r27, 0xFF	; 255
    323e:	c3 ed       	ldi	r28, 0xD3	; 211
    3240:	e0 e3       	ldi	r30, 0x30	; 48
    3242:	b1 50       	subi	r27, 0x01	; 1
    3244:	c0 40       	sbci	r28, 0x00	; 0
    3246:	e0 40       	sbci	r30, 0x00	; 0
    3248:	e1 f7       	brne	.-8      	; 0x3242 <__stack+0x29e3>
    324a:	00 c0       	rjmp	.+0      	; 0x324c <__stack+0x29ed>
    324c:	00 00       	nop
    324e:	0c 94 2c 3b 	jmp	0x7658	; 0x7658 <__stack+0x6df9>
				break;
			}
		}
		break;
		case 4:
		switch (personNum)
    3252:	8c e0       	ldi	r24, 0x0C	; 12
    3254:	90 e0       	ldi	r25, 0x00	; 0
			case 8:
			{
				/* Rotate Stepper Motor clockwise with Half step sequence */
				for (int i = 0; i < 12; i++)
				{
					PORTD = 0x09;
    3256:	f9 e0       	ldi	r31, 0x09	; 9
					_delay_ms(period);
					PORTD = 0x08;
    3258:	e8 e0       	ldi	r30, 0x08	; 8
					_delay_ms(period);
					PORTD = 0x0C;
    325a:	7c e0       	ldi	r23, 0x0C	; 12
					_delay_ms(period);
					PORTD = 0x04;
    325c:	64 e0       	ldi	r22, 0x04	; 4
					_delay_ms(period);
					PORTD = 0x06;
    325e:	56 e0       	ldi	r21, 0x06	; 6
					_delay_ms(period);
					PORTD = 0x02;
    3260:	42 e0       	ldi	r20, 0x02	; 2
					_delay_ms(period);
					PORTD = 0x03;
    3262:	33 e0       	ldi	r19, 0x03	; 3
					_delay_ms(period);
					PORTD = 0x01;
    3264:	21 e0       	ldi	r18, 0x01	; 1
			case 8:
			{
				/* Rotate Stepper Motor clockwise with Half step sequence */
				for (int i = 0; i < 12; i++)
				{
					PORTD = 0x09;
    3266:	f2 bb       	out	0x12, r31	; 18
    3268:	af ef       	ldi	r26, 0xFF	; 255
    326a:	b1 ee       	ldi	r27, 0xE1	; 225
    326c:	c4 e0       	ldi	r28, 0x04	; 4
    326e:	a1 50       	subi	r26, 0x01	; 1
    3270:	b0 40       	sbci	r27, 0x00	; 0
    3272:	c0 40       	sbci	r28, 0x00	; 0
    3274:	e1 f7       	brne	.-8      	; 0x326e <__stack+0x2a0f>
    3276:	00 c0       	rjmp	.+0      	; 0x3278 <__stack+0x2a19>
    3278:	00 00       	nop
					_delay_ms(period);
					PORTD = 0x08;
    327a:	e2 bb       	out	0x12, r30	; 18
    327c:	af ef       	ldi	r26, 0xFF	; 255
    327e:	b1 ee       	ldi	r27, 0xE1	; 225
    3280:	c4 e0       	ldi	r28, 0x04	; 4
    3282:	a1 50       	subi	r26, 0x01	; 1
    3284:	b0 40       	sbci	r27, 0x00	; 0
    3286:	c0 40       	sbci	r28, 0x00	; 0
    3288:	e1 f7       	brne	.-8      	; 0x3282 <__stack+0x2a23>
    328a:	00 c0       	rjmp	.+0      	; 0x328c <__stack+0x2a2d>
    328c:	00 00       	nop
					_delay_ms(period);
					PORTD = 0x0C;
    328e:	72 bb       	out	0x12, r23	; 18
    3290:	af ef       	ldi	r26, 0xFF	; 255
    3292:	b1 ee       	ldi	r27, 0xE1	; 225
    3294:	c4 e0       	ldi	r28, 0x04	; 4
    3296:	a1 50       	subi	r26, 0x01	; 1
    3298:	b0 40       	sbci	r27, 0x00	; 0
    329a:	c0 40       	sbci	r28, 0x00	; 0
    329c:	e1 f7       	brne	.-8      	; 0x3296 <__stack+0x2a37>
    329e:	00 c0       	rjmp	.+0      	; 0x32a0 <__stack+0x2a41>
    32a0:	00 00       	nop
					_delay_ms(period);
					PORTD = 0x04;
    32a2:	62 bb       	out	0x12, r22	; 18
    32a4:	af ef       	ldi	r26, 0xFF	; 255
    32a6:	b1 ee       	ldi	r27, 0xE1	; 225
    32a8:	c4 e0       	ldi	r28, 0x04	; 4
    32aa:	a1 50       	subi	r26, 0x01	; 1
    32ac:	b0 40       	sbci	r27, 0x00	; 0
    32ae:	c0 40       	sbci	r28, 0x00	; 0
    32b0:	e1 f7       	brne	.-8      	; 0x32aa <__stack+0x2a4b>
    32b2:	00 c0       	rjmp	.+0      	; 0x32b4 <__stack+0x2a55>
    32b4:	00 00       	nop
					_delay_ms(period);
					PORTD = 0x06;
    32b6:	52 bb       	out	0x12, r21	; 18
    32b8:	af ef       	ldi	r26, 0xFF	; 255
    32ba:	b1 ee       	ldi	r27, 0xE1	; 225
    32bc:	c4 e0       	ldi	r28, 0x04	; 4
    32be:	a1 50       	subi	r26, 0x01	; 1
    32c0:	b0 40       	sbci	r27, 0x00	; 0
    32c2:	c0 40       	sbci	r28, 0x00	; 0
    32c4:	e1 f7       	brne	.-8      	; 0x32be <__stack+0x2a5f>
    32c6:	00 c0       	rjmp	.+0      	; 0x32c8 <__stack+0x2a69>
    32c8:	00 00       	nop
					_delay_ms(period);
					PORTD = 0x02;
    32ca:	42 bb       	out	0x12, r20	; 18
    32cc:	af ef       	ldi	r26, 0xFF	; 255
    32ce:	b1 ee       	ldi	r27, 0xE1	; 225
    32d0:	c4 e0       	ldi	r28, 0x04	; 4
    32d2:	a1 50       	subi	r26, 0x01	; 1
    32d4:	b0 40       	sbci	r27, 0x00	; 0
    32d6:	c0 40       	sbci	r28, 0x00	; 0
    32d8:	e1 f7       	brne	.-8      	; 0x32d2 <__stack+0x2a73>
    32da:	00 c0       	rjmp	.+0      	; 0x32dc <__stack+0x2a7d>
    32dc:	00 00       	nop
					_delay_ms(period);
					PORTD = 0x03;
    32de:	32 bb       	out	0x12, r19	; 18
    32e0:	af ef       	ldi	r26, 0xFF	; 255
    32e2:	b1 ee       	ldi	r27, 0xE1	; 225
    32e4:	c4 e0       	ldi	r28, 0x04	; 4
    32e6:	a1 50       	subi	r26, 0x01	; 1
    32e8:	b0 40       	sbci	r27, 0x00	; 0
    32ea:	c0 40       	sbci	r28, 0x00	; 0
    32ec:	e1 f7       	brne	.-8      	; 0x32e6 <__stack+0x2a87>
    32ee:	00 c0       	rjmp	.+0      	; 0x32f0 <__stack+0x2a91>
    32f0:	00 00       	nop
					_delay_ms(period);
					PORTD = 0x01;
    32f2:	22 bb       	out	0x12, r18	; 18
    32f4:	af ef       	ldi	r26, 0xFF	; 255
    32f6:	b1 ee       	ldi	r27, 0xE1	; 225
    32f8:	c4 e0       	ldi	r28, 0x04	; 4
    32fa:	a1 50       	subi	r26, 0x01	; 1
    32fc:	b0 40       	sbci	r27, 0x00	; 0
    32fe:	c0 40       	sbci	r28, 0x00	; 0
    3300:	e1 f7       	brne	.-8      	; 0x32fa <__stack+0x2a9b>
    3302:	00 c0       	rjmp	.+0      	; 0x3304 <__stack+0x2aa5>
    3304:	00 00       	nop
    3306:	01 97       	sbiw	r24, 0x01	; 1
				break;
			}
			case 8:
			{
				/* Rotate Stepper Motor clockwise with Half step sequence */
				for (int i = 0; i < 12; i++)
    3308:	09 f0       	breq	.+2      	; 0x330c <__stack+0x2aad>
    330a:	ad cf       	rjmp	.-166    	; 0x3266 <__stack+0x2a07>
					PORTD = 0x03;
					_delay_ms(period);
					PORTD = 0x01;
					_delay_ms(period);
				}
				PORTD = 0x09; /* Last step to initial position */
    330c:	89 e0       	ldi	r24, 0x09	; 9
    330e:	82 bb       	out	0x12, r24	; 18
    3310:	ef ef       	ldi	r30, 0xFF	; 255
    3312:	21 ee       	ldi	r18, 0xE1	; 225
    3314:	64 e0       	ldi	r22, 0x04	; 4
    3316:	e1 50       	subi	r30, 0x01	; 1
    3318:	20 40       	sbci	r18, 0x00	; 0
    331a:	60 40       	sbci	r22, 0x00	; 0
    331c:	e1 f7       	brne	.-8      	; 0x3316 <__stack+0x2ab7>
    331e:	00 c0       	rjmp	.+0      	; 0x3320 <__stack+0x2ac1>
    3320:	00 00       	nop
    3322:	7f ef       	ldi	r23, 0xFF	; 255
    3324:	83 ed       	ldi	r24, 0xD3	; 211
    3326:	90 e3       	ldi	r25, 0x30	; 48
    3328:	71 50       	subi	r23, 0x01	; 1
    332a:	80 40       	sbci	r24, 0x00	; 0
    332c:	90 40       	sbci	r25, 0x00	; 0
    332e:	e1 f7       	brne	.-8      	; 0x3328 <__stack+0x2ac9>
    3330:	00 c0       	rjmp	.+0      	; 0x3332 <__stack+0x2ad3>
    3332:	00 00       	nop
    3334:	8c e0       	ldi	r24, 0x0C	; 12
    3336:	90 e0       	ldi	r25, 0x00	; 0
				_delay_ms(1000);

				/* Rotate Stepper Motor Anticlockwise with Full step sequence */
				for (int i = 0; i < 12; i++)
				{
					PORTD = 0x09;
    3338:	59 e0       	ldi	r21, 0x09	; 9
					_delay_ms(period);
					PORTD = 0x03;
    333a:	43 e0       	ldi	r20, 0x03	; 3
					_delay_ms(period);
					PORTD = 0x06;
    333c:	36 e0       	ldi	r19, 0x06	; 6
					_delay_ms(period);
					PORTD = 0x0C;
    333e:	2c e0       	ldi	r18, 0x0C	; 12
				_delay_ms(1000);

				/* Rotate Stepper Motor Anticlockwise with Full step sequence */
				for (int i = 0; i < 12; i++)
				{
					PORTD = 0x09;
    3340:	52 bb       	out	0x12, r21	; 18
    3342:	af ef       	ldi	r26, 0xFF	; 255
    3344:	b1 ee       	ldi	r27, 0xE1	; 225
    3346:	c4 e0       	ldi	r28, 0x04	; 4
    3348:	a1 50       	subi	r26, 0x01	; 1
    334a:	b0 40       	sbci	r27, 0x00	; 0
    334c:	c0 40       	sbci	r28, 0x00	; 0
    334e:	e1 f7       	brne	.-8      	; 0x3348 <__stack+0x2ae9>
    3350:	00 c0       	rjmp	.+0      	; 0x3352 <__stack+0x2af3>
    3352:	00 00       	nop
					_delay_ms(period);
					PORTD = 0x03;
    3354:	42 bb       	out	0x12, r20	; 18
    3356:	ef ef       	ldi	r30, 0xFF	; 255
    3358:	61 ee       	ldi	r22, 0xE1	; 225
    335a:	74 e0       	ldi	r23, 0x04	; 4
    335c:	e1 50       	subi	r30, 0x01	; 1
    335e:	60 40       	sbci	r22, 0x00	; 0
    3360:	70 40       	sbci	r23, 0x00	; 0
    3362:	e1 f7       	brne	.-8      	; 0x335c <__stack+0x2afd>
    3364:	00 c0       	rjmp	.+0      	; 0x3366 <__stack+0x2b07>
    3366:	00 00       	nop
					_delay_ms(period);
					PORTD = 0x06;
    3368:	32 bb       	out	0x12, r19	; 18
    336a:	af ef       	ldi	r26, 0xFF	; 255
    336c:	b1 ee       	ldi	r27, 0xE1	; 225
    336e:	c4 e0       	ldi	r28, 0x04	; 4
    3370:	a1 50       	subi	r26, 0x01	; 1
    3372:	b0 40       	sbci	r27, 0x00	; 0
    3374:	c0 40       	sbci	r28, 0x00	; 0
    3376:	e1 f7       	brne	.-8      	; 0x3370 <__stack+0x2b11>
    3378:	00 c0       	rjmp	.+0      	; 0x337a <__stack+0x2b1b>
    337a:	00 00       	nop
					_delay_ms(period);
					PORTD = 0x0C;
    337c:	22 bb       	out	0x12, r18	; 18
    337e:	ef ef       	ldi	r30, 0xFF	; 255
    3380:	61 ee       	ldi	r22, 0xE1	; 225
    3382:	74 e0       	ldi	r23, 0x04	; 4
    3384:	e1 50       	subi	r30, 0x01	; 1
    3386:	60 40       	sbci	r22, 0x00	; 0
    3388:	70 40       	sbci	r23, 0x00	; 0
    338a:	e1 f7       	brne	.-8      	; 0x3384 <__stack+0x2b25>
    338c:	00 c0       	rjmp	.+0      	; 0x338e <__stack+0x2b2f>
    338e:	00 00       	nop
    3390:	01 97       	sbiw	r24, 0x01	; 1
				PORTD = 0x09; /* Last step to initial position */
				_delay_ms(period);
				_delay_ms(1000);

				/* Rotate Stepper Motor Anticlockwise with Full step sequence */
				for (int i = 0; i < 12; i++)
    3392:	b1 f6       	brne	.-84     	; 0x3340 <__stack+0x2ae1>
					PORTD = 0x06;
					_delay_ms(period);
					PORTD = 0x0C;
					_delay_ms(period);
				}
				PORTD = 0x09;
    3394:	89 e0       	ldi	r24, 0x09	; 9
    3396:	82 bb       	out	0x12, r24	; 18
    3398:	8f ef       	ldi	r24, 0xFF	; 255
    339a:	91 ee       	ldi	r25, 0xE1	; 225
    339c:	a4 e0       	ldi	r26, 0x04	; 4
    339e:	81 50       	subi	r24, 0x01	; 1
    33a0:	90 40       	sbci	r25, 0x00	; 0
    33a2:	a0 40       	sbci	r26, 0x00	; 0
    33a4:	e1 f7       	brne	.-8      	; 0x339e <__stack+0x2b3f>
    33a6:	00 c0       	rjmp	.+0      	; 0x33a8 <__stack+0x2b49>
    33a8:	00 00       	nop
    33aa:	bf ef       	ldi	r27, 0xFF	; 255
    33ac:	c3 ed       	ldi	r28, 0xD3	; 211
    33ae:	e0 e3       	ldi	r30, 0x30	; 48
    33b0:	b1 50       	subi	r27, 0x01	; 1
    33b2:	c0 40       	sbci	r28, 0x00	; 0
    33b4:	e0 40       	sbci	r30, 0x00	; 0
    33b6:	e1 f7       	brne	.-8      	; 0x33b0 <__stack+0x2b51>
    33b8:	00 c0       	rjmp	.+0      	; 0x33ba <__stack+0x2b5b>
    33ba:	00 00       	nop
    33bc:	0c 94 2c 3b 	jmp	0x7658	; 0x7658 <__stack+0x6df9>
				break;
			}
		}
		break;
		case 4:
		switch (personNum)
    33c0:	8c e0       	ldi	r24, 0x0C	; 12
    33c2:	90 e0       	ldi	r25, 0x00	; 0
			case 9:
			{
				/* Rotate Stepper Motor clockwise with Half step sequence */
				for (int i = 0; i < 12; i++)
				{
					PORTD = 0x09;
    33c4:	f9 e0       	ldi	r31, 0x09	; 9
					_delay_ms(period);
					PORTD = 0x08;
    33c6:	e8 e0       	ldi	r30, 0x08	; 8
					_delay_ms(period);
					PORTD = 0x0C;
    33c8:	7c e0       	ldi	r23, 0x0C	; 12
					_delay_ms(period);
					PORTD = 0x04;
    33ca:	64 e0       	ldi	r22, 0x04	; 4
					_delay_ms(period);
					PORTD = 0x06;
    33cc:	56 e0       	ldi	r21, 0x06	; 6
					_delay_ms(period);
					PORTD = 0x02;
    33ce:	42 e0       	ldi	r20, 0x02	; 2
					_delay_ms(period);
					PORTD = 0x03;
    33d0:	33 e0       	ldi	r19, 0x03	; 3
					_delay_ms(period);
					PORTD = 0x01;
    33d2:	21 e0       	ldi	r18, 0x01	; 1
			case 9:
			{
				/* Rotate Stepper Motor clockwise with Half step sequence */
				for (int i = 0; i < 12; i++)
				{
					PORTD = 0x09;
    33d4:	f2 bb       	out	0x12, r31	; 18
    33d6:	af ef       	ldi	r26, 0xFF	; 255
    33d8:	b1 ee       	ldi	r27, 0xE1	; 225
    33da:	c4 e0       	ldi	r28, 0x04	; 4
    33dc:	a1 50       	subi	r26, 0x01	; 1
    33de:	b0 40       	sbci	r27, 0x00	; 0
    33e0:	c0 40       	sbci	r28, 0x00	; 0
    33e2:	e1 f7       	brne	.-8      	; 0x33dc <__stack+0x2b7d>
    33e4:	00 c0       	rjmp	.+0      	; 0x33e6 <__stack+0x2b87>
    33e6:	00 00       	nop
					_delay_ms(period);
					PORTD = 0x08;
    33e8:	e2 bb       	out	0x12, r30	; 18
    33ea:	af ef       	ldi	r26, 0xFF	; 255
    33ec:	b1 ee       	ldi	r27, 0xE1	; 225
    33ee:	c4 e0       	ldi	r28, 0x04	; 4
    33f0:	a1 50       	subi	r26, 0x01	; 1
    33f2:	b0 40       	sbci	r27, 0x00	; 0
    33f4:	c0 40       	sbci	r28, 0x00	; 0
    33f6:	e1 f7       	brne	.-8      	; 0x33f0 <__stack+0x2b91>
    33f8:	00 c0       	rjmp	.+0      	; 0x33fa <__stack+0x2b9b>
    33fa:	00 00       	nop
					_delay_ms(period);
					PORTD = 0x0C;
    33fc:	72 bb       	out	0x12, r23	; 18
    33fe:	af ef       	ldi	r26, 0xFF	; 255
    3400:	b1 ee       	ldi	r27, 0xE1	; 225
    3402:	c4 e0       	ldi	r28, 0x04	; 4
    3404:	a1 50       	subi	r26, 0x01	; 1
    3406:	b0 40       	sbci	r27, 0x00	; 0
    3408:	c0 40       	sbci	r28, 0x00	; 0
    340a:	e1 f7       	brne	.-8      	; 0x3404 <__stack+0x2ba5>
    340c:	00 c0       	rjmp	.+0      	; 0x340e <__stack+0x2baf>
    340e:	00 00       	nop
					_delay_ms(period);
					PORTD = 0x04;
    3410:	62 bb       	out	0x12, r22	; 18
    3412:	af ef       	ldi	r26, 0xFF	; 255
    3414:	b1 ee       	ldi	r27, 0xE1	; 225
    3416:	c4 e0       	ldi	r28, 0x04	; 4
    3418:	a1 50       	subi	r26, 0x01	; 1
    341a:	b0 40       	sbci	r27, 0x00	; 0
    341c:	c0 40       	sbci	r28, 0x00	; 0
    341e:	e1 f7       	brne	.-8      	; 0x3418 <__stack+0x2bb9>
    3420:	00 c0       	rjmp	.+0      	; 0x3422 <__stack+0x2bc3>
    3422:	00 00       	nop
					_delay_ms(period);
					PORTD = 0x06;
    3424:	52 bb       	out	0x12, r21	; 18
    3426:	af ef       	ldi	r26, 0xFF	; 255
    3428:	b1 ee       	ldi	r27, 0xE1	; 225
    342a:	c4 e0       	ldi	r28, 0x04	; 4
    342c:	a1 50       	subi	r26, 0x01	; 1
    342e:	b0 40       	sbci	r27, 0x00	; 0
    3430:	c0 40       	sbci	r28, 0x00	; 0
    3432:	e1 f7       	brne	.-8      	; 0x342c <__stack+0x2bcd>
    3434:	00 c0       	rjmp	.+0      	; 0x3436 <__stack+0x2bd7>
    3436:	00 00       	nop
					_delay_ms(period);
					PORTD = 0x02;
    3438:	42 bb       	out	0x12, r20	; 18
    343a:	af ef       	ldi	r26, 0xFF	; 255
    343c:	b1 ee       	ldi	r27, 0xE1	; 225
    343e:	c4 e0       	ldi	r28, 0x04	; 4
    3440:	a1 50       	subi	r26, 0x01	; 1
    3442:	b0 40       	sbci	r27, 0x00	; 0
    3444:	c0 40       	sbci	r28, 0x00	; 0
    3446:	e1 f7       	brne	.-8      	; 0x3440 <__stack+0x2be1>
    3448:	00 c0       	rjmp	.+0      	; 0x344a <__stack+0x2beb>
    344a:	00 00       	nop
					_delay_ms(period);
					PORTD = 0x03;
    344c:	32 bb       	out	0x12, r19	; 18
    344e:	af ef       	ldi	r26, 0xFF	; 255
    3450:	b1 ee       	ldi	r27, 0xE1	; 225
    3452:	c4 e0       	ldi	r28, 0x04	; 4
    3454:	a1 50       	subi	r26, 0x01	; 1
    3456:	b0 40       	sbci	r27, 0x00	; 0
    3458:	c0 40       	sbci	r28, 0x00	; 0
    345a:	e1 f7       	brne	.-8      	; 0x3454 <__stack+0x2bf5>
    345c:	00 c0       	rjmp	.+0      	; 0x345e <__stack+0x2bff>
    345e:	00 00       	nop
					_delay_ms(period);
					PORTD = 0x01;
    3460:	22 bb       	out	0x12, r18	; 18
    3462:	af ef       	ldi	r26, 0xFF	; 255
    3464:	b1 ee       	ldi	r27, 0xE1	; 225
    3466:	c4 e0       	ldi	r28, 0x04	; 4
    3468:	a1 50       	subi	r26, 0x01	; 1
    346a:	b0 40       	sbci	r27, 0x00	; 0
    346c:	c0 40       	sbci	r28, 0x00	; 0
    346e:	e1 f7       	brne	.-8      	; 0x3468 <__stack+0x2c09>
    3470:	00 c0       	rjmp	.+0      	; 0x3472 <__stack+0x2c13>
    3472:	00 00       	nop
    3474:	01 97       	sbiw	r24, 0x01	; 1
				break;
			}
			case 9:
			{
				/* Rotate Stepper Motor clockwise with Half step sequence */
				for (int i = 0; i < 12; i++)
    3476:	09 f0       	breq	.+2      	; 0x347a <__stack+0x2c1b>
    3478:	ad cf       	rjmp	.-166    	; 0x33d4 <__stack+0x2b75>
					PORTD = 0x03;
					_delay_ms(period);
					PORTD = 0x01;
					_delay_ms(period);
				}
				PORTD = 0x09; /* Last step to initial position */
    347a:	89 e0       	ldi	r24, 0x09	; 9
    347c:	82 bb       	out	0x12, r24	; 18
    347e:	ef ef       	ldi	r30, 0xFF	; 255
    3480:	21 ee       	ldi	r18, 0xE1	; 225
    3482:	64 e0       	ldi	r22, 0x04	; 4
    3484:	e1 50       	subi	r30, 0x01	; 1
    3486:	20 40       	sbci	r18, 0x00	; 0
    3488:	60 40       	sbci	r22, 0x00	; 0
    348a:	e1 f7       	brne	.-8      	; 0x3484 <__stack+0x2c25>
    348c:	00 c0       	rjmp	.+0      	; 0x348e <__stack+0x2c2f>
    348e:	00 00       	nop
    3490:	7f ef       	ldi	r23, 0xFF	; 255
    3492:	83 ed       	ldi	r24, 0xD3	; 211
    3494:	90 e3       	ldi	r25, 0x30	; 48
    3496:	71 50       	subi	r23, 0x01	; 1
    3498:	80 40       	sbci	r24, 0x00	; 0
    349a:	90 40       	sbci	r25, 0x00	; 0
    349c:	e1 f7       	brne	.-8      	; 0x3496 <__stack+0x2c37>
    349e:	00 c0       	rjmp	.+0      	; 0x34a0 <__stack+0x2c41>
    34a0:	00 00       	nop
    34a2:	8c e0       	ldi	r24, 0x0C	; 12
    34a4:	90 e0       	ldi	r25, 0x00	; 0
				_delay_ms(1000);

				/* Rotate Stepper Motor Anticlockwise with Full step sequence */
				for (int i = 0; i < 12; i++)
				{
					PORTD = 0x09;
    34a6:	59 e0       	ldi	r21, 0x09	; 9
					_delay_ms(period);
					PORTD = 0x03;
    34a8:	43 e0       	ldi	r20, 0x03	; 3
					_delay_ms(period);
					PORTD = 0x06;
    34aa:	36 e0       	ldi	r19, 0x06	; 6
					_delay_ms(period);
					PORTD = 0x0C;
    34ac:	2c e0       	ldi	r18, 0x0C	; 12
				_delay_ms(1000);

				/* Rotate Stepper Motor Anticlockwise with Full step sequence */
				for (int i = 0; i < 12; i++)
				{
					PORTD = 0x09;
    34ae:	52 bb       	out	0x12, r21	; 18
    34b0:	af ef       	ldi	r26, 0xFF	; 255
    34b2:	b1 ee       	ldi	r27, 0xE1	; 225
    34b4:	c4 e0       	ldi	r28, 0x04	; 4
    34b6:	a1 50       	subi	r26, 0x01	; 1
    34b8:	b0 40       	sbci	r27, 0x00	; 0
    34ba:	c0 40       	sbci	r28, 0x00	; 0
    34bc:	e1 f7       	brne	.-8      	; 0x34b6 <__stack+0x2c57>
    34be:	00 c0       	rjmp	.+0      	; 0x34c0 <__stack+0x2c61>
    34c0:	00 00       	nop
					_delay_ms(period);
					PORTD = 0x03;
    34c2:	42 bb       	out	0x12, r20	; 18
    34c4:	ef ef       	ldi	r30, 0xFF	; 255
    34c6:	61 ee       	ldi	r22, 0xE1	; 225
    34c8:	74 e0       	ldi	r23, 0x04	; 4
    34ca:	e1 50       	subi	r30, 0x01	; 1
    34cc:	60 40       	sbci	r22, 0x00	; 0
    34ce:	70 40       	sbci	r23, 0x00	; 0
    34d0:	e1 f7       	brne	.-8      	; 0x34ca <__stack+0x2c6b>
    34d2:	00 c0       	rjmp	.+0      	; 0x34d4 <__stack+0x2c75>
    34d4:	00 00       	nop
					_delay_ms(period);
					PORTD = 0x06;
    34d6:	32 bb       	out	0x12, r19	; 18
    34d8:	af ef       	ldi	r26, 0xFF	; 255
    34da:	b1 ee       	ldi	r27, 0xE1	; 225
    34dc:	c4 e0       	ldi	r28, 0x04	; 4
    34de:	a1 50       	subi	r26, 0x01	; 1
    34e0:	b0 40       	sbci	r27, 0x00	; 0
    34e2:	c0 40       	sbci	r28, 0x00	; 0
    34e4:	e1 f7       	brne	.-8      	; 0x34de <__stack+0x2c7f>
    34e6:	00 c0       	rjmp	.+0      	; 0x34e8 <__stack+0x2c89>
    34e8:	00 00       	nop
					_delay_ms(period);
					PORTD = 0x0C;
    34ea:	22 bb       	out	0x12, r18	; 18
    34ec:	ef ef       	ldi	r30, 0xFF	; 255
    34ee:	61 ee       	ldi	r22, 0xE1	; 225
    34f0:	74 e0       	ldi	r23, 0x04	; 4
    34f2:	e1 50       	subi	r30, 0x01	; 1
    34f4:	60 40       	sbci	r22, 0x00	; 0
    34f6:	70 40       	sbci	r23, 0x00	; 0
    34f8:	e1 f7       	brne	.-8      	; 0x34f2 <__stack+0x2c93>
    34fa:	00 c0       	rjmp	.+0      	; 0x34fc <__stack+0x2c9d>
    34fc:	00 00       	nop
    34fe:	01 97       	sbiw	r24, 0x01	; 1
				PORTD = 0x09; /* Last step to initial position */
				_delay_ms(period);
				_delay_ms(1000);

				/* Rotate Stepper Motor Anticlockwise with Full step sequence */
				for (int i = 0; i < 12; i++)
    3500:	b1 f6       	brne	.-84     	; 0x34ae <__stack+0x2c4f>
					PORTD = 0x06;
					_delay_ms(period);
					PORTD = 0x0C;
					_delay_ms(period);
				}
				PORTD = 0x09;
    3502:	89 e0       	ldi	r24, 0x09	; 9
    3504:	82 bb       	out	0x12, r24	; 18
    3506:	8f ef       	ldi	r24, 0xFF	; 255
    3508:	91 ee       	ldi	r25, 0xE1	; 225
    350a:	a4 e0       	ldi	r26, 0x04	; 4
    350c:	81 50       	subi	r24, 0x01	; 1
    350e:	90 40       	sbci	r25, 0x00	; 0
    3510:	a0 40       	sbci	r26, 0x00	; 0
    3512:	e1 f7       	brne	.-8      	; 0x350c <__stack+0x2cad>
    3514:	00 c0       	rjmp	.+0      	; 0x3516 <__stack+0x2cb7>
    3516:	00 00       	nop
    3518:	bf ef       	ldi	r27, 0xFF	; 255
    351a:	c3 ed       	ldi	r28, 0xD3	; 211
    351c:	e0 e3       	ldi	r30, 0x30	; 48
    351e:	b1 50       	subi	r27, 0x01	; 1
    3520:	c0 40       	sbci	r28, 0x00	; 0
    3522:	e0 40       	sbci	r30, 0x00	; 0
    3524:	e1 f7       	brne	.-8      	; 0x351e <__stack+0x2cbf>
    3526:	00 c0       	rjmp	.+0      	; 0x3528 <__stack+0x2cc9>
    3528:	00 00       	nop
    352a:	0c 94 2c 3b 	jmp	0x7658	; 0x7658 <__stack+0x6df9>
				break;
			}
		}
		break;
		case 5:
		switch (personNum)
    352e:	8c e0       	ldi	r24, 0x0C	; 12
    3530:	90 e0       	ldi	r25, 0x00	; 0
			case 1:
			{
				/* Rotate Stepper Motor clockwise with Half step sequence */
				for (int i = 0; i < 12; i++)
				{
					PORTD = 0x09;
    3532:	f9 e0       	ldi	r31, 0x09	; 9
					_delay_ms(period);
					PORTD = 0x08;
    3534:	e8 e0       	ldi	r30, 0x08	; 8
					_delay_ms(period);
					PORTD = 0x0C;
    3536:	7c e0       	ldi	r23, 0x0C	; 12
					_delay_ms(period);
					PORTD = 0x04;
    3538:	64 e0       	ldi	r22, 0x04	; 4
					_delay_ms(period);
					PORTD = 0x06;
    353a:	56 e0       	ldi	r21, 0x06	; 6
					_delay_ms(period);
					PORTD = 0x02;
    353c:	42 e0       	ldi	r20, 0x02	; 2
					_delay_ms(period);
					PORTD = 0x03;
    353e:	33 e0       	ldi	r19, 0x03	; 3
					_delay_ms(period);
					PORTD = 0x01;
    3540:	21 e0       	ldi	r18, 0x01	; 1
			case 1:
			{
				/* Rotate Stepper Motor clockwise with Half step sequence */
				for (int i = 0; i < 12; i++)
				{
					PORTD = 0x09;
    3542:	f2 bb       	out	0x12, r31	; 18
    3544:	af ef       	ldi	r26, 0xFF	; 255
    3546:	b1 ee       	ldi	r27, 0xE1	; 225
    3548:	c4 e0       	ldi	r28, 0x04	; 4
    354a:	a1 50       	subi	r26, 0x01	; 1
    354c:	b0 40       	sbci	r27, 0x00	; 0
    354e:	c0 40       	sbci	r28, 0x00	; 0
    3550:	e1 f7       	brne	.-8      	; 0x354a <__stack+0x2ceb>
    3552:	00 c0       	rjmp	.+0      	; 0x3554 <__stack+0x2cf5>
    3554:	00 00       	nop
					_delay_ms(period);
					PORTD = 0x08;
    3556:	e2 bb       	out	0x12, r30	; 18
    3558:	af ef       	ldi	r26, 0xFF	; 255
    355a:	b1 ee       	ldi	r27, 0xE1	; 225
    355c:	c4 e0       	ldi	r28, 0x04	; 4
    355e:	a1 50       	subi	r26, 0x01	; 1
    3560:	b0 40       	sbci	r27, 0x00	; 0
    3562:	c0 40       	sbci	r28, 0x00	; 0
    3564:	e1 f7       	brne	.-8      	; 0x355e <__stack+0x2cff>
    3566:	00 c0       	rjmp	.+0      	; 0x3568 <__stack+0x2d09>
    3568:	00 00       	nop
					_delay_ms(period);
					PORTD = 0x0C;
    356a:	72 bb       	out	0x12, r23	; 18
    356c:	af ef       	ldi	r26, 0xFF	; 255
    356e:	b1 ee       	ldi	r27, 0xE1	; 225
    3570:	c4 e0       	ldi	r28, 0x04	; 4
    3572:	a1 50       	subi	r26, 0x01	; 1
    3574:	b0 40       	sbci	r27, 0x00	; 0
    3576:	c0 40       	sbci	r28, 0x00	; 0
    3578:	e1 f7       	brne	.-8      	; 0x3572 <__stack+0x2d13>
    357a:	00 c0       	rjmp	.+0      	; 0x357c <__stack+0x2d1d>
    357c:	00 00       	nop
					_delay_ms(period);
					PORTD = 0x04;
    357e:	62 bb       	out	0x12, r22	; 18
    3580:	af ef       	ldi	r26, 0xFF	; 255
    3582:	b1 ee       	ldi	r27, 0xE1	; 225
    3584:	c4 e0       	ldi	r28, 0x04	; 4
    3586:	a1 50       	subi	r26, 0x01	; 1
    3588:	b0 40       	sbci	r27, 0x00	; 0
    358a:	c0 40       	sbci	r28, 0x00	; 0
    358c:	e1 f7       	brne	.-8      	; 0x3586 <__stack+0x2d27>
    358e:	00 c0       	rjmp	.+0      	; 0x3590 <__stack+0x2d31>
    3590:	00 00       	nop
					_delay_ms(period);
					PORTD = 0x06;
    3592:	52 bb       	out	0x12, r21	; 18
    3594:	af ef       	ldi	r26, 0xFF	; 255
    3596:	b1 ee       	ldi	r27, 0xE1	; 225
    3598:	c4 e0       	ldi	r28, 0x04	; 4
    359a:	a1 50       	subi	r26, 0x01	; 1
    359c:	b0 40       	sbci	r27, 0x00	; 0
    359e:	c0 40       	sbci	r28, 0x00	; 0
    35a0:	e1 f7       	brne	.-8      	; 0x359a <__stack+0x2d3b>
    35a2:	00 c0       	rjmp	.+0      	; 0x35a4 <__stack+0x2d45>
    35a4:	00 00       	nop
					_delay_ms(period);
					PORTD = 0x02;
    35a6:	42 bb       	out	0x12, r20	; 18
    35a8:	af ef       	ldi	r26, 0xFF	; 255
    35aa:	b1 ee       	ldi	r27, 0xE1	; 225
    35ac:	c4 e0       	ldi	r28, 0x04	; 4
    35ae:	a1 50       	subi	r26, 0x01	; 1
    35b0:	b0 40       	sbci	r27, 0x00	; 0
    35b2:	c0 40       	sbci	r28, 0x00	; 0
    35b4:	e1 f7       	brne	.-8      	; 0x35ae <__stack+0x2d4f>
    35b6:	00 c0       	rjmp	.+0      	; 0x35b8 <__stack+0x2d59>
    35b8:	00 00       	nop
					_delay_ms(period);
					PORTD = 0x03;
    35ba:	32 bb       	out	0x12, r19	; 18
    35bc:	af ef       	ldi	r26, 0xFF	; 255
    35be:	b1 ee       	ldi	r27, 0xE1	; 225
    35c0:	c4 e0       	ldi	r28, 0x04	; 4
    35c2:	a1 50       	subi	r26, 0x01	; 1
    35c4:	b0 40       	sbci	r27, 0x00	; 0
    35c6:	c0 40       	sbci	r28, 0x00	; 0
    35c8:	e1 f7       	brne	.-8      	; 0x35c2 <__stack+0x2d63>
    35ca:	00 c0       	rjmp	.+0      	; 0x35cc <__stack+0x2d6d>
    35cc:	00 00       	nop
					_delay_ms(period);
					PORTD = 0x01;
    35ce:	22 bb       	out	0x12, r18	; 18
    35d0:	af ef       	ldi	r26, 0xFF	; 255
    35d2:	b1 ee       	ldi	r27, 0xE1	; 225
    35d4:	c4 e0       	ldi	r28, 0x04	; 4
    35d6:	a1 50       	subi	r26, 0x01	; 1
    35d8:	b0 40       	sbci	r27, 0x00	; 0
    35da:	c0 40       	sbci	r28, 0x00	; 0
    35dc:	e1 f7       	brne	.-8      	; 0x35d6 <__stack+0x2d77>
    35de:	00 c0       	rjmp	.+0      	; 0x35e0 <__stack+0x2d81>
    35e0:	00 00       	nop
    35e2:	01 97       	sbiw	r24, 0x01	; 1
		switch (personNum)
		{
			case 1:
			{
				/* Rotate Stepper Motor clockwise with Half step sequence */
				for (int i = 0; i < 12; i++)
    35e4:	09 f0       	breq	.+2      	; 0x35e8 <__stack+0x2d89>
    35e6:	ad cf       	rjmp	.-166    	; 0x3542 <__stack+0x2ce3>
					PORTD = 0x03;
					_delay_ms(period);
					PORTD = 0x01;
					_delay_ms(period);
				}
				PORTD = 0x09; /* Last step to initial position */
    35e8:	89 e0       	ldi	r24, 0x09	; 9
    35ea:	82 bb       	out	0x12, r24	; 18
    35ec:	ef ef       	ldi	r30, 0xFF	; 255
    35ee:	21 ee       	ldi	r18, 0xE1	; 225
    35f0:	64 e0       	ldi	r22, 0x04	; 4
    35f2:	e1 50       	subi	r30, 0x01	; 1
    35f4:	20 40       	sbci	r18, 0x00	; 0
    35f6:	60 40       	sbci	r22, 0x00	; 0
    35f8:	e1 f7       	brne	.-8      	; 0x35f2 <__stack+0x2d93>
    35fa:	00 c0       	rjmp	.+0      	; 0x35fc <__stack+0x2d9d>
    35fc:	00 00       	nop
    35fe:	7f ef       	ldi	r23, 0xFF	; 255
    3600:	83 ed       	ldi	r24, 0xD3	; 211
    3602:	90 e3       	ldi	r25, 0x30	; 48
    3604:	71 50       	subi	r23, 0x01	; 1
    3606:	80 40       	sbci	r24, 0x00	; 0
    3608:	90 40       	sbci	r25, 0x00	; 0
    360a:	e1 f7       	brne	.-8      	; 0x3604 <__stack+0x2da5>
    360c:	00 c0       	rjmp	.+0      	; 0x360e <__stack+0x2daf>
    360e:	00 00       	nop
    3610:	8c e0       	ldi	r24, 0x0C	; 12
    3612:	90 e0       	ldi	r25, 0x00	; 0
				_delay_ms(1000);

				/* Rotate Stepper Motor Anticlockwise with Full step sequence */
				for (int i = 0; i < 12; i++)
				{
					PORTD = 0x09;
    3614:	59 e0       	ldi	r21, 0x09	; 9
					_delay_ms(period);
					PORTD = 0x03;
    3616:	43 e0       	ldi	r20, 0x03	; 3
					_delay_ms(period);
					PORTD = 0x06;
    3618:	36 e0       	ldi	r19, 0x06	; 6
					_delay_ms(period);
					PORTD = 0x0C;
    361a:	2c e0       	ldi	r18, 0x0C	; 12
				_delay_ms(1000);

				/* Rotate Stepper Motor Anticlockwise with Full step sequence */
				for (int i = 0; i < 12; i++)
				{
					PORTD = 0x09;
    361c:	52 bb       	out	0x12, r21	; 18
    361e:	af ef       	ldi	r26, 0xFF	; 255
    3620:	b1 ee       	ldi	r27, 0xE1	; 225
    3622:	c4 e0       	ldi	r28, 0x04	; 4
    3624:	a1 50       	subi	r26, 0x01	; 1
    3626:	b0 40       	sbci	r27, 0x00	; 0
    3628:	c0 40       	sbci	r28, 0x00	; 0
    362a:	e1 f7       	brne	.-8      	; 0x3624 <__stack+0x2dc5>
    362c:	00 c0       	rjmp	.+0      	; 0x362e <__stack+0x2dcf>
    362e:	00 00       	nop
					_delay_ms(period);
					PORTD = 0x03;
    3630:	42 bb       	out	0x12, r20	; 18
    3632:	ef ef       	ldi	r30, 0xFF	; 255
    3634:	61 ee       	ldi	r22, 0xE1	; 225
    3636:	74 e0       	ldi	r23, 0x04	; 4
    3638:	e1 50       	subi	r30, 0x01	; 1
    363a:	60 40       	sbci	r22, 0x00	; 0
    363c:	70 40       	sbci	r23, 0x00	; 0
    363e:	e1 f7       	brne	.-8      	; 0x3638 <__stack+0x2dd9>
    3640:	00 c0       	rjmp	.+0      	; 0x3642 <__stack+0x2de3>
    3642:	00 00       	nop
					_delay_ms(period);
					PORTD = 0x06;
    3644:	32 bb       	out	0x12, r19	; 18
    3646:	af ef       	ldi	r26, 0xFF	; 255
    3648:	b1 ee       	ldi	r27, 0xE1	; 225
    364a:	c4 e0       	ldi	r28, 0x04	; 4
    364c:	a1 50       	subi	r26, 0x01	; 1
    364e:	b0 40       	sbci	r27, 0x00	; 0
    3650:	c0 40       	sbci	r28, 0x00	; 0
    3652:	e1 f7       	brne	.-8      	; 0x364c <__stack+0x2ded>
    3654:	00 c0       	rjmp	.+0      	; 0x3656 <__stack+0x2df7>
    3656:	00 00       	nop
					_delay_ms(period);
					PORTD = 0x0C;
    3658:	22 bb       	out	0x12, r18	; 18
    365a:	ef ef       	ldi	r30, 0xFF	; 255
    365c:	61 ee       	ldi	r22, 0xE1	; 225
    365e:	74 e0       	ldi	r23, 0x04	; 4
    3660:	e1 50       	subi	r30, 0x01	; 1
    3662:	60 40       	sbci	r22, 0x00	; 0
    3664:	70 40       	sbci	r23, 0x00	; 0
    3666:	e1 f7       	brne	.-8      	; 0x3660 <__stack+0x2e01>
    3668:	00 c0       	rjmp	.+0      	; 0x366a <__stack+0x2e0b>
    366a:	00 00       	nop
    366c:	01 97       	sbiw	r24, 0x01	; 1
				PORTD = 0x09; /* Last step to initial position */
				_delay_ms(period);
				_delay_ms(1000);

				/* Rotate Stepper Motor Anticlockwise with Full step sequence */
				for (int i = 0; i < 12; i++)
    366e:	b1 f6       	brne	.-84     	; 0x361c <__stack+0x2dbd>
					PORTD = 0x06;
					_delay_ms(period);
					PORTD = 0x0C;
					_delay_ms(period);
				}
				PORTD = 0x09;
    3670:	89 e0       	ldi	r24, 0x09	; 9
    3672:	82 bb       	out	0x12, r24	; 18
    3674:	8f ef       	ldi	r24, 0xFF	; 255
    3676:	91 ee       	ldi	r25, 0xE1	; 225
    3678:	a4 e0       	ldi	r26, 0x04	; 4
    367a:	81 50       	subi	r24, 0x01	; 1
    367c:	90 40       	sbci	r25, 0x00	; 0
    367e:	a0 40       	sbci	r26, 0x00	; 0
    3680:	e1 f7       	brne	.-8      	; 0x367a <__stack+0x2e1b>
    3682:	00 c0       	rjmp	.+0      	; 0x3684 <__stack+0x2e25>
    3684:	00 00       	nop
    3686:	bf ef       	ldi	r27, 0xFF	; 255
    3688:	c3 ed       	ldi	r28, 0xD3	; 211
    368a:	e0 e3       	ldi	r30, 0x30	; 48
    368c:	b1 50       	subi	r27, 0x01	; 1
    368e:	c0 40       	sbci	r28, 0x00	; 0
    3690:	e0 40       	sbci	r30, 0x00	; 0
    3692:	e1 f7       	brne	.-8      	; 0x368c <__stack+0x2e2d>
    3694:	00 c0       	rjmp	.+0      	; 0x3696 <__stack+0x2e37>
    3696:	00 00       	nop
    3698:	0c 94 2c 3b 	jmp	0x7658	; 0x7658 <__stack+0x6df9>
				break;
			}
		}
		break;
		case 5:
		switch (personNum)
    369c:	8c e0       	ldi	r24, 0x0C	; 12
    369e:	90 e0       	ldi	r25, 0x00	; 0
			case 2:
			{
				/* Rotate Stepper Motor clockwise with Half step sequence */
				for (int i = 0; i < 12; i++)
				{
					PORTD = 0x09;
    36a0:	f9 e0       	ldi	r31, 0x09	; 9
					_delay_ms(period);
					PORTD = 0x08;
    36a2:	e8 e0       	ldi	r30, 0x08	; 8
					_delay_ms(period);
					PORTD = 0x0C;
    36a4:	7c e0       	ldi	r23, 0x0C	; 12
					_delay_ms(period);
					PORTD = 0x04;
    36a6:	64 e0       	ldi	r22, 0x04	; 4
					_delay_ms(period);
					PORTD = 0x06;
    36a8:	56 e0       	ldi	r21, 0x06	; 6
					_delay_ms(period);
					PORTD = 0x02;
    36aa:	42 e0       	ldi	r20, 0x02	; 2
					_delay_ms(period);
					PORTD = 0x03;
    36ac:	33 e0       	ldi	r19, 0x03	; 3
					_delay_ms(period);
					PORTD = 0x01;
    36ae:	21 e0       	ldi	r18, 0x01	; 1
			case 2:
			{
				/* Rotate Stepper Motor clockwise with Half step sequence */
				for (int i = 0; i < 12; i++)
				{
					PORTD = 0x09;
    36b0:	f2 bb       	out	0x12, r31	; 18
    36b2:	af ef       	ldi	r26, 0xFF	; 255
    36b4:	b1 ee       	ldi	r27, 0xE1	; 225
    36b6:	c4 e0       	ldi	r28, 0x04	; 4
    36b8:	a1 50       	subi	r26, 0x01	; 1
    36ba:	b0 40       	sbci	r27, 0x00	; 0
    36bc:	c0 40       	sbci	r28, 0x00	; 0
    36be:	e1 f7       	brne	.-8      	; 0x36b8 <__stack+0x2e59>
    36c0:	00 c0       	rjmp	.+0      	; 0x36c2 <__stack+0x2e63>
    36c2:	00 00       	nop
					_delay_ms(period);
					PORTD = 0x08;
    36c4:	e2 bb       	out	0x12, r30	; 18
    36c6:	af ef       	ldi	r26, 0xFF	; 255
    36c8:	b1 ee       	ldi	r27, 0xE1	; 225
    36ca:	c4 e0       	ldi	r28, 0x04	; 4
    36cc:	a1 50       	subi	r26, 0x01	; 1
    36ce:	b0 40       	sbci	r27, 0x00	; 0
    36d0:	c0 40       	sbci	r28, 0x00	; 0
    36d2:	e1 f7       	brne	.-8      	; 0x36cc <__stack+0x2e6d>
    36d4:	00 c0       	rjmp	.+0      	; 0x36d6 <__stack+0x2e77>
    36d6:	00 00       	nop
					_delay_ms(period);
					PORTD = 0x0C;
    36d8:	72 bb       	out	0x12, r23	; 18
    36da:	af ef       	ldi	r26, 0xFF	; 255
    36dc:	b1 ee       	ldi	r27, 0xE1	; 225
    36de:	c4 e0       	ldi	r28, 0x04	; 4
    36e0:	a1 50       	subi	r26, 0x01	; 1
    36e2:	b0 40       	sbci	r27, 0x00	; 0
    36e4:	c0 40       	sbci	r28, 0x00	; 0
    36e6:	e1 f7       	brne	.-8      	; 0x36e0 <__stack+0x2e81>
    36e8:	00 c0       	rjmp	.+0      	; 0x36ea <__stack+0x2e8b>
    36ea:	00 00       	nop
					_delay_ms(period);
					PORTD = 0x04;
    36ec:	62 bb       	out	0x12, r22	; 18
    36ee:	af ef       	ldi	r26, 0xFF	; 255
    36f0:	b1 ee       	ldi	r27, 0xE1	; 225
    36f2:	c4 e0       	ldi	r28, 0x04	; 4
    36f4:	a1 50       	subi	r26, 0x01	; 1
    36f6:	b0 40       	sbci	r27, 0x00	; 0
    36f8:	c0 40       	sbci	r28, 0x00	; 0
    36fa:	e1 f7       	brne	.-8      	; 0x36f4 <__stack+0x2e95>
    36fc:	00 c0       	rjmp	.+0      	; 0x36fe <__stack+0x2e9f>
    36fe:	00 00       	nop
					_delay_ms(period);
					PORTD = 0x06;
    3700:	52 bb       	out	0x12, r21	; 18
    3702:	af ef       	ldi	r26, 0xFF	; 255
    3704:	b1 ee       	ldi	r27, 0xE1	; 225
    3706:	c4 e0       	ldi	r28, 0x04	; 4
    3708:	a1 50       	subi	r26, 0x01	; 1
    370a:	b0 40       	sbci	r27, 0x00	; 0
    370c:	c0 40       	sbci	r28, 0x00	; 0
    370e:	e1 f7       	brne	.-8      	; 0x3708 <__stack+0x2ea9>
    3710:	00 c0       	rjmp	.+0      	; 0x3712 <__stack+0x2eb3>
    3712:	00 00       	nop
					_delay_ms(period);
					PORTD = 0x02;
    3714:	42 bb       	out	0x12, r20	; 18
    3716:	af ef       	ldi	r26, 0xFF	; 255
    3718:	b1 ee       	ldi	r27, 0xE1	; 225
    371a:	c4 e0       	ldi	r28, 0x04	; 4
    371c:	a1 50       	subi	r26, 0x01	; 1
    371e:	b0 40       	sbci	r27, 0x00	; 0
    3720:	c0 40       	sbci	r28, 0x00	; 0
    3722:	e1 f7       	brne	.-8      	; 0x371c <__stack+0x2ebd>
    3724:	00 c0       	rjmp	.+0      	; 0x3726 <__stack+0x2ec7>
    3726:	00 00       	nop
					_delay_ms(period);
					PORTD = 0x03;
    3728:	32 bb       	out	0x12, r19	; 18
    372a:	af ef       	ldi	r26, 0xFF	; 255
    372c:	b1 ee       	ldi	r27, 0xE1	; 225
    372e:	c4 e0       	ldi	r28, 0x04	; 4
    3730:	a1 50       	subi	r26, 0x01	; 1
    3732:	b0 40       	sbci	r27, 0x00	; 0
    3734:	c0 40       	sbci	r28, 0x00	; 0
    3736:	e1 f7       	brne	.-8      	; 0x3730 <__stack+0x2ed1>
    3738:	00 c0       	rjmp	.+0      	; 0x373a <__stack+0x2edb>
    373a:	00 00       	nop
					_delay_ms(period);
					PORTD = 0x01;
    373c:	22 bb       	out	0x12, r18	; 18
    373e:	af ef       	ldi	r26, 0xFF	; 255
    3740:	b1 ee       	ldi	r27, 0xE1	; 225
    3742:	c4 e0       	ldi	r28, 0x04	; 4
    3744:	a1 50       	subi	r26, 0x01	; 1
    3746:	b0 40       	sbci	r27, 0x00	; 0
    3748:	c0 40       	sbci	r28, 0x00	; 0
    374a:	e1 f7       	brne	.-8      	; 0x3744 <__stack+0x2ee5>
    374c:	00 c0       	rjmp	.+0      	; 0x374e <__stack+0x2eef>
    374e:	00 00       	nop
    3750:	01 97       	sbiw	r24, 0x01	; 1
				break;
			}
			case 2:
			{
				/* Rotate Stepper Motor clockwise with Half step sequence */
				for (int i = 0; i < 12; i++)
    3752:	09 f0       	breq	.+2      	; 0x3756 <__stack+0x2ef7>
    3754:	ad cf       	rjmp	.-166    	; 0x36b0 <__stack+0x2e51>
					PORTD = 0x03;
					_delay_ms(period);
					PORTD = 0x01;
					_delay_ms(period);
				}
				PORTD = 0x09; /* Last step to initial position */
    3756:	89 e0       	ldi	r24, 0x09	; 9
    3758:	82 bb       	out	0x12, r24	; 18
    375a:	ef ef       	ldi	r30, 0xFF	; 255
    375c:	21 ee       	ldi	r18, 0xE1	; 225
    375e:	64 e0       	ldi	r22, 0x04	; 4
    3760:	e1 50       	subi	r30, 0x01	; 1
    3762:	20 40       	sbci	r18, 0x00	; 0
    3764:	60 40       	sbci	r22, 0x00	; 0
    3766:	e1 f7       	brne	.-8      	; 0x3760 <__stack+0x2f01>
    3768:	00 c0       	rjmp	.+0      	; 0x376a <__stack+0x2f0b>
    376a:	00 00       	nop
    376c:	7f ef       	ldi	r23, 0xFF	; 255
    376e:	83 ed       	ldi	r24, 0xD3	; 211
    3770:	90 e3       	ldi	r25, 0x30	; 48
    3772:	71 50       	subi	r23, 0x01	; 1
    3774:	80 40       	sbci	r24, 0x00	; 0
    3776:	90 40       	sbci	r25, 0x00	; 0
    3778:	e1 f7       	brne	.-8      	; 0x3772 <__stack+0x2f13>
    377a:	00 c0       	rjmp	.+0      	; 0x377c <__stack+0x2f1d>
    377c:	00 00       	nop
    377e:	8c e0       	ldi	r24, 0x0C	; 12
    3780:	90 e0       	ldi	r25, 0x00	; 0
				_delay_ms(1000);

				/* Rotate Stepper Motor Anticlockwise with Full step sequence */
				for (int i = 0; i < 12; i++)
				{
					PORTD = 0x09;
    3782:	59 e0       	ldi	r21, 0x09	; 9
					_delay_ms(period);
					PORTD = 0x03;
    3784:	43 e0       	ldi	r20, 0x03	; 3
					_delay_ms(period);
					PORTD = 0x06;
    3786:	36 e0       	ldi	r19, 0x06	; 6
					_delay_ms(period);
					PORTD = 0x0C;
    3788:	2c e0       	ldi	r18, 0x0C	; 12
				_delay_ms(1000);

				/* Rotate Stepper Motor Anticlockwise with Full step sequence */
				for (int i = 0; i < 12; i++)
				{
					PORTD = 0x09;
    378a:	52 bb       	out	0x12, r21	; 18
    378c:	af ef       	ldi	r26, 0xFF	; 255
    378e:	b1 ee       	ldi	r27, 0xE1	; 225
    3790:	c4 e0       	ldi	r28, 0x04	; 4
    3792:	a1 50       	subi	r26, 0x01	; 1
    3794:	b0 40       	sbci	r27, 0x00	; 0
    3796:	c0 40       	sbci	r28, 0x00	; 0
    3798:	e1 f7       	brne	.-8      	; 0x3792 <__stack+0x2f33>
    379a:	00 c0       	rjmp	.+0      	; 0x379c <__stack+0x2f3d>
    379c:	00 00       	nop
					_delay_ms(period);
					PORTD = 0x03;
    379e:	42 bb       	out	0x12, r20	; 18
    37a0:	ef ef       	ldi	r30, 0xFF	; 255
    37a2:	61 ee       	ldi	r22, 0xE1	; 225
    37a4:	74 e0       	ldi	r23, 0x04	; 4
    37a6:	e1 50       	subi	r30, 0x01	; 1
    37a8:	60 40       	sbci	r22, 0x00	; 0
    37aa:	70 40       	sbci	r23, 0x00	; 0
    37ac:	e1 f7       	brne	.-8      	; 0x37a6 <__stack+0x2f47>
    37ae:	00 c0       	rjmp	.+0      	; 0x37b0 <__stack+0x2f51>
    37b0:	00 00       	nop
					_delay_ms(period);
					PORTD = 0x06;
    37b2:	32 bb       	out	0x12, r19	; 18
    37b4:	af ef       	ldi	r26, 0xFF	; 255
    37b6:	b1 ee       	ldi	r27, 0xE1	; 225
    37b8:	c4 e0       	ldi	r28, 0x04	; 4
    37ba:	a1 50       	subi	r26, 0x01	; 1
    37bc:	b0 40       	sbci	r27, 0x00	; 0
    37be:	c0 40       	sbci	r28, 0x00	; 0
    37c0:	e1 f7       	brne	.-8      	; 0x37ba <__stack+0x2f5b>
    37c2:	00 c0       	rjmp	.+0      	; 0x37c4 <__stack+0x2f65>
    37c4:	00 00       	nop
					_delay_ms(period);
					PORTD = 0x0C;
    37c6:	22 bb       	out	0x12, r18	; 18
    37c8:	ef ef       	ldi	r30, 0xFF	; 255
    37ca:	61 ee       	ldi	r22, 0xE1	; 225
    37cc:	74 e0       	ldi	r23, 0x04	; 4
    37ce:	e1 50       	subi	r30, 0x01	; 1
    37d0:	60 40       	sbci	r22, 0x00	; 0
    37d2:	70 40       	sbci	r23, 0x00	; 0
    37d4:	e1 f7       	brne	.-8      	; 0x37ce <__stack+0x2f6f>
    37d6:	00 c0       	rjmp	.+0      	; 0x37d8 <__stack+0x2f79>
    37d8:	00 00       	nop
    37da:	01 97       	sbiw	r24, 0x01	; 1
				PORTD = 0x09; /* Last step to initial position */
				_delay_ms(period);
				_delay_ms(1000);

				/* Rotate Stepper Motor Anticlockwise with Full step sequence */
				for (int i = 0; i < 12; i++)
    37dc:	b1 f6       	brne	.-84     	; 0x378a <__stack+0x2f2b>
					PORTD = 0x06;
					_delay_ms(period);
					PORTD = 0x0C;
					_delay_ms(period);
				}
				PORTD = 0x09;
    37de:	89 e0       	ldi	r24, 0x09	; 9
    37e0:	82 bb       	out	0x12, r24	; 18
    37e2:	8f ef       	ldi	r24, 0xFF	; 255
    37e4:	91 ee       	ldi	r25, 0xE1	; 225
    37e6:	a4 e0       	ldi	r26, 0x04	; 4
    37e8:	81 50       	subi	r24, 0x01	; 1
    37ea:	90 40       	sbci	r25, 0x00	; 0
    37ec:	a0 40       	sbci	r26, 0x00	; 0
    37ee:	e1 f7       	brne	.-8      	; 0x37e8 <__stack+0x2f89>
    37f0:	00 c0       	rjmp	.+0      	; 0x37f2 <__stack+0x2f93>
    37f2:	00 00       	nop
    37f4:	bf ef       	ldi	r27, 0xFF	; 255
    37f6:	c3 ed       	ldi	r28, 0xD3	; 211
    37f8:	e0 e3       	ldi	r30, 0x30	; 48
    37fa:	b1 50       	subi	r27, 0x01	; 1
    37fc:	c0 40       	sbci	r28, 0x00	; 0
    37fe:	e0 40       	sbci	r30, 0x00	; 0
    3800:	e1 f7       	brne	.-8      	; 0x37fa <__stack+0x2f9b>
    3802:	00 c0       	rjmp	.+0      	; 0x3804 <__stack+0x2fa5>
    3804:	00 00       	nop
    3806:	0c 94 2c 3b 	jmp	0x7658	; 0x7658 <__stack+0x6df9>
				break;
			}
		}
		break;
		case 5:
		switch (personNum)
    380a:	8c e0       	ldi	r24, 0x0C	; 12
    380c:	90 e0       	ldi	r25, 0x00	; 0
			case 3:
			{
				/* Rotate Stepper Motor clockwise with Half step sequence */
				for (int i = 0; i < 12; i++)
				{
					PORTD = 0x09;
    380e:	f9 e0       	ldi	r31, 0x09	; 9
					_delay_ms(period);
					PORTD = 0x08;
    3810:	e8 e0       	ldi	r30, 0x08	; 8
					_delay_ms(period);
					PORTD = 0x0C;
    3812:	7c e0       	ldi	r23, 0x0C	; 12
					_delay_ms(period);
					PORTD = 0x04;
    3814:	64 e0       	ldi	r22, 0x04	; 4
					_delay_ms(period);
					PORTD = 0x06;
    3816:	56 e0       	ldi	r21, 0x06	; 6
					_delay_ms(period);
					PORTD = 0x02;
    3818:	42 e0       	ldi	r20, 0x02	; 2
					_delay_ms(period);
					PORTD = 0x03;
    381a:	33 e0       	ldi	r19, 0x03	; 3
					_delay_ms(period);
					PORTD = 0x01;
    381c:	21 e0       	ldi	r18, 0x01	; 1
			case 3:
			{
				/* Rotate Stepper Motor clockwise with Half step sequence */
				for (int i = 0; i < 12; i++)
				{
					PORTD = 0x09;
    381e:	f2 bb       	out	0x12, r31	; 18
    3820:	af ef       	ldi	r26, 0xFF	; 255
    3822:	b1 ee       	ldi	r27, 0xE1	; 225
    3824:	c4 e0       	ldi	r28, 0x04	; 4
    3826:	a1 50       	subi	r26, 0x01	; 1
    3828:	b0 40       	sbci	r27, 0x00	; 0
    382a:	c0 40       	sbci	r28, 0x00	; 0
    382c:	e1 f7       	brne	.-8      	; 0x3826 <__stack+0x2fc7>
    382e:	00 c0       	rjmp	.+0      	; 0x3830 <__stack+0x2fd1>
    3830:	00 00       	nop
					_delay_ms(period);
					PORTD = 0x08;
    3832:	e2 bb       	out	0x12, r30	; 18
    3834:	af ef       	ldi	r26, 0xFF	; 255
    3836:	b1 ee       	ldi	r27, 0xE1	; 225
    3838:	c4 e0       	ldi	r28, 0x04	; 4
    383a:	a1 50       	subi	r26, 0x01	; 1
    383c:	b0 40       	sbci	r27, 0x00	; 0
    383e:	c0 40       	sbci	r28, 0x00	; 0
    3840:	e1 f7       	brne	.-8      	; 0x383a <__stack+0x2fdb>
    3842:	00 c0       	rjmp	.+0      	; 0x3844 <__stack+0x2fe5>
    3844:	00 00       	nop
					_delay_ms(period);
					PORTD = 0x0C;
    3846:	72 bb       	out	0x12, r23	; 18
    3848:	af ef       	ldi	r26, 0xFF	; 255
    384a:	b1 ee       	ldi	r27, 0xE1	; 225
    384c:	c4 e0       	ldi	r28, 0x04	; 4
    384e:	a1 50       	subi	r26, 0x01	; 1
    3850:	b0 40       	sbci	r27, 0x00	; 0
    3852:	c0 40       	sbci	r28, 0x00	; 0
    3854:	e1 f7       	brne	.-8      	; 0x384e <__stack+0x2fef>
    3856:	00 c0       	rjmp	.+0      	; 0x3858 <__stack+0x2ff9>
    3858:	00 00       	nop
					_delay_ms(period);
					PORTD = 0x04;
    385a:	62 bb       	out	0x12, r22	; 18
    385c:	af ef       	ldi	r26, 0xFF	; 255
    385e:	b1 ee       	ldi	r27, 0xE1	; 225
    3860:	c4 e0       	ldi	r28, 0x04	; 4
    3862:	a1 50       	subi	r26, 0x01	; 1
    3864:	b0 40       	sbci	r27, 0x00	; 0
    3866:	c0 40       	sbci	r28, 0x00	; 0
    3868:	e1 f7       	brne	.-8      	; 0x3862 <__stack+0x3003>
    386a:	00 c0       	rjmp	.+0      	; 0x386c <__stack+0x300d>
    386c:	00 00       	nop
					_delay_ms(period);
					PORTD = 0x06;
    386e:	52 bb       	out	0x12, r21	; 18
    3870:	af ef       	ldi	r26, 0xFF	; 255
    3872:	b1 ee       	ldi	r27, 0xE1	; 225
    3874:	c4 e0       	ldi	r28, 0x04	; 4
    3876:	a1 50       	subi	r26, 0x01	; 1
    3878:	b0 40       	sbci	r27, 0x00	; 0
    387a:	c0 40       	sbci	r28, 0x00	; 0
    387c:	e1 f7       	brne	.-8      	; 0x3876 <__stack+0x3017>
    387e:	00 c0       	rjmp	.+0      	; 0x3880 <__stack+0x3021>
    3880:	00 00       	nop
					_delay_ms(period);
					PORTD = 0x02;
    3882:	42 bb       	out	0x12, r20	; 18
    3884:	af ef       	ldi	r26, 0xFF	; 255
    3886:	b1 ee       	ldi	r27, 0xE1	; 225
    3888:	c4 e0       	ldi	r28, 0x04	; 4
    388a:	a1 50       	subi	r26, 0x01	; 1
    388c:	b0 40       	sbci	r27, 0x00	; 0
    388e:	c0 40       	sbci	r28, 0x00	; 0
    3890:	e1 f7       	brne	.-8      	; 0x388a <__stack+0x302b>
    3892:	00 c0       	rjmp	.+0      	; 0x3894 <__stack+0x3035>
    3894:	00 00       	nop
					_delay_ms(period);
					PORTD = 0x03;
    3896:	32 bb       	out	0x12, r19	; 18
    3898:	af ef       	ldi	r26, 0xFF	; 255
    389a:	b1 ee       	ldi	r27, 0xE1	; 225
    389c:	c4 e0       	ldi	r28, 0x04	; 4
    389e:	a1 50       	subi	r26, 0x01	; 1
    38a0:	b0 40       	sbci	r27, 0x00	; 0
    38a2:	c0 40       	sbci	r28, 0x00	; 0
    38a4:	e1 f7       	brne	.-8      	; 0x389e <__stack+0x303f>
    38a6:	00 c0       	rjmp	.+0      	; 0x38a8 <__stack+0x3049>
    38a8:	00 00       	nop
					_delay_ms(period);
					PORTD = 0x01;
    38aa:	22 bb       	out	0x12, r18	; 18
    38ac:	af ef       	ldi	r26, 0xFF	; 255
    38ae:	b1 ee       	ldi	r27, 0xE1	; 225
    38b0:	c4 e0       	ldi	r28, 0x04	; 4
    38b2:	a1 50       	subi	r26, 0x01	; 1
    38b4:	b0 40       	sbci	r27, 0x00	; 0
    38b6:	c0 40       	sbci	r28, 0x00	; 0
    38b8:	e1 f7       	brne	.-8      	; 0x38b2 <__stack+0x3053>
    38ba:	00 c0       	rjmp	.+0      	; 0x38bc <__stack+0x305d>
    38bc:	00 00       	nop
    38be:	01 97       	sbiw	r24, 0x01	; 1
				break;
			}
			case 3:
			{
				/* Rotate Stepper Motor clockwise with Half step sequence */
				for (int i = 0; i < 12; i++)
    38c0:	09 f0       	breq	.+2      	; 0x38c4 <__stack+0x3065>
    38c2:	ad cf       	rjmp	.-166    	; 0x381e <__stack+0x2fbf>
					PORTD = 0x03;
					_delay_ms(period);
					PORTD = 0x01;
					_delay_ms(period);
				}
				PORTD = 0x09; /* Last step to initial position */
    38c4:	89 e0       	ldi	r24, 0x09	; 9
    38c6:	82 bb       	out	0x12, r24	; 18
    38c8:	ef ef       	ldi	r30, 0xFF	; 255
    38ca:	21 ee       	ldi	r18, 0xE1	; 225
    38cc:	64 e0       	ldi	r22, 0x04	; 4
    38ce:	e1 50       	subi	r30, 0x01	; 1
    38d0:	20 40       	sbci	r18, 0x00	; 0
    38d2:	60 40       	sbci	r22, 0x00	; 0
    38d4:	e1 f7       	brne	.-8      	; 0x38ce <__stack+0x306f>
    38d6:	00 c0       	rjmp	.+0      	; 0x38d8 <__stack+0x3079>
    38d8:	00 00       	nop
    38da:	7f ef       	ldi	r23, 0xFF	; 255
    38dc:	83 ed       	ldi	r24, 0xD3	; 211
    38de:	90 e3       	ldi	r25, 0x30	; 48
    38e0:	71 50       	subi	r23, 0x01	; 1
    38e2:	80 40       	sbci	r24, 0x00	; 0
    38e4:	90 40       	sbci	r25, 0x00	; 0
    38e6:	e1 f7       	brne	.-8      	; 0x38e0 <__stack+0x3081>
    38e8:	00 c0       	rjmp	.+0      	; 0x38ea <__stack+0x308b>
    38ea:	00 00       	nop
    38ec:	8c e0       	ldi	r24, 0x0C	; 12
    38ee:	90 e0       	ldi	r25, 0x00	; 0
				_delay_ms(1000);

				/* Rotate Stepper Motor Anticlockwise with Full step sequence */
				for (int i = 0; i < 12; i++)
				{
					PORTD = 0x09;
    38f0:	59 e0       	ldi	r21, 0x09	; 9
					_delay_ms(period);
					PORTD = 0x03;
    38f2:	43 e0       	ldi	r20, 0x03	; 3
					_delay_ms(period);
					PORTD = 0x06;
    38f4:	36 e0       	ldi	r19, 0x06	; 6
					_delay_ms(period);
					PORTD = 0x0C;
    38f6:	2c e0       	ldi	r18, 0x0C	; 12
				_delay_ms(1000);

				/* Rotate Stepper Motor Anticlockwise with Full step sequence */
				for (int i = 0; i < 12; i++)
				{
					PORTD = 0x09;
    38f8:	52 bb       	out	0x12, r21	; 18
    38fa:	af ef       	ldi	r26, 0xFF	; 255
    38fc:	b1 ee       	ldi	r27, 0xE1	; 225
    38fe:	c4 e0       	ldi	r28, 0x04	; 4
    3900:	a1 50       	subi	r26, 0x01	; 1
    3902:	b0 40       	sbci	r27, 0x00	; 0
    3904:	c0 40       	sbci	r28, 0x00	; 0
    3906:	e1 f7       	brne	.-8      	; 0x3900 <__stack+0x30a1>
    3908:	00 c0       	rjmp	.+0      	; 0x390a <__stack+0x30ab>
    390a:	00 00       	nop
					_delay_ms(period);
					PORTD = 0x03;
    390c:	42 bb       	out	0x12, r20	; 18
    390e:	ef ef       	ldi	r30, 0xFF	; 255
    3910:	61 ee       	ldi	r22, 0xE1	; 225
    3912:	74 e0       	ldi	r23, 0x04	; 4
    3914:	e1 50       	subi	r30, 0x01	; 1
    3916:	60 40       	sbci	r22, 0x00	; 0
    3918:	70 40       	sbci	r23, 0x00	; 0
    391a:	e1 f7       	brne	.-8      	; 0x3914 <__stack+0x30b5>
    391c:	00 c0       	rjmp	.+0      	; 0x391e <__stack+0x30bf>
    391e:	00 00       	nop
					_delay_ms(period);
					PORTD = 0x06;
    3920:	32 bb       	out	0x12, r19	; 18
    3922:	af ef       	ldi	r26, 0xFF	; 255
    3924:	b1 ee       	ldi	r27, 0xE1	; 225
    3926:	c4 e0       	ldi	r28, 0x04	; 4
    3928:	a1 50       	subi	r26, 0x01	; 1
    392a:	b0 40       	sbci	r27, 0x00	; 0
    392c:	c0 40       	sbci	r28, 0x00	; 0
    392e:	e1 f7       	brne	.-8      	; 0x3928 <__stack+0x30c9>
    3930:	00 c0       	rjmp	.+0      	; 0x3932 <__stack+0x30d3>
    3932:	00 00       	nop
					_delay_ms(period);
					PORTD = 0x0C;
    3934:	22 bb       	out	0x12, r18	; 18
    3936:	ef ef       	ldi	r30, 0xFF	; 255
    3938:	61 ee       	ldi	r22, 0xE1	; 225
    393a:	74 e0       	ldi	r23, 0x04	; 4
    393c:	e1 50       	subi	r30, 0x01	; 1
    393e:	60 40       	sbci	r22, 0x00	; 0
    3940:	70 40       	sbci	r23, 0x00	; 0
    3942:	e1 f7       	brne	.-8      	; 0x393c <__stack+0x30dd>
    3944:	00 c0       	rjmp	.+0      	; 0x3946 <__stack+0x30e7>
    3946:	00 00       	nop
    3948:	01 97       	sbiw	r24, 0x01	; 1
				PORTD = 0x09; /* Last step to initial position */
				_delay_ms(period);
				_delay_ms(1000);

				/* Rotate Stepper Motor Anticlockwise with Full step sequence */
				for (int i = 0; i < 12; i++)
    394a:	b1 f6       	brne	.-84     	; 0x38f8 <__stack+0x3099>
					PORTD = 0x06;
					_delay_ms(period);
					PORTD = 0x0C;
					_delay_ms(period);
				}
				PORTD = 0x09;
    394c:	89 e0       	ldi	r24, 0x09	; 9
    394e:	82 bb       	out	0x12, r24	; 18
    3950:	8f ef       	ldi	r24, 0xFF	; 255
    3952:	91 ee       	ldi	r25, 0xE1	; 225
    3954:	a4 e0       	ldi	r26, 0x04	; 4
    3956:	81 50       	subi	r24, 0x01	; 1
    3958:	90 40       	sbci	r25, 0x00	; 0
    395a:	a0 40       	sbci	r26, 0x00	; 0
    395c:	e1 f7       	brne	.-8      	; 0x3956 <__stack+0x30f7>
    395e:	00 c0       	rjmp	.+0      	; 0x3960 <__stack+0x3101>
    3960:	00 00       	nop
    3962:	bf ef       	ldi	r27, 0xFF	; 255
    3964:	c3 ed       	ldi	r28, 0xD3	; 211
    3966:	e0 e3       	ldi	r30, 0x30	; 48
    3968:	b1 50       	subi	r27, 0x01	; 1
    396a:	c0 40       	sbci	r28, 0x00	; 0
    396c:	e0 40       	sbci	r30, 0x00	; 0
    396e:	e1 f7       	brne	.-8      	; 0x3968 <__stack+0x3109>
    3970:	00 c0       	rjmp	.+0      	; 0x3972 <__stack+0x3113>
    3972:	00 00       	nop
    3974:	0c 94 2c 3b 	jmp	0x7658	; 0x7658 <__stack+0x6df9>
				break;
			}
		}
		break;
		case 5:
		switch (personNum)
    3978:	8c e0       	ldi	r24, 0x0C	; 12
    397a:	90 e0       	ldi	r25, 0x00	; 0
			case 4:
			{
				/* Rotate Stepper Motor clockwise with Half step sequence */
				for (int i = 0; i < 12; i++)
				{
					PORTD = 0x09;
    397c:	f9 e0       	ldi	r31, 0x09	; 9
					_delay_ms(period);
					PORTD = 0x08;
    397e:	e8 e0       	ldi	r30, 0x08	; 8
					_delay_ms(period);
					PORTD = 0x0C;
    3980:	7c e0       	ldi	r23, 0x0C	; 12
					_delay_ms(period);
					PORTD = 0x04;
    3982:	64 e0       	ldi	r22, 0x04	; 4
					_delay_ms(period);
					PORTD = 0x06;
    3984:	56 e0       	ldi	r21, 0x06	; 6
					_delay_ms(period);
					PORTD = 0x02;
    3986:	42 e0       	ldi	r20, 0x02	; 2
					_delay_ms(period);
					PORTD = 0x03;
    3988:	33 e0       	ldi	r19, 0x03	; 3
					_delay_ms(period);
					PORTD = 0x01;
    398a:	21 e0       	ldi	r18, 0x01	; 1
			case 4:
			{
				/* Rotate Stepper Motor clockwise with Half step sequence */
				for (int i = 0; i < 12; i++)
				{
					PORTD = 0x09;
    398c:	f2 bb       	out	0x12, r31	; 18
    398e:	af ef       	ldi	r26, 0xFF	; 255
    3990:	b1 ee       	ldi	r27, 0xE1	; 225
    3992:	c4 e0       	ldi	r28, 0x04	; 4
    3994:	a1 50       	subi	r26, 0x01	; 1
    3996:	b0 40       	sbci	r27, 0x00	; 0
    3998:	c0 40       	sbci	r28, 0x00	; 0
    399a:	e1 f7       	brne	.-8      	; 0x3994 <__stack+0x3135>
    399c:	00 c0       	rjmp	.+0      	; 0x399e <__stack+0x313f>
    399e:	00 00       	nop
					_delay_ms(period);
					PORTD = 0x08;
    39a0:	e2 bb       	out	0x12, r30	; 18
    39a2:	af ef       	ldi	r26, 0xFF	; 255
    39a4:	b1 ee       	ldi	r27, 0xE1	; 225
    39a6:	c4 e0       	ldi	r28, 0x04	; 4
    39a8:	a1 50       	subi	r26, 0x01	; 1
    39aa:	b0 40       	sbci	r27, 0x00	; 0
    39ac:	c0 40       	sbci	r28, 0x00	; 0
    39ae:	e1 f7       	brne	.-8      	; 0x39a8 <__stack+0x3149>
    39b0:	00 c0       	rjmp	.+0      	; 0x39b2 <__stack+0x3153>
    39b2:	00 00       	nop
					_delay_ms(period);
					PORTD = 0x0C;
    39b4:	72 bb       	out	0x12, r23	; 18
    39b6:	af ef       	ldi	r26, 0xFF	; 255
    39b8:	b1 ee       	ldi	r27, 0xE1	; 225
    39ba:	c4 e0       	ldi	r28, 0x04	; 4
    39bc:	a1 50       	subi	r26, 0x01	; 1
    39be:	b0 40       	sbci	r27, 0x00	; 0
    39c0:	c0 40       	sbci	r28, 0x00	; 0
    39c2:	e1 f7       	brne	.-8      	; 0x39bc <__stack+0x315d>
    39c4:	00 c0       	rjmp	.+0      	; 0x39c6 <__stack+0x3167>
    39c6:	00 00       	nop
					_delay_ms(period);
					PORTD = 0x04;
    39c8:	62 bb       	out	0x12, r22	; 18
    39ca:	af ef       	ldi	r26, 0xFF	; 255
    39cc:	b1 ee       	ldi	r27, 0xE1	; 225
    39ce:	c4 e0       	ldi	r28, 0x04	; 4
    39d0:	a1 50       	subi	r26, 0x01	; 1
    39d2:	b0 40       	sbci	r27, 0x00	; 0
    39d4:	c0 40       	sbci	r28, 0x00	; 0
    39d6:	e1 f7       	brne	.-8      	; 0x39d0 <__stack+0x3171>
    39d8:	00 c0       	rjmp	.+0      	; 0x39da <__stack+0x317b>
    39da:	00 00       	nop
					_delay_ms(period);
					PORTD = 0x06;
    39dc:	52 bb       	out	0x12, r21	; 18
    39de:	af ef       	ldi	r26, 0xFF	; 255
    39e0:	b1 ee       	ldi	r27, 0xE1	; 225
    39e2:	c4 e0       	ldi	r28, 0x04	; 4
    39e4:	a1 50       	subi	r26, 0x01	; 1
    39e6:	b0 40       	sbci	r27, 0x00	; 0
    39e8:	c0 40       	sbci	r28, 0x00	; 0
    39ea:	e1 f7       	brne	.-8      	; 0x39e4 <__stack+0x3185>
    39ec:	00 c0       	rjmp	.+0      	; 0x39ee <__stack+0x318f>
    39ee:	00 00       	nop
					_delay_ms(period);
					PORTD = 0x02;
    39f0:	42 bb       	out	0x12, r20	; 18
    39f2:	af ef       	ldi	r26, 0xFF	; 255
    39f4:	b1 ee       	ldi	r27, 0xE1	; 225
    39f6:	c4 e0       	ldi	r28, 0x04	; 4
    39f8:	a1 50       	subi	r26, 0x01	; 1
    39fa:	b0 40       	sbci	r27, 0x00	; 0
    39fc:	c0 40       	sbci	r28, 0x00	; 0
    39fe:	e1 f7       	brne	.-8      	; 0x39f8 <__stack+0x3199>
    3a00:	00 c0       	rjmp	.+0      	; 0x3a02 <__stack+0x31a3>
    3a02:	00 00       	nop
					_delay_ms(period);
					PORTD = 0x03;
    3a04:	32 bb       	out	0x12, r19	; 18
    3a06:	af ef       	ldi	r26, 0xFF	; 255
    3a08:	b1 ee       	ldi	r27, 0xE1	; 225
    3a0a:	c4 e0       	ldi	r28, 0x04	; 4
    3a0c:	a1 50       	subi	r26, 0x01	; 1
    3a0e:	b0 40       	sbci	r27, 0x00	; 0
    3a10:	c0 40       	sbci	r28, 0x00	; 0
    3a12:	e1 f7       	brne	.-8      	; 0x3a0c <__stack+0x31ad>
    3a14:	00 c0       	rjmp	.+0      	; 0x3a16 <__stack+0x31b7>
    3a16:	00 00       	nop
					_delay_ms(period);
					PORTD = 0x01;
    3a18:	22 bb       	out	0x12, r18	; 18
    3a1a:	af ef       	ldi	r26, 0xFF	; 255
    3a1c:	b1 ee       	ldi	r27, 0xE1	; 225
    3a1e:	c4 e0       	ldi	r28, 0x04	; 4
    3a20:	a1 50       	subi	r26, 0x01	; 1
    3a22:	b0 40       	sbci	r27, 0x00	; 0
    3a24:	c0 40       	sbci	r28, 0x00	; 0
    3a26:	e1 f7       	brne	.-8      	; 0x3a20 <__stack+0x31c1>
    3a28:	00 c0       	rjmp	.+0      	; 0x3a2a <__stack+0x31cb>
    3a2a:	00 00       	nop
    3a2c:	01 97       	sbiw	r24, 0x01	; 1
				break;
			}
			case 4:
			{
				/* Rotate Stepper Motor clockwise with Half step sequence */
				for (int i = 0; i < 12; i++)
    3a2e:	09 f0       	breq	.+2      	; 0x3a32 <__stack+0x31d3>
    3a30:	ad cf       	rjmp	.-166    	; 0x398c <__stack+0x312d>
					PORTD = 0x03;
					_delay_ms(period);
					PORTD = 0x01;
					_delay_ms(period);
				}
				PORTD = 0x09; /* Last step to initial position */
    3a32:	89 e0       	ldi	r24, 0x09	; 9
    3a34:	82 bb       	out	0x12, r24	; 18
    3a36:	ef ef       	ldi	r30, 0xFF	; 255
    3a38:	21 ee       	ldi	r18, 0xE1	; 225
    3a3a:	64 e0       	ldi	r22, 0x04	; 4
    3a3c:	e1 50       	subi	r30, 0x01	; 1
    3a3e:	20 40       	sbci	r18, 0x00	; 0
    3a40:	60 40       	sbci	r22, 0x00	; 0
    3a42:	e1 f7       	brne	.-8      	; 0x3a3c <__stack+0x31dd>
    3a44:	00 c0       	rjmp	.+0      	; 0x3a46 <__stack+0x31e7>
    3a46:	00 00       	nop
    3a48:	7f ef       	ldi	r23, 0xFF	; 255
    3a4a:	83 ed       	ldi	r24, 0xD3	; 211
    3a4c:	90 e3       	ldi	r25, 0x30	; 48
    3a4e:	71 50       	subi	r23, 0x01	; 1
    3a50:	80 40       	sbci	r24, 0x00	; 0
    3a52:	90 40       	sbci	r25, 0x00	; 0
    3a54:	e1 f7       	brne	.-8      	; 0x3a4e <__stack+0x31ef>
    3a56:	00 c0       	rjmp	.+0      	; 0x3a58 <__stack+0x31f9>
    3a58:	00 00       	nop
    3a5a:	8c e0       	ldi	r24, 0x0C	; 12
    3a5c:	90 e0       	ldi	r25, 0x00	; 0
				_delay_ms(1000);

				/* Rotate Stepper Motor Anticlockwise with Full step sequence */
				for (int i = 0; i < 12; i++)
				{
					PORTD = 0x09;
    3a5e:	59 e0       	ldi	r21, 0x09	; 9
					_delay_ms(period);
					PORTD = 0x03;
    3a60:	43 e0       	ldi	r20, 0x03	; 3
					_delay_ms(period);
					PORTD = 0x06;
    3a62:	36 e0       	ldi	r19, 0x06	; 6
					_delay_ms(period);
					PORTD = 0x0C;
    3a64:	2c e0       	ldi	r18, 0x0C	; 12
				_delay_ms(1000);

				/* Rotate Stepper Motor Anticlockwise with Full step sequence */
				for (int i = 0; i < 12; i++)
				{
					PORTD = 0x09;
    3a66:	52 bb       	out	0x12, r21	; 18
    3a68:	af ef       	ldi	r26, 0xFF	; 255
    3a6a:	b1 ee       	ldi	r27, 0xE1	; 225
    3a6c:	c4 e0       	ldi	r28, 0x04	; 4
    3a6e:	a1 50       	subi	r26, 0x01	; 1
    3a70:	b0 40       	sbci	r27, 0x00	; 0
    3a72:	c0 40       	sbci	r28, 0x00	; 0
    3a74:	e1 f7       	brne	.-8      	; 0x3a6e <__stack+0x320f>
    3a76:	00 c0       	rjmp	.+0      	; 0x3a78 <__stack+0x3219>
    3a78:	00 00       	nop
					_delay_ms(period);
					PORTD = 0x03;
    3a7a:	42 bb       	out	0x12, r20	; 18
    3a7c:	ef ef       	ldi	r30, 0xFF	; 255
    3a7e:	61 ee       	ldi	r22, 0xE1	; 225
    3a80:	74 e0       	ldi	r23, 0x04	; 4
    3a82:	e1 50       	subi	r30, 0x01	; 1
    3a84:	60 40       	sbci	r22, 0x00	; 0
    3a86:	70 40       	sbci	r23, 0x00	; 0
    3a88:	e1 f7       	brne	.-8      	; 0x3a82 <__stack+0x3223>
    3a8a:	00 c0       	rjmp	.+0      	; 0x3a8c <__stack+0x322d>
    3a8c:	00 00       	nop
					_delay_ms(period);
					PORTD = 0x06;
    3a8e:	32 bb       	out	0x12, r19	; 18
    3a90:	af ef       	ldi	r26, 0xFF	; 255
    3a92:	b1 ee       	ldi	r27, 0xE1	; 225
    3a94:	c4 e0       	ldi	r28, 0x04	; 4
    3a96:	a1 50       	subi	r26, 0x01	; 1
    3a98:	b0 40       	sbci	r27, 0x00	; 0
    3a9a:	c0 40       	sbci	r28, 0x00	; 0
    3a9c:	e1 f7       	brne	.-8      	; 0x3a96 <__stack+0x3237>
    3a9e:	00 c0       	rjmp	.+0      	; 0x3aa0 <__stack+0x3241>
    3aa0:	00 00       	nop
					_delay_ms(period);
					PORTD = 0x0C;
    3aa2:	22 bb       	out	0x12, r18	; 18
    3aa4:	ef ef       	ldi	r30, 0xFF	; 255
    3aa6:	61 ee       	ldi	r22, 0xE1	; 225
    3aa8:	74 e0       	ldi	r23, 0x04	; 4
    3aaa:	e1 50       	subi	r30, 0x01	; 1
    3aac:	60 40       	sbci	r22, 0x00	; 0
    3aae:	70 40       	sbci	r23, 0x00	; 0
    3ab0:	e1 f7       	brne	.-8      	; 0x3aaa <__stack+0x324b>
    3ab2:	00 c0       	rjmp	.+0      	; 0x3ab4 <__stack+0x3255>
    3ab4:	00 00       	nop
    3ab6:	01 97       	sbiw	r24, 0x01	; 1
				PORTD = 0x09; /* Last step to initial position */
				_delay_ms(period);
				_delay_ms(1000);

				/* Rotate Stepper Motor Anticlockwise with Full step sequence */
				for (int i = 0; i < 12; i++)
    3ab8:	b1 f6       	brne	.-84     	; 0x3a66 <__stack+0x3207>
					PORTD = 0x06;
					_delay_ms(period);
					PORTD = 0x0C;
					_delay_ms(period);
				}
				PORTD = 0x09;
    3aba:	89 e0       	ldi	r24, 0x09	; 9
    3abc:	82 bb       	out	0x12, r24	; 18
    3abe:	8f ef       	ldi	r24, 0xFF	; 255
    3ac0:	91 ee       	ldi	r25, 0xE1	; 225
    3ac2:	a4 e0       	ldi	r26, 0x04	; 4
    3ac4:	81 50       	subi	r24, 0x01	; 1
    3ac6:	90 40       	sbci	r25, 0x00	; 0
    3ac8:	a0 40       	sbci	r26, 0x00	; 0
    3aca:	e1 f7       	brne	.-8      	; 0x3ac4 <__stack+0x3265>
    3acc:	00 c0       	rjmp	.+0      	; 0x3ace <__stack+0x326f>
    3ace:	00 00       	nop
    3ad0:	bf ef       	ldi	r27, 0xFF	; 255
    3ad2:	c3 ed       	ldi	r28, 0xD3	; 211
    3ad4:	e0 e3       	ldi	r30, 0x30	; 48
    3ad6:	b1 50       	subi	r27, 0x01	; 1
    3ad8:	c0 40       	sbci	r28, 0x00	; 0
    3ada:	e0 40       	sbci	r30, 0x00	; 0
    3adc:	e1 f7       	brne	.-8      	; 0x3ad6 <__stack+0x3277>
    3ade:	00 c0       	rjmp	.+0      	; 0x3ae0 <__stack+0x3281>
    3ae0:	00 00       	nop
    3ae2:	0c 94 2c 3b 	jmp	0x7658	; 0x7658 <__stack+0x6df9>
				break;
			}
		}
		break;
		case 5:
		switch (personNum)
    3ae6:	8c e0       	ldi	r24, 0x0C	; 12
    3ae8:	90 e0       	ldi	r25, 0x00	; 0
			case 5:
			{
				/* Rotate Stepper Motor clockwise with Half step sequence */
				for (int i = 0; i < 12; i++)
				{
					PORTD = 0x09;
    3aea:	f9 e0       	ldi	r31, 0x09	; 9
					_delay_ms(period);
					PORTD = 0x08;
    3aec:	e8 e0       	ldi	r30, 0x08	; 8
					_delay_ms(period);
					PORTD = 0x0C;
    3aee:	7c e0       	ldi	r23, 0x0C	; 12
					_delay_ms(period);
					PORTD = 0x04;
    3af0:	64 e0       	ldi	r22, 0x04	; 4
					_delay_ms(period);
					PORTD = 0x06;
    3af2:	56 e0       	ldi	r21, 0x06	; 6
					_delay_ms(period);
					PORTD = 0x02;
    3af4:	42 e0       	ldi	r20, 0x02	; 2
					_delay_ms(period);
					PORTD = 0x03;
    3af6:	33 e0       	ldi	r19, 0x03	; 3
					_delay_ms(period);
					PORTD = 0x01;
    3af8:	21 e0       	ldi	r18, 0x01	; 1
			case 5:
			{
				/* Rotate Stepper Motor clockwise with Half step sequence */
				for (int i = 0; i < 12; i++)
				{
					PORTD = 0x09;
    3afa:	f2 bb       	out	0x12, r31	; 18
    3afc:	af ef       	ldi	r26, 0xFF	; 255
    3afe:	b1 ee       	ldi	r27, 0xE1	; 225
    3b00:	c4 e0       	ldi	r28, 0x04	; 4
    3b02:	a1 50       	subi	r26, 0x01	; 1
    3b04:	b0 40       	sbci	r27, 0x00	; 0
    3b06:	c0 40       	sbci	r28, 0x00	; 0
    3b08:	e1 f7       	brne	.-8      	; 0x3b02 <__stack+0x32a3>
    3b0a:	00 c0       	rjmp	.+0      	; 0x3b0c <__stack+0x32ad>
    3b0c:	00 00       	nop
					_delay_ms(period);
					PORTD = 0x08;
    3b0e:	e2 bb       	out	0x12, r30	; 18
    3b10:	af ef       	ldi	r26, 0xFF	; 255
    3b12:	b1 ee       	ldi	r27, 0xE1	; 225
    3b14:	c4 e0       	ldi	r28, 0x04	; 4
    3b16:	a1 50       	subi	r26, 0x01	; 1
    3b18:	b0 40       	sbci	r27, 0x00	; 0
    3b1a:	c0 40       	sbci	r28, 0x00	; 0
    3b1c:	e1 f7       	brne	.-8      	; 0x3b16 <__stack+0x32b7>
    3b1e:	00 c0       	rjmp	.+0      	; 0x3b20 <__stack+0x32c1>
    3b20:	00 00       	nop
					_delay_ms(period);
					PORTD = 0x0C;
    3b22:	72 bb       	out	0x12, r23	; 18
    3b24:	af ef       	ldi	r26, 0xFF	; 255
    3b26:	b1 ee       	ldi	r27, 0xE1	; 225
    3b28:	c4 e0       	ldi	r28, 0x04	; 4
    3b2a:	a1 50       	subi	r26, 0x01	; 1
    3b2c:	b0 40       	sbci	r27, 0x00	; 0
    3b2e:	c0 40       	sbci	r28, 0x00	; 0
    3b30:	e1 f7       	brne	.-8      	; 0x3b2a <__stack+0x32cb>
    3b32:	00 c0       	rjmp	.+0      	; 0x3b34 <__stack+0x32d5>
    3b34:	00 00       	nop
					_delay_ms(period);
					PORTD = 0x04;
    3b36:	62 bb       	out	0x12, r22	; 18
    3b38:	af ef       	ldi	r26, 0xFF	; 255
    3b3a:	b1 ee       	ldi	r27, 0xE1	; 225
    3b3c:	c4 e0       	ldi	r28, 0x04	; 4
    3b3e:	a1 50       	subi	r26, 0x01	; 1
    3b40:	b0 40       	sbci	r27, 0x00	; 0
    3b42:	c0 40       	sbci	r28, 0x00	; 0
    3b44:	e1 f7       	brne	.-8      	; 0x3b3e <__stack+0x32df>
    3b46:	00 c0       	rjmp	.+0      	; 0x3b48 <__stack+0x32e9>
    3b48:	00 00       	nop
					_delay_ms(period);
					PORTD = 0x06;
    3b4a:	52 bb       	out	0x12, r21	; 18
    3b4c:	af ef       	ldi	r26, 0xFF	; 255
    3b4e:	b1 ee       	ldi	r27, 0xE1	; 225
    3b50:	c4 e0       	ldi	r28, 0x04	; 4
    3b52:	a1 50       	subi	r26, 0x01	; 1
    3b54:	b0 40       	sbci	r27, 0x00	; 0
    3b56:	c0 40       	sbci	r28, 0x00	; 0
    3b58:	e1 f7       	brne	.-8      	; 0x3b52 <__stack+0x32f3>
    3b5a:	00 c0       	rjmp	.+0      	; 0x3b5c <__stack+0x32fd>
    3b5c:	00 00       	nop
					_delay_ms(period);
					PORTD = 0x02;
    3b5e:	42 bb       	out	0x12, r20	; 18
    3b60:	af ef       	ldi	r26, 0xFF	; 255
    3b62:	b1 ee       	ldi	r27, 0xE1	; 225
    3b64:	c4 e0       	ldi	r28, 0x04	; 4
    3b66:	a1 50       	subi	r26, 0x01	; 1
    3b68:	b0 40       	sbci	r27, 0x00	; 0
    3b6a:	c0 40       	sbci	r28, 0x00	; 0
    3b6c:	e1 f7       	brne	.-8      	; 0x3b66 <__stack+0x3307>
    3b6e:	00 c0       	rjmp	.+0      	; 0x3b70 <__stack+0x3311>
    3b70:	00 00       	nop
					_delay_ms(period);
					PORTD = 0x03;
    3b72:	32 bb       	out	0x12, r19	; 18
    3b74:	af ef       	ldi	r26, 0xFF	; 255
    3b76:	b1 ee       	ldi	r27, 0xE1	; 225
    3b78:	c4 e0       	ldi	r28, 0x04	; 4
    3b7a:	a1 50       	subi	r26, 0x01	; 1
    3b7c:	b0 40       	sbci	r27, 0x00	; 0
    3b7e:	c0 40       	sbci	r28, 0x00	; 0
    3b80:	e1 f7       	brne	.-8      	; 0x3b7a <__stack+0x331b>
    3b82:	00 c0       	rjmp	.+0      	; 0x3b84 <__stack+0x3325>
    3b84:	00 00       	nop
					_delay_ms(period);
					PORTD = 0x01;
    3b86:	22 bb       	out	0x12, r18	; 18
    3b88:	af ef       	ldi	r26, 0xFF	; 255
    3b8a:	b1 ee       	ldi	r27, 0xE1	; 225
    3b8c:	c4 e0       	ldi	r28, 0x04	; 4
    3b8e:	a1 50       	subi	r26, 0x01	; 1
    3b90:	b0 40       	sbci	r27, 0x00	; 0
    3b92:	c0 40       	sbci	r28, 0x00	; 0
    3b94:	e1 f7       	brne	.-8      	; 0x3b8e <__stack+0x332f>
    3b96:	00 c0       	rjmp	.+0      	; 0x3b98 <__stack+0x3339>
    3b98:	00 00       	nop
    3b9a:	01 97       	sbiw	r24, 0x01	; 1
				break;
			}
			case 5:
			{
				/* Rotate Stepper Motor clockwise with Half step sequence */
				for (int i = 0; i < 12; i++)
    3b9c:	09 f0       	breq	.+2      	; 0x3ba0 <__stack+0x3341>
    3b9e:	ad cf       	rjmp	.-166    	; 0x3afa <__stack+0x329b>
					PORTD = 0x03;
					_delay_ms(period);
					PORTD = 0x01;
					_delay_ms(period);
				}
				PORTD = 0x09; /* Last step to initial position */
    3ba0:	89 e0       	ldi	r24, 0x09	; 9
    3ba2:	82 bb       	out	0x12, r24	; 18
    3ba4:	ef ef       	ldi	r30, 0xFF	; 255
    3ba6:	21 ee       	ldi	r18, 0xE1	; 225
    3ba8:	64 e0       	ldi	r22, 0x04	; 4
    3baa:	e1 50       	subi	r30, 0x01	; 1
    3bac:	20 40       	sbci	r18, 0x00	; 0
    3bae:	60 40       	sbci	r22, 0x00	; 0
    3bb0:	e1 f7       	brne	.-8      	; 0x3baa <__stack+0x334b>
    3bb2:	00 c0       	rjmp	.+0      	; 0x3bb4 <__stack+0x3355>
    3bb4:	00 00       	nop
    3bb6:	7f ef       	ldi	r23, 0xFF	; 255
    3bb8:	83 ed       	ldi	r24, 0xD3	; 211
    3bba:	90 e3       	ldi	r25, 0x30	; 48
    3bbc:	71 50       	subi	r23, 0x01	; 1
    3bbe:	80 40       	sbci	r24, 0x00	; 0
    3bc0:	90 40       	sbci	r25, 0x00	; 0
    3bc2:	e1 f7       	brne	.-8      	; 0x3bbc <__stack+0x335d>
    3bc4:	00 c0       	rjmp	.+0      	; 0x3bc6 <__stack+0x3367>
    3bc6:	00 00       	nop
    3bc8:	8c e0       	ldi	r24, 0x0C	; 12
    3bca:	90 e0       	ldi	r25, 0x00	; 0
				_delay_ms(1000);

				/* Rotate Stepper Motor Anticlockwise with Full step sequence */
				for (int i = 0; i < 12; i++)
				{
					PORTD = 0x09;
    3bcc:	59 e0       	ldi	r21, 0x09	; 9
					_delay_ms(period);
					PORTD = 0x03;
    3bce:	43 e0       	ldi	r20, 0x03	; 3
					_delay_ms(period);
					PORTD = 0x06;
    3bd0:	36 e0       	ldi	r19, 0x06	; 6
					_delay_ms(period);
					PORTD = 0x0C;
    3bd2:	2c e0       	ldi	r18, 0x0C	; 12
				_delay_ms(1000);

				/* Rotate Stepper Motor Anticlockwise with Full step sequence */
				for (int i = 0; i < 12; i++)
				{
					PORTD = 0x09;
    3bd4:	52 bb       	out	0x12, r21	; 18
    3bd6:	af ef       	ldi	r26, 0xFF	; 255
    3bd8:	b1 ee       	ldi	r27, 0xE1	; 225
    3bda:	c4 e0       	ldi	r28, 0x04	; 4
    3bdc:	a1 50       	subi	r26, 0x01	; 1
    3bde:	b0 40       	sbci	r27, 0x00	; 0
    3be0:	c0 40       	sbci	r28, 0x00	; 0
    3be2:	e1 f7       	brne	.-8      	; 0x3bdc <__stack+0x337d>
    3be4:	00 c0       	rjmp	.+0      	; 0x3be6 <__stack+0x3387>
    3be6:	00 00       	nop
					_delay_ms(period);
					PORTD = 0x03;
    3be8:	42 bb       	out	0x12, r20	; 18
    3bea:	ef ef       	ldi	r30, 0xFF	; 255
    3bec:	61 ee       	ldi	r22, 0xE1	; 225
    3bee:	74 e0       	ldi	r23, 0x04	; 4
    3bf0:	e1 50       	subi	r30, 0x01	; 1
    3bf2:	60 40       	sbci	r22, 0x00	; 0
    3bf4:	70 40       	sbci	r23, 0x00	; 0
    3bf6:	e1 f7       	brne	.-8      	; 0x3bf0 <__stack+0x3391>
    3bf8:	00 c0       	rjmp	.+0      	; 0x3bfa <__stack+0x339b>
    3bfa:	00 00       	nop
					_delay_ms(period);
					PORTD = 0x06;
    3bfc:	32 bb       	out	0x12, r19	; 18
    3bfe:	af ef       	ldi	r26, 0xFF	; 255
    3c00:	b1 ee       	ldi	r27, 0xE1	; 225
    3c02:	c4 e0       	ldi	r28, 0x04	; 4
    3c04:	a1 50       	subi	r26, 0x01	; 1
    3c06:	b0 40       	sbci	r27, 0x00	; 0
    3c08:	c0 40       	sbci	r28, 0x00	; 0
    3c0a:	e1 f7       	brne	.-8      	; 0x3c04 <__stack+0x33a5>
    3c0c:	00 c0       	rjmp	.+0      	; 0x3c0e <__stack+0x33af>
    3c0e:	00 00       	nop
					_delay_ms(period);
					PORTD = 0x0C;
    3c10:	22 bb       	out	0x12, r18	; 18
    3c12:	ef ef       	ldi	r30, 0xFF	; 255
    3c14:	61 ee       	ldi	r22, 0xE1	; 225
    3c16:	74 e0       	ldi	r23, 0x04	; 4
    3c18:	e1 50       	subi	r30, 0x01	; 1
    3c1a:	60 40       	sbci	r22, 0x00	; 0
    3c1c:	70 40       	sbci	r23, 0x00	; 0
    3c1e:	e1 f7       	brne	.-8      	; 0x3c18 <__stack+0x33b9>
    3c20:	00 c0       	rjmp	.+0      	; 0x3c22 <__stack+0x33c3>
    3c22:	00 00       	nop
    3c24:	01 97       	sbiw	r24, 0x01	; 1
				PORTD = 0x09; /* Last step to initial position */
				_delay_ms(period);
				_delay_ms(1000);

				/* Rotate Stepper Motor Anticlockwise with Full step sequence */
				for (int i = 0; i < 12; i++)
    3c26:	b1 f6       	brne	.-84     	; 0x3bd4 <__stack+0x3375>
					PORTD = 0x06;
					_delay_ms(period);
					PORTD = 0x0C;
					_delay_ms(period);
				}
				PORTD = 0x09;
    3c28:	89 e0       	ldi	r24, 0x09	; 9
    3c2a:	82 bb       	out	0x12, r24	; 18
    3c2c:	8f ef       	ldi	r24, 0xFF	; 255
    3c2e:	91 ee       	ldi	r25, 0xE1	; 225
    3c30:	a4 e0       	ldi	r26, 0x04	; 4
    3c32:	81 50       	subi	r24, 0x01	; 1
    3c34:	90 40       	sbci	r25, 0x00	; 0
    3c36:	a0 40       	sbci	r26, 0x00	; 0
    3c38:	e1 f7       	brne	.-8      	; 0x3c32 <__stack+0x33d3>
    3c3a:	00 c0       	rjmp	.+0      	; 0x3c3c <__stack+0x33dd>
    3c3c:	00 00       	nop
    3c3e:	bf ef       	ldi	r27, 0xFF	; 255
    3c40:	c3 ed       	ldi	r28, 0xD3	; 211
    3c42:	e0 e3       	ldi	r30, 0x30	; 48
    3c44:	b1 50       	subi	r27, 0x01	; 1
    3c46:	c0 40       	sbci	r28, 0x00	; 0
    3c48:	e0 40       	sbci	r30, 0x00	; 0
    3c4a:	e1 f7       	brne	.-8      	; 0x3c44 <__stack+0x33e5>
    3c4c:	00 c0       	rjmp	.+0      	; 0x3c4e <__stack+0x33ef>
    3c4e:	00 00       	nop
    3c50:	0c 94 2c 3b 	jmp	0x7658	; 0x7658 <__stack+0x6df9>
				break;
			}
		}
		break;
		case 5:
		switch (personNum)
    3c54:	8c e0       	ldi	r24, 0x0C	; 12
    3c56:	90 e0       	ldi	r25, 0x00	; 0
			case 6:
			{
				/* Rotate Stepper Motor clockwise with Half step sequence */
				for (int i = 0; i < 12; i++)
				{
					PORTD = 0x09;
    3c58:	f9 e0       	ldi	r31, 0x09	; 9
					_delay_ms(period);
					PORTD = 0x08;
    3c5a:	e8 e0       	ldi	r30, 0x08	; 8
					_delay_ms(period);
					PORTD = 0x0C;
    3c5c:	7c e0       	ldi	r23, 0x0C	; 12
					_delay_ms(period);
					PORTD = 0x04;
    3c5e:	64 e0       	ldi	r22, 0x04	; 4
					_delay_ms(period);
					PORTD = 0x06;
    3c60:	56 e0       	ldi	r21, 0x06	; 6
					_delay_ms(period);
					PORTD = 0x02;
    3c62:	42 e0       	ldi	r20, 0x02	; 2
					_delay_ms(period);
					PORTD = 0x03;
    3c64:	33 e0       	ldi	r19, 0x03	; 3
					_delay_ms(period);
					PORTD = 0x01;
    3c66:	21 e0       	ldi	r18, 0x01	; 1
			case 6:
			{
				/* Rotate Stepper Motor clockwise with Half step sequence */
				for (int i = 0; i < 12; i++)
				{
					PORTD = 0x09;
    3c68:	f2 bb       	out	0x12, r31	; 18
    3c6a:	af ef       	ldi	r26, 0xFF	; 255
    3c6c:	b1 ee       	ldi	r27, 0xE1	; 225
    3c6e:	c4 e0       	ldi	r28, 0x04	; 4
    3c70:	a1 50       	subi	r26, 0x01	; 1
    3c72:	b0 40       	sbci	r27, 0x00	; 0
    3c74:	c0 40       	sbci	r28, 0x00	; 0
    3c76:	e1 f7       	brne	.-8      	; 0x3c70 <__stack+0x3411>
    3c78:	00 c0       	rjmp	.+0      	; 0x3c7a <__stack+0x341b>
    3c7a:	00 00       	nop
					_delay_ms(period);
					PORTD = 0x08;
    3c7c:	e2 bb       	out	0x12, r30	; 18
    3c7e:	af ef       	ldi	r26, 0xFF	; 255
    3c80:	b1 ee       	ldi	r27, 0xE1	; 225
    3c82:	c4 e0       	ldi	r28, 0x04	; 4
    3c84:	a1 50       	subi	r26, 0x01	; 1
    3c86:	b0 40       	sbci	r27, 0x00	; 0
    3c88:	c0 40       	sbci	r28, 0x00	; 0
    3c8a:	e1 f7       	brne	.-8      	; 0x3c84 <__stack+0x3425>
    3c8c:	00 c0       	rjmp	.+0      	; 0x3c8e <__stack+0x342f>
    3c8e:	00 00       	nop
					_delay_ms(period);
					PORTD = 0x0C;
    3c90:	72 bb       	out	0x12, r23	; 18
    3c92:	af ef       	ldi	r26, 0xFF	; 255
    3c94:	b1 ee       	ldi	r27, 0xE1	; 225
    3c96:	c4 e0       	ldi	r28, 0x04	; 4
    3c98:	a1 50       	subi	r26, 0x01	; 1
    3c9a:	b0 40       	sbci	r27, 0x00	; 0
    3c9c:	c0 40       	sbci	r28, 0x00	; 0
    3c9e:	e1 f7       	brne	.-8      	; 0x3c98 <__stack+0x3439>
    3ca0:	00 c0       	rjmp	.+0      	; 0x3ca2 <__stack+0x3443>
    3ca2:	00 00       	nop
					_delay_ms(period);
					PORTD = 0x04;
    3ca4:	62 bb       	out	0x12, r22	; 18
    3ca6:	af ef       	ldi	r26, 0xFF	; 255
    3ca8:	b1 ee       	ldi	r27, 0xE1	; 225
    3caa:	c4 e0       	ldi	r28, 0x04	; 4
    3cac:	a1 50       	subi	r26, 0x01	; 1
    3cae:	b0 40       	sbci	r27, 0x00	; 0
    3cb0:	c0 40       	sbci	r28, 0x00	; 0
    3cb2:	e1 f7       	brne	.-8      	; 0x3cac <__stack+0x344d>
    3cb4:	00 c0       	rjmp	.+0      	; 0x3cb6 <__stack+0x3457>
    3cb6:	00 00       	nop
					_delay_ms(period);
					PORTD = 0x06;
    3cb8:	52 bb       	out	0x12, r21	; 18
    3cba:	af ef       	ldi	r26, 0xFF	; 255
    3cbc:	b1 ee       	ldi	r27, 0xE1	; 225
    3cbe:	c4 e0       	ldi	r28, 0x04	; 4
    3cc0:	a1 50       	subi	r26, 0x01	; 1
    3cc2:	b0 40       	sbci	r27, 0x00	; 0
    3cc4:	c0 40       	sbci	r28, 0x00	; 0
    3cc6:	e1 f7       	brne	.-8      	; 0x3cc0 <__stack+0x3461>
    3cc8:	00 c0       	rjmp	.+0      	; 0x3cca <__stack+0x346b>
    3cca:	00 00       	nop
					_delay_ms(period);
					PORTD = 0x02;
    3ccc:	42 bb       	out	0x12, r20	; 18
    3cce:	af ef       	ldi	r26, 0xFF	; 255
    3cd0:	b1 ee       	ldi	r27, 0xE1	; 225
    3cd2:	c4 e0       	ldi	r28, 0x04	; 4
    3cd4:	a1 50       	subi	r26, 0x01	; 1
    3cd6:	b0 40       	sbci	r27, 0x00	; 0
    3cd8:	c0 40       	sbci	r28, 0x00	; 0
    3cda:	e1 f7       	brne	.-8      	; 0x3cd4 <__stack+0x3475>
    3cdc:	00 c0       	rjmp	.+0      	; 0x3cde <__stack+0x347f>
    3cde:	00 00       	nop
					_delay_ms(period);
					PORTD = 0x03;
    3ce0:	32 bb       	out	0x12, r19	; 18
    3ce2:	af ef       	ldi	r26, 0xFF	; 255
    3ce4:	b1 ee       	ldi	r27, 0xE1	; 225
    3ce6:	c4 e0       	ldi	r28, 0x04	; 4
    3ce8:	a1 50       	subi	r26, 0x01	; 1
    3cea:	b0 40       	sbci	r27, 0x00	; 0
    3cec:	c0 40       	sbci	r28, 0x00	; 0
    3cee:	e1 f7       	brne	.-8      	; 0x3ce8 <__stack+0x3489>
    3cf0:	00 c0       	rjmp	.+0      	; 0x3cf2 <__stack+0x3493>
    3cf2:	00 00       	nop
					_delay_ms(period);
					PORTD = 0x01;
    3cf4:	22 bb       	out	0x12, r18	; 18
    3cf6:	af ef       	ldi	r26, 0xFF	; 255
    3cf8:	b1 ee       	ldi	r27, 0xE1	; 225
    3cfa:	c4 e0       	ldi	r28, 0x04	; 4
    3cfc:	a1 50       	subi	r26, 0x01	; 1
    3cfe:	b0 40       	sbci	r27, 0x00	; 0
    3d00:	c0 40       	sbci	r28, 0x00	; 0
    3d02:	e1 f7       	brne	.-8      	; 0x3cfc <__stack+0x349d>
    3d04:	00 c0       	rjmp	.+0      	; 0x3d06 <__stack+0x34a7>
    3d06:	00 00       	nop
    3d08:	01 97       	sbiw	r24, 0x01	; 1
				break;
			}
			case 6:
			{
				/* Rotate Stepper Motor clockwise with Half step sequence */
				for (int i = 0; i < 12; i++)
    3d0a:	09 f0       	breq	.+2      	; 0x3d0e <__stack+0x34af>
    3d0c:	ad cf       	rjmp	.-166    	; 0x3c68 <__stack+0x3409>
					PORTD = 0x03;
					_delay_ms(period);
					PORTD = 0x01;
					_delay_ms(period);
				}
				PORTD = 0x09; /* Last step to initial position */
    3d0e:	89 e0       	ldi	r24, 0x09	; 9
    3d10:	82 bb       	out	0x12, r24	; 18
    3d12:	ef ef       	ldi	r30, 0xFF	; 255
    3d14:	21 ee       	ldi	r18, 0xE1	; 225
    3d16:	64 e0       	ldi	r22, 0x04	; 4
    3d18:	e1 50       	subi	r30, 0x01	; 1
    3d1a:	20 40       	sbci	r18, 0x00	; 0
    3d1c:	60 40       	sbci	r22, 0x00	; 0
    3d1e:	e1 f7       	brne	.-8      	; 0x3d18 <__stack+0x34b9>
    3d20:	00 c0       	rjmp	.+0      	; 0x3d22 <__stack+0x34c3>
    3d22:	00 00       	nop
    3d24:	7f ef       	ldi	r23, 0xFF	; 255
    3d26:	83 ed       	ldi	r24, 0xD3	; 211
    3d28:	90 e3       	ldi	r25, 0x30	; 48
    3d2a:	71 50       	subi	r23, 0x01	; 1
    3d2c:	80 40       	sbci	r24, 0x00	; 0
    3d2e:	90 40       	sbci	r25, 0x00	; 0
    3d30:	e1 f7       	brne	.-8      	; 0x3d2a <__stack+0x34cb>
    3d32:	00 c0       	rjmp	.+0      	; 0x3d34 <__stack+0x34d5>
    3d34:	00 00       	nop
    3d36:	8c e0       	ldi	r24, 0x0C	; 12
    3d38:	90 e0       	ldi	r25, 0x00	; 0
				_delay_ms(1000);

				/* Rotate Stepper Motor Anticlockwise with Full step sequence */
				for (int i = 0; i < 12; i++)
				{
					PORTD = 0x09;
    3d3a:	59 e0       	ldi	r21, 0x09	; 9
					_delay_ms(period);
					PORTD = 0x03;
    3d3c:	43 e0       	ldi	r20, 0x03	; 3
					_delay_ms(period);
					PORTD = 0x06;
    3d3e:	36 e0       	ldi	r19, 0x06	; 6
					_delay_ms(period);
					PORTD = 0x0C;
    3d40:	2c e0       	ldi	r18, 0x0C	; 12
				_delay_ms(1000);

				/* Rotate Stepper Motor Anticlockwise with Full step sequence */
				for (int i = 0; i < 12; i++)
				{
					PORTD = 0x09;
    3d42:	52 bb       	out	0x12, r21	; 18
    3d44:	af ef       	ldi	r26, 0xFF	; 255
    3d46:	b1 ee       	ldi	r27, 0xE1	; 225
    3d48:	c4 e0       	ldi	r28, 0x04	; 4
    3d4a:	a1 50       	subi	r26, 0x01	; 1
    3d4c:	b0 40       	sbci	r27, 0x00	; 0
    3d4e:	c0 40       	sbci	r28, 0x00	; 0
    3d50:	e1 f7       	brne	.-8      	; 0x3d4a <__stack+0x34eb>
    3d52:	00 c0       	rjmp	.+0      	; 0x3d54 <__stack+0x34f5>
    3d54:	00 00       	nop
					_delay_ms(period);
					PORTD = 0x03;
    3d56:	42 bb       	out	0x12, r20	; 18
    3d58:	ef ef       	ldi	r30, 0xFF	; 255
    3d5a:	61 ee       	ldi	r22, 0xE1	; 225
    3d5c:	74 e0       	ldi	r23, 0x04	; 4
    3d5e:	e1 50       	subi	r30, 0x01	; 1
    3d60:	60 40       	sbci	r22, 0x00	; 0
    3d62:	70 40       	sbci	r23, 0x00	; 0
    3d64:	e1 f7       	brne	.-8      	; 0x3d5e <__stack+0x34ff>
    3d66:	00 c0       	rjmp	.+0      	; 0x3d68 <__stack+0x3509>
    3d68:	00 00       	nop
					_delay_ms(period);
					PORTD = 0x06;
    3d6a:	32 bb       	out	0x12, r19	; 18
    3d6c:	af ef       	ldi	r26, 0xFF	; 255
    3d6e:	b1 ee       	ldi	r27, 0xE1	; 225
    3d70:	c4 e0       	ldi	r28, 0x04	; 4
    3d72:	a1 50       	subi	r26, 0x01	; 1
    3d74:	b0 40       	sbci	r27, 0x00	; 0
    3d76:	c0 40       	sbci	r28, 0x00	; 0
    3d78:	e1 f7       	brne	.-8      	; 0x3d72 <__stack+0x3513>
    3d7a:	00 c0       	rjmp	.+0      	; 0x3d7c <__stack+0x351d>
    3d7c:	00 00       	nop
					_delay_ms(period);
					PORTD = 0x0C;
    3d7e:	22 bb       	out	0x12, r18	; 18
    3d80:	ef ef       	ldi	r30, 0xFF	; 255
    3d82:	61 ee       	ldi	r22, 0xE1	; 225
    3d84:	74 e0       	ldi	r23, 0x04	; 4
    3d86:	e1 50       	subi	r30, 0x01	; 1
    3d88:	60 40       	sbci	r22, 0x00	; 0
    3d8a:	70 40       	sbci	r23, 0x00	; 0
    3d8c:	e1 f7       	brne	.-8      	; 0x3d86 <__stack+0x3527>
    3d8e:	00 c0       	rjmp	.+0      	; 0x3d90 <__stack+0x3531>
    3d90:	00 00       	nop
    3d92:	01 97       	sbiw	r24, 0x01	; 1
				PORTD = 0x09; /* Last step to initial position */
				_delay_ms(period);
				_delay_ms(1000);

				/* Rotate Stepper Motor Anticlockwise with Full step sequence */
				for (int i = 0; i < 12; i++)
    3d94:	b1 f6       	brne	.-84     	; 0x3d42 <__stack+0x34e3>
					PORTD = 0x06;
					_delay_ms(period);
					PORTD = 0x0C;
					_delay_ms(period);
				}
				PORTD = 0x09;
    3d96:	89 e0       	ldi	r24, 0x09	; 9
    3d98:	82 bb       	out	0x12, r24	; 18
    3d9a:	8f ef       	ldi	r24, 0xFF	; 255
    3d9c:	91 ee       	ldi	r25, 0xE1	; 225
    3d9e:	a4 e0       	ldi	r26, 0x04	; 4
    3da0:	81 50       	subi	r24, 0x01	; 1
    3da2:	90 40       	sbci	r25, 0x00	; 0
    3da4:	a0 40       	sbci	r26, 0x00	; 0
    3da6:	e1 f7       	brne	.-8      	; 0x3da0 <__stack+0x3541>
    3da8:	00 c0       	rjmp	.+0      	; 0x3daa <__stack+0x354b>
    3daa:	00 00       	nop
    3dac:	bf ef       	ldi	r27, 0xFF	; 255
    3dae:	c3 ed       	ldi	r28, 0xD3	; 211
    3db0:	e0 e3       	ldi	r30, 0x30	; 48
    3db2:	b1 50       	subi	r27, 0x01	; 1
    3db4:	c0 40       	sbci	r28, 0x00	; 0
    3db6:	e0 40       	sbci	r30, 0x00	; 0
    3db8:	e1 f7       	brne	.-8      	; 0x3db2 <__stack+0x3553>
    3dba:	00 c0       	rjmp	.+0      	; 0x3dbc <__stack+0x355d>
    3dbc:	00 00       	nop
    3dbe:	0c 94 2c 3b 	jmp	0x7658	; 0x7658 <__stack+0x6df9>
				break;
			}
		}
		break;
		case 5:
		switch (personNum)
    3dc2:	8c e0       	ldi	r24, 0x0C	; 12
    3dc4:	90 e0       	ldi	r25, 0x00	; 0
			case 7:
			{
				/* Rotate Stepper Motor clockwise with Half step sequence */
				for (int i = 0; i < 12; i++)
				{
					PORTD = 0x09;
    3dc6:	f9 e0       	ldi	r31, 0x09	; 9
					_delay_ms(period);
					PORTD = 0x08;
    3dc8:	e8 e0       	ldi	r30, 0x08	; 8
					_delay_ms(period);
					PORTD = 0x0C;
    3dca:	7c e0       	ldi	r23, 0x0C	; 12
					_delay_ms(period);
					PORTD = 0x04;
    3dcc:	64 e0       	ldi	r22, 0x04	; 4
					_delay_ms(period);
					PORTD = 0x06;
    3dce:	56 e0       	ldi	r21, 0x06	; 6
					_delay_ms(period);
					PORTD = 0x02;
    3dd0:	42 e0       	ldi	r20, 0x02	; 2
					_delay_ms(period);
					PORTD = 0x03;
    3dd2:	33 e0       	ldi	r19, 0x03	; 3
					_delay_ms(period);
					PORTD = 0x01;
    3dd4:	21 e0       	ldi	r18, 0x01	; 1
			case 7:
			{
				/* Rotate Stepper Motor clockwise with Half step sequence */
				for (int i = 0; i < 12; i++)
				{
					PORTD = 0x09;
    3dd6:	f2 bb       	out	0x12, r31	; 18
    3dd8:	af ef       	ldi	r26, 0xFF	; 255
    3dda:	b1 ee       	ldi	r27, 0xE1	; 225
    3ddc:	c4 e0       	ldi	r28, 0x04	; 4
    3dde:	a1 50       	subi	r26, 0x01	; 1
    3de0:	b0 40       	sbci	r27, 0x00	; 0
    3de2:	c0 40       	sbci	r28, 0x00	; 0
    3de4:	e1 f7       	brne	.-8      	; 0x3dde <__stack+0x357f>
    3de6:	00 c0       	rjmp	.+0      	; 0x3de8 <__stack+0x3589>
    3de8:	00 00       	nop
					_delay_ms(period);
					PORTD = 0x08;
    3dea:	e2 bb       	out	0x12, r30	; 18
    3dec:	af ef       	ldi	r26, 0xFF	; 255
    3dee:	b1 ee       	ldi	r27, 0xE1	; 225
    3df0:	c4 e0       	ldi	r28, 0x04	; 4
    3df2:	a1 50       	subi	r26, 0x01	; 1
    3df4:	b0 40       	sbci	r27, 0x00	; 0
    3df6:	c0 40       	sbci	r28, 0x00	; 0
    3df8:	e1 f7       	brne	.-8      	; 0x3df2 <__stack+0x3593>
    3dfa:	00 c0       	rjmp	.+0      	; 0x3dfc <__stack+0x359d>
    3dfc:	00 00       	nop
					_delay_ms(period);
					PORTD = 0x0C;
    3dfe:	72 bb       	out	0x12, r23	; 18
    3e00:	af ef       	ldi	r26, 0xFF	; 255
    3e02:	b1 ee       	ldi	r27, 0xE1	; 225
    3e04:	c4 e0       	ldi	r28, 0x04	; 4
    3e06:	a1 50       	subi	r26, 0x01	; 1
    3e08:	b0 40       	sbci	r27, 0x00	; 0
    3e0a:	c0 40       	sbci	r28, 0x00	; 0
    3e0c:	e1 f7       	brne	.-8      	; 0x3e06 <__stack+0x35a7>
    3e0e:	00 c0       	rjmp	.+0      	; 0x3e10 <__stack+0x35b1>
    3e10:	00 00       	nop
					_delay_ms(period);
					PORTD = 0x04;
    3e12:	62 bb       	out	0x12, r22	; 18
    3e14:	af ef       	ldi	r26, 0xFF	; 255
    3e16:	b1 ee       	ldi	r27, 0xE1	; 225
    3e18:	c4 e0       	ldi	r28, 0x04	; 4
    3e1a:	a1 50       	subi	r26, 0x01	; 1
    3e1c:	b0 40       	sbci	r27, 0x00	; 0
    3e1e:	c0 40       	sbci	r28, 0x00	; 0
    3e20:	e1 f7       	brne	.-8      	; 0x3e1a <__stack+0x35bb>
    3e22:	00 c0       	rjmp	.+0      	; 0x3e24 <__stack+0x35c5>
    3e24:	00 00       	nop
					_delay_ms(period);
					PORTD = 0x06;
    3e26:	52 bb       	out	0x12, r21	; 18
    3e28:	af ef       	ldi	r26, 0xFF	; 255
    3e2a:	b1 ee       	ldi	r27, 0xE1	; 225
    3e2c:	c4 e0       	ldi	r28, 0x04	; 4
    3e2e:	a1 50       	subi	r26, 0x01	; 1
    3e30:	b0 40       	sbci	r27, 0x00	; 0
    3e32:	c0 40       	sbci	r28, 0x00	; 0
    3e34:	e1 f7       	brne	.-8      	; 0x3e2e <__stack+0x35cf>
    3e36:	00 c0       	rjmp	.+0      	; 0x3e38 <__stack+0x35d9>
    3e38:	00 00       	nop
					_delay_ms(period);
					PORTD = 0x02;
    3e3a:	42 bb       	out	0x12, r20	; 18
    3e3c:	af ef       	ldi	r26, 0xFF	; 255
    3e3e:	b1 ee       	ldi	r27, 0xE1	; 225
    3e40:	c4 e0       	ldi	r28, 0x04	; 4
    3e42:	a1 50       	subi	r26, 0x01	; 1
    3e44:	b0 40       	sbci	r27, 0x00	; 0
    3e46:	c0 40       	sbci	r28, 0x00	; 0
    3e48:	e1 f7       	brne	.-8      	; 0x3e42 <__stack+0x35e3>
    3e4a:	00 c0       	rjmp	.+0      	; 0x3e4c <__stack+0x35ed>
    3e4c:	00 00       	nop
					_delay_ms(period);
					PORTD = 0x03;
    3e4e:	32 bb       	out	0x12, r19	; 18
    3e50:	af ef       	ldi	r26, 0xFF	; 255
    3e52:	b1 ee       	ldi	r27, 0xE1	; 225
    3e54:	c4 e0       	ldi	r28, 0x04	; 4
    3e56:	a1 50       	subi	r26, 0x01	; 1
    3e58:	b0 40       	sbci	r27, 0x00	; 0
    3e5a:	c0 40       	sbci	r28, 0x00	; 0
    3e5c:	e1 f7       	brne	.-8      	; 0x3e56 <__stack+0x35f7>
    3e5e:	00 c0       	rjmp	.+0      	; 0x3e60 <__stack+0x3601>
    3e60:	00 00       	nop
					_delay_ms(period);
					PORTD = 0x01;
    3e62:	22 bb       	out	0x12, r18	; 18
    3e64:	af ef       	ldi	r26, 0xFF	; 255
    3e66:	b1 ee       	ldi	r27, 0xE1	; 225
    3e68:	c4 e0       	ldi	r28, 0x04	; 4
    3e6a:	a1 50       	subi	r26, 0x01	; 1
    3e6c:	b0 40       	sbci	r27, 0x00	; 0
    3e6e:	c0 40       	sbci	r28, 0x00	; 0
    3e70:	e1 f7       	brne	.-8      	; 0x3e6a <__stack+0x360b>
    3e72:	00 c0       	rjmp	.+0      	; 0x3e74 <__stack+0x3615>
    3e74:	00 00       	nop
    3e76:	01 97       	sbiw	r24, 0x01	; 1
				break;
			}
			case 7:
			{
				/* Rotate Stepper Motor clockwise with Half step sequence */
				for (int i = 0; i < 12; i++)
    3e78:	09 f0       	breq	.+2      	; 0x3e7c <__stack+0x361d>
    3e7a:	ad cf       	rjmp	.-166    	; 0x3dd6 <__stack+0x3577>
					PORTD = 0x03;
					_delay_ms(period);
					PORTD = 0x01;
					_delay_ms(period);
				}
				PORTD = 0x09; /* Last step to initial position */
    3e7c:	89 e0       	ldi	r24, 0x09	; 9
    3e7e:	82 bb       	out	0x12, r24	; 18
    3e80:	ef ef       	ldi	r30, 0xFF	; 255
    3e82:	21 ee       	ldi	r18, 0xE1	; 225
    3e84:	64 e0       	ldi	r22, 0x04	; 4
    3e86:	e1 50       	subi	r30, 0x01	; 1
    3e88:	20 40       	sbci	r18, 0x00	; 0
    3e8a:	60 40       	sbci	r22, 0x00	; 0
    3e8c:	e1 f7       	brne	.-8      	; 0x3e86 <__stack+0x3627>
    3e8e:	00 c0       	rjmp	.+0      	; 0x3e90 <__stack+0x3631>
    3e90:	00 00       	nop
    3e92:	7f ef       	ldi	r23, 0xFF	; 255
    3e94:	83 ed       	ldi	r24, 0xD3	; 211
    3e96:	90 e3       	ldi	r25, 0x30	; 48
    3e98:	71 50       	subi	r23, 0x01	; 1
    3e9a:	80 40       	sbci	r24, 0x00	; 0
    3e9c:	90 40       	sbci	r25, 0x00	; 0
    3e9e:	e1 f7       	brne	.-8      	; 0x3e98 <__stack+0x3639>
    3ea0:	00 c0       	rjmp	.+0      	; 0x3ea2 <__stack+0x3643>
    3ea2:	00 00       	nop
    3ea4:	8c e0       	ldi	r24, 0x0C	; 12
    3ea6:	90 e0       	ldi	r25, 0x00	; 0
				_delay_ms(1000);

				/* Rotate Stepper Motor Anticlockwise with Full step sequence */
				for (int i = 0; i < 12; i++)
				{
					PORTD = 0x09;
    3ea8:	59 e0       	ldi	r21, 0x09	; 9
					_delay_ms(period);
					PORTD = 0x03;
    3eaa:	43 e0       	ldi	r20, 0x03	; 3
					_delay_ms(period);
					PORTD = 0x06;
    3eac:	36 e0       	ldi	r19, 0x06	; 6
					_delay_ms(period);
					PORTD = 0x0C;
    3eae:	2c e0       	ldi	r18, 0x0C	; 12
				_delay_ms(1000);

				/* Rotate Stepper Motor Anticlockwise with Full step sequence */
				for (int i = 0; i < 12; i++)
				{
					PORTD = 0x09;
    3eb0:	52 bb       	out	0x12, r21	; 18
    3eb2:	af ef       	ldi	r26, 0xFF	; 255
    3eb4:	b1 ee       	ldi	r27, 0xE1	; 225
    3eb6:	c4 e0       	ldi	r28, 0x04	; 4
    3eb8:	a1 50       	subi	r26, 0x01	; 1
    3eba:	b0 40       	sbci	r27, 0x00	; 0
    3ebc:	c0 40       	sbci	r28, 0x00	; 0
    3ebe:	e1 f7       	brne	.-8      	; 0x3eb8 <__stack+0x3659>
    3ec0:	00 c0       	rjmp	.+0      	; 0x3ec2 <__stack+0x3663>
    3ec2:	00 00       	nop
					_delay_ms(period);
					PORTD = 0x03;
    3ec4:	42 bb       	out	0x12, r20	; 18
    3ec6:	ef ef       	ldi	r30, 0xFF	; 255
    3ec8:	61 ee       	ldi	r22, 0xE1	; 225
    3eca:	74 e0       	ldi	r23, 0x04	; 4
    3ecc:	e1 50       	subi	r30, 0x01	; 1
    3ece:	60 40       	sbci	r22, 0x00	; 0
    3ed0:	70 40       	sbci	r23, 0x00	; 0
    3ed2:	e1 f7       	brne	.-8      	; 0x3ecc <__stack+0x366d>
    3ed4:	00 c0       	rjmp	.+0      	; 0x3ed6 <__stack+0x3677>
    3ed6:	00 00       	nop
					_delay_ms(period);
					PORTD = 0x06;
    3ed8:	32 bb       	out	0x12, r19	; 18
    3eda:	af ef       	ldi	r26, 0xFF	; 255
    3edc:	b1 ee       	ldi	r27, 0xE1	; 225
    3ede:	c4 e0       	ldi	r28, 0x04	; 4
    3ee0:	a1 50       	subi	r26, 0x01	; 1
    3ee2:	b0 40       	sbci	r27, 0x00	; 0
    3ee4:	c0 40       	sbci	r28, 0x00	; 0
    3ee6:	e1 f7       	brne	.-8      	; 0x3ee0 <__stack+0x3681>
    3ee8:	00 c0       	rjmp	.+0      	; 0x3eea <__stack+0x368b>
    3eea:	00 00       	nop
					_delay_ms(period);
					PORTD = 0x0C;
    3eec:	22 bb       	out	0x12, r18	; 18
    3eee:	ef ef       	ldi	r30, 0xFF	; 255
    3ef0:	61 ee       	ldi	r22, 0xE1	; 225
    3ef2:	74 e0       	ldi	r23, 0x04	; 4
    3ef4:	e1 50       	subi	r30, 0x01	; 1
    3ef6:	60 40       	sbci	r22, 0x00	; 0
    3ef8:	70 40       	sbci	r23, 0x00	; 0
    3efa:	e1 f7       	brne	.-8      	; 0x3ef4 <__stack+0x3695>
    3efc:	00 c0       	rjmp	.+0      	; 0x3efe <__stack+0x369f>
    3efe:	00 00       	nop
    3f00:	01 97       	sbiw	r24, 0x01	; 1
				PORTD = 0x09; /* Last step to initial position */
				_delay_ms(period);
				_delay_ms(1000);

				/* Rotate Stepper Motor Anticlockwise with Full step sequence */
				for (int i = 0; i < 12; i++)
    3f02:	b1 f6       	brne	.-84     	; 0x3eb0 <__stack+0x3651>
					PORTD = 0x06;
					_delay_ms(period);
					PORTD = 0x0C;
					_delay_ms(period);
				}
				PORTD = 0x09;
    3f04:	89 e0       	ldi	r24, 0x09	; 9
    3f06:	82 bb       	out	0x12, r24	; 18
    3f08:	8f ef       	ldi	r24, 0xFF	; 255
    3f0a:	91 ee       	ldi	r25, 0xE1	; 225
    3f0c:	a4 e0       	ldi	r26, 0x04	; 4
    3f0e:	81 50       	subi	r24, 0x01	; 1
    3f10:	90 40       	sbci	r25, 0x00	; 0
    3f12:	a0 40       	sbci	r26, 0x00	; 0
    3f14:	e1 f7       	brne	.-8      	; 0x3f0e <__stack+0x36af>
    3f16:	00 c0       	rjmp	.+0      	; 0x3f18 <__stack+0x36b9>
    3f18:	00 00       	nop
    3f1a:	bf ef       	ldi	r27, 0xFF	; 255
    3f1c:	c3 ed       	ldi	r28, 0xD3	; 211
    3f1e:	e0 e3       	ldi	r30, 0x30	; 48
    3f20:	b1 50       	subi	r27, 0x01	; 1
    3f22:	c0 40       	sbci	r28, 0x00	; 0
    3f24:	e0 40       	sbci	r30, 0x00	; 0
    3f26:	e1 f7       	brne	.-8      	; 0x3f20 <__stack+0x36c1>
    3f28:	00 c0       	rjmp	.+0      	; 0x3f2a <__stack+0x36cb>
    3f2a:	00 00       	nop
    3f2c:	0c 94 2c 3b 	jmp	0x7658	; 0x7658 <__stack+0x6df9>
				break;
			}
		}
		break;
		case 5:
		switch (personNum)
    3f30:	8c e0       	ldi	r24, 0x0C	; 12
    3f32:	90 e0       	ldi	r25, 0x00	; 0
			case 8:
			{
				/* Rotate Stepper Motor clockwise with Half step sequence */
				for (int i = 0; i < 12; i++)
				{
					PORTD = 0x09;
    3f34:	f9 e0       	ldi	r31, 0x09	; 9
					_delay_ms(period);
					PORTD = 0x08;
    3f36:	e8 e0       	ldi	r30, 0x08	; 8
					_delay_ms(period);
					PORTD = 0x0C;
    3f38:	7c e0       	ldi	r23, 0x0C	; 12
					_delay_ms(period);
					PORTD = 0x04;
    3f3a:	64 e0       	ldi	r22, 0x04	; 4
					_delay_ms(period);
					PORTD = 0x06;
    3f3c:	56 e0       	ldi	r21, 0x06	; 6
					_delay_ms(period);
					PORTD = 0x02;
    3f3e:	42 e0       	ldi	r20, 0x02	; 2
					_delay_ms(period);
					PORTD = 0x03;
    3f40:	33 e0       	ldi	r19, 0x03	; 3
					_delay_ms(period);
					PORTD = 0x01;
    3f42:	21 e0       	ldi	r18, 0x01	; 1
			case 8:
			{
				/* Rotate Stepper Motor clockwise with Half step sequence */
				for (int i = 0; i < 12; i++)
				{
					PORTD = 0x09;
    3f44:	f2 bb       	out	0x12, r31	; 18
    3f46:	af ef       	ldi	r26, 0xFF	; 255
    3f48:	b1 ee       	ldi	r27, 0xE1	; 225
    3f4a:	c4 e0       	ldi	r28, 0x04	; 4
    3f4c:	a1 50       	subi	r26, 0x01	; 1
    3f4e:	b0 40       	sbci	r27, 0x00	; 0
    3f50:	c0 40       	sbci	r28, 0x00	; 0
    3f52:	e1 f7       	brne	.-8      	; 0x3f4c <__stack+0x36ed>
    3f54:	00 c0       	rjmp	.+0      	; 0x3f56 <__stack+0x36f7>
    3f56:	00 00       	nop
					_delay_ms(period);
					PORTD = 0x08;
    3f58:	e2 bb       	out	0x12, r30	; 18
    3f5a:	af ef       	ldi	r26, 0xFF	; 255
    3f5c:	b1 ee       	ldi	r27, 0xE1	; 225
    3f5e:	c4 e0       	ldi	r28, 0x04	; 4
    3f60:	a1 50       	subi	r26, 0x01	; 1
    3f62:	b0 40       	sbci	r27, 0x00	; 0
    3f64:	c0 40       	sbci	r28, 0x00	; 0
    3f66:	e1 f7       	brne	.-8      	; 0x3f60 <__stack+0x3701>
    3f68:	00 c0       	rjmp	.+0      	; 0x3f6a <__stack+0x370b>
    3f6a:	00 00       	nop
					_delay_ms(period);
					PORTD = 0x0C;
    3f6c:	72 bb       	out	0x12, r23	; 18
    3f6e:	af ef       	ldi	r26, 0xFF	; 255
    3f70:	b1 ee       	ldi	r27, 0xE1	; 225
    3f72:	c4 e0       	ldi	r28, 0x04	; 4
    3f74:	a1 50       	subi	r26, 0x01	; 1
    3f76:	b0 40       	sbci	r27, 0x00	; 0
    3f78:	c0 40       	sbci	r28, 0x00	; 0
    3f7a:	e1 f7       	brne	.-8      	; 0x3f74 <__stack+0x3715>
    3f7c:	00 c0       	rjmp	.+0      	; 0x3f7e <__stack+0x371f>
    3f7e:	00 00       	nop
					_delay_ms(period);
					PORTD = 0x04;
    3f80:	62 bb       	out	0x12, r22	; 18
    3f82:	af ef       	ldi	r26, 0xFF	; 255
    3f84:	b1 ee       	ldi	r27, 0xE1	; 225
    3f86:	c4 e0       	ldi	r28, 0x04	; 4
    3f88:	a1 50       	subi	r26, 0x01	; 1
    3f8a:	b0 40       	sbci	r27, 0x00	; 0
    3f8c:	c0 40       	sbci	r28, 0x00	; 0
    3f8e:	e1 f7       	brne	.-8      	; 0x3f88 <__stack+0x3729>
    3f90:	00 c0       	rjmp	.+0      	; 0x3f92 <__stack+0x3733>
    3f92:	00 00       	nop
					_delay_ms(period);
					PORTD = 0x06;
    3f94:	52 bb       	out	0x12, r21	; 18
    3f96:	af ef       	ldi	r26, 0xFF	; 255
    3f98:	b1 ee       	ldi	r27, 0xE1	; 225
    3f9a:	c4 e0       	ldi	r28, 0x04	; 4
    3f9c:	a1 50       	subi	r26, 0x01	; 1
    3f9e:	b0 40       	sbci	r27, 0x00	; 0
    3fa0:	c0 40       	sbci	r28, 0x00	; 0
    3fa2:	e1 f7       	brne	.-8      	; 0x3f9c <__stack+0x373d>
    3fa4:	00 c0       	rjmp	.+0      	; 0x3fa6 <__stack+0x3747>
    3fa6:	00 00       	nop
					_delay_ms(period);
					PORTD = 0x02;
    3fa8:	42 bb       	out	0x12, r20	; 18
    3faa:	af ef       	ldi	r26, 0xFF	; 255
    3fac:	b1 ee       	ldi	r27, 0xE1	; 225
    3fae:	c4 e0       	ldi	r28, 0x04	; 4
    3fb0:	a1 50       	subi	r26, 0x01	; 1
    3fb2:	b0 40       	sbci	r27, 0x00	; 0
    3fb4:	c0 40       	sbci	r28, 0x00	; 0
    3fb6:	e1 f7       	brne	.-8      	; 0x3fb0 <__stack+0x3751>
    3fb8:	00 c0       	rjmp	.+0      	; 0x3fba <__stack+0x375b>
    3fba:	00 00       	nop
					_delay_ms(period);
					PORTD = 0x03;
    3fbc:	32 bb       	out	0x12, r19	; 18
    3fbe:	af ef       	ldi	r26, 0xFF	; 255
    3fc0:	b1 ee       	ldi	r27, 0xE1	; 225
    3fc2:	c4 e0       	ldi	r28, 0x04	; 4
    3fc4:	a1 50       	subi	r26, 0x01	; 1
    3fc6:	b0 40       	sbci	r27, 0x00	; 0
    3fc8:	c0 40       	sbci	r28, 0x00	; 0
    3fca:	e1 f7       	brne	.-8      	; 0x3fc4 <__stack+0x3765>
    3fcc:	00 c0       	rjmp	.+0      	; 0x3fce <__stack+0x376f>
    3fce:	00 00       	nop
					_delay_ms(period);
					PORTD = 0x01;
    3fd0:	22 bb       	out	0x12, r18	; 18
    3fd2:	af ef       	ldi	r26, 0xFF	; 255
    3fd4:	b1 ee       	ldi	r27, 0xE1	; 225
    3fd6:	c4 e0       	ldi	r28, 0x04	; 4
    3fd8:	a1 50       	subi	r26, 0x01	; 1
    3fda:	b0 40       	sbci	r27, 0x00	; 0
    3fdc:	c0 40       	sbci	r28, 0x00	; 0
    3fde:	e1 f7       	brne	.-8      	; 0x3fd8 <__stack+0x3779>
    3fe0:	00 c0       	rjmp	.+0      	; 0x3fe2 <__stack+0x3783>
    3fe2:	00 00       	nop
    3fe4:	01 97       	sbiw	r24, 0x01	; 1
				break;
			}
			case 8:
			{
				/* Rotate Stepper Motor clockwise with Half step sequence */
				for (int i = 0; i < 12; i++)
    3fe6:	09 f0       	breq	.+2      	; 0x3fea <__stack+0x378b>
    3fe8:	ad cf       	rjmp	.-166    	; 0x3f44 <__stack+0x36e5>
					PORTD = 0x03;
					_delay_ms(period);
					PORTD = 0x01;
					_delay_ms(period);
				}
				PORTD = 0x09; /* Last step to initial position */
    3fea:	89 e0       	ldi	r24, 0x09	; 9
    3fec:	82 bb       	out	0x12, r24	; 18
    3fee:	ef ef       	ldi	r30, 0xFF	; 255
    3ff0:	21 ee       	ldi	r18, 0xE1	; 225
    3ff2:	64 e0       	ldi	r22, 0x04	; 4
    3ff4:	e1 50       	subi	r30, 0x01	; 1
    3ff6:	20 40       	sbci	r18, 0x00	; 0
    3ff8:	60 40       	sbci	r22, 0x00	; 0
    3ffa:	e1 f7       	brne	.-8      	; 0x3ff4 <__stack+0x3795>
    3ffc:	00 c0       	rjmp	.+0      	; 0x3ffe <__stack+0x379f>
    3ffe:	00 00       	nop
    4000:	7f ef       	ldi	r23, 0xFF	; 255
    4002:	83 ed       	ldi	r24, 0xD3	; 211
    4004:	90 e3       	ldi	r25, 0x30	; 48
    4006:	71 50       	subi	r23, 0x01	; 1
    4008:	80 40       	sbci	r24, 0x00	; 0
    400a:	90 40       	sbci	r25, 0x00	; 0
    400c:	e1 f7       	brne	.-8      	; 0x4006 <__stack+0x37a7>
    400e:	00 c0       	rjmp	.+0      	; 0x4010 <__stack+0x37b1>
    4010:	00 00       	nop
    4012:	8c e0       	ldi	r24, 0x0C	; 12
    4014:	90 e0       	ldi	r25, 0x00	; 0
				_delay_ms(1000);

				/* Rotate Stepper Motor Anticlockwise with Full step sequence */
				for (int i = 0; i < 12; i++)
				{
					PORTD = 0x09;
    4016:	59 e0       	ldi	r21, 0x09	; 9
					_delay_ms(period);
					PORTD = 0x03;
    4018:	43 e0       	ldi	r20, 0x03	; 3
					_delay_ms(period);
					PORTD = 0x06;
    401a:	36 e0       	ldi	r19, 0x06	; 6
					_delay_ms(period);
					PORTD = 0x0C;
    401c:	2c e0       	ldi	r18, 0x0C	; 12
				_delay_ms(1000);

				/* Rotate Stepper Motor Anticlockwise with Full step sequence */
				for (int i = 0; i < 12; i++)
				{
					PORTD = 0x09;
    401e:	52 bb       	out	0x12, r21	; 18
    4020:	af ef       	ldi	r26, 0xFF	; 255
    4022:	b1 ee       	ldi	r27, 0xE1	; 225
    4024:	c4 e0       	ldi	r28, 0x04	; 4
    4026:	a1 50       	subi	r26, 0x01	; 1
    4028:	b0 40       	sbci	r27, 0x00	; 0
    402a:	c0 40       	sbci	r28, 0x00	; 0
    402c:	e1 f7       	brne	.-8      	; 0x4026 <__stack+0x37c7>
    402e:	00 c0       	rjmp	.+0      	; 0x4030 <__stack+0x37d1>
    4030:	00 00       	nop
					_delay_ms(period);
					PORTD = 0x03;
    4032:	42 bb       	out	0x12, r20	; 18
    4034:	ef ef       	ldi	r30, 0xFF	; 255
    4036:	61 ee       	ldi	r22, 0xE1	; 225
    4038:	74 e0       	ldi	r23, 0x04	; 4
    403a:	e1 50       	subi	r30, 0x01	; 1
    403c:	60 40       	sbci	r22, 0x00	; 0
    403e:	70 40       	sbci	r23, 0x00	; 0
    4040:	e1 f7       	brne	.-8      	; 0x403a <__stack+0x37db>
    4042:	00 c0       	rjmp	.+0      	; 0x4044 <__stack+0x37e5>
    4044:	00 00       	nop
					_delay_ms(period);
					PORTD = 0x06;
    4046:	32 bb       	out	0x12, r19	; 18
    4048:	af ef       	ldi	r26, 0xFF	; 255
    404a:	b1 ee       	ldi	r27, 0xE1	; 225
    404c:	c4 e0       	ldi	r28, 0x04	; 4
    404e:	a1 50       	subi	r26, 0x01	; 1
    4050:	b0 40       	sbci	r27, 0x00	; 0
    4052:	c0 40       	sbci	r28, 0x00	; 0
    4054:	e1 f7       	brne	.-8      	; 0x404e <__stack+0x37ef>
    4056:	00 c0       	rjmp	.+0      	; 0x4058 <__stack+0x37f9>
    4058:	00 00       	nop
					_delay_ms(period);
					PORTD = 0x0C;
    405a:	22 bb       	out	0x12, r18	; 18
    405c:	ef ef       	ldi	r30, 0xFF	; 255
    405e:	61 ee       	ldi	r22, 0xE1	; 225
    4060:	74 e0       	ldi	r23, 0x04	; 4
    4062:	e1 50       	subi	r30, 0x01	; 1
    4064:	60 40       	sbci	r22, 0x00	; 0
    4066:	70 40       	sbci	r23, 0x00	; 0
    4068:	e1 f7       	brne	.-8      	; 0x4062 <__stack+0x3803>
    406a:	00 c0       	rjmp	.+0      	; 0x406c <__stack+0x380d>
    406c:	00 00       	nop
    406e:	01 97       	sbiw	r24, 0x01	; 1
				PORTD = 0x09; /* Last step to initial position */
				_delay_ms(period);
				_delay_ms(1000);

				/* Rotate Stepper Motor Anticlockwise with Full step sequence */
				for (int i = 0; i < 12; i++)
    4070:	b1 f6       	brne	.-84     	; 0x401e <__stack+0x37bf>
					PORTD = 0x06;
					_delay_ms(period);
					PORTD = 0x0C;
					_delay_ms(period);
				}
				PORTD = 0x09;
    4072:	89 e0       	ldi	r24, 0x09	; 9
    4074:	82 bb       	out	0x12, r24	; 18
    4076:	8f ef       	ldi	r24, 0xFF	; 255
    4078:	91 ee       	ldi	r25, 0xE1	; 225
    407a:	a4 e0       	ldi	r26, 0x04	; 4
    407c:	81 50       	subi	r24, 0x01	; 1
    407e:	90 40       	sbci	r25, 0x00	; 0
    4080:	a0 40       	sbci	r26, 0x00	; 0
    4082:	e1 f7       	brne	.-8      	; 0x407c <__stack+0x381d>
    4084:	00 c0       	rjmp	.+0      	; 0x4086 <__stack+0x3827>
    4086:	00 00       	nop
    4088:	bf ef       	ldi	r27, 0xFF	; 255
    408a:	c3 ed       	ldi	r28, 0xD3	; 211
    408c:	e0 e3       	ldi	r30, 0x30	; 48
    408e:	b1 50       	subi	r27, 0x01	; 1
    4090:	c0 40       	sbci	r28, 0x00	; 0
    4092:	e0 40       	sbci	r30, 0x00	; 0
    4094:	e1 f7       	brne	.-8      	; 0x408e <__stack+0x382f>
    4096:	00 c0       	rjmp	.+0      	; 0x4098 <__stack+0x3839>
    4098:	00 00       	nop
    409a:	0c 94 2c 3b 	jmp	0x7658	; 0x7658 <__stack+0x6df9>
				break;
			}
		}
		break;
		case 5:
		switch (personNum)
    409e:	8c e0       	ldi	r24, 0x0C	; 12
    40a0:	90 e0       	ldi	r25, 0x00	; 0
			case 9:
			{
				/* Rotate Stepper Motor clockwise with Half step sequence */
				for (int i = 0; i < 12; i++)
				{
					PORTD = 0x09;
    40a2:	f9 e0       	ldi	r31, 0x09	; 9
					_delay_ms(period);
					PORTD = 0x08;
    40a4:	e8 e0       	ldi	r30, 0x08	; 8
					_delay_ms(period);
					PORTD = 0x0C;
    40a6:	7c e0       	ldi	r23, 0x0C	; 12
					_delay_ms(period);
					PORTD = 0x04;
    40a8:	64 e0       	ldi	r22, 0x04	; 4
					_delay_ms(period);
					PORTD = 0x06;
    40aa:	56 e0       	ldi	r21, 0x06	; 6
					_delay_ms(period);
					PORTD = 0x02;
    40ac:	42 e0       	ldi	r20, 0x02	; 2
					_delay_ms(period);
					PORTD = 0x03;
    40ae:	33 e0       	ldi	r19, 0x03	; 3
					_delay_ms(period);
					PORTD = 0x01;
    40b0:	21 e0       	ldi	r18, 0x01	; 1
			case 9:
			{
				/* Rotate Stepper Motor clockwise with Half step sequence */
				for (int i = 0; i < 12; i++)
				{
					PORTD = 0x09;
    40b2:	f2 bb       	out	0x12, r31	; 18
    40b4:	af ef       	ldi	r26, 0xFF	; 255
    40b6:	b1 ee       	ldi	r27, 0xE1	; 225
    40b8:	c4 e0       	ldi	r28, 0x04	; 4
    40ba:	a1 50       	subi	r26, 0x01	; 1
    40bc:	b0 40       	sbci	r27, 0x00	; 0
    40be:	c0 40       	sbci	r28, 0x00	; 0
    40c0:	e1 f7       	brne	.-8      	; 0x40ba <__stack+0x385b>
    40c2:	00 c0       	rjmp	.+0      	; 0x40c4 <__stack+0x3865>
    40c4:	00 00       	nop
					_delay_ms(period);
					PORTD = 0x08;
    40c6:	e2 bb       	out	0x12, r30	; 18
    40c8:	af ef       	ldi	r26, 0xFF	; 255
    40ca:	b1 ee       	ldi	r27, 0xE1	; 225
    40cc:	c4 e0       	ldi	r28, 0x04	; 4
    40ce:	a1 50       	subi	r26, 0x01	; 1
    40d0:	b0 40       	sbci	r27, 0x00	; 0
    40d2:	c0 40       	sbci	r28, 0x00	; 0
    40d4:	e1 f7       	brne	.-8      	; 0x40ce <__stack+0x386f>
    40d6:	00 c0       	rjmp	.+0      	; 0x40d8 <__stack+0x3879>
    40d8:	00 00       	nop
					_delay_ms(period);
					PORTD = 0x0C;
    40da:	72 bb       	out	0x12, r23	; 18
    40dc:	af ef       	ldi	r26, 0xFF	; 255
    40de:	b1 ee       	ldi	r27, 0xE1	; 225
    40e0:	c4 e0       	ldi	r28, 0x04	; 4
    40e2:	a1 50       	subi	r26, 0x01	; 1
    40e4:	b0 40       	sbci	r27, 0x00	; 0
    40e6:	c0 40       	sbci	r28, 0x00	; 0
    40e8:	e1 f7       	brne	.-8      	; 0x40e2 <__stack+0x3883>
    40ea:	00 c0       	rjmp	.+0      	; 0x40ec <__stack+0x388d>
    40ec:	00 00       	nop
					_delay_ms(period);
					PORTD = 0x04;
    40ee:	62 bb       	out	0x12, r22	; 18
    40f0:	af ef       	ldi	r26, 0xFF	; 255
    40f2:	b1 ee       	ldi	r27, 0xE1	; 225
    40f4:	c4 e0       	ldi	r28, 0x04	; 4
    40f6:	a1 50       	subi	r26, 0x01	; 1
    40f8:	b0 40       	sbci	r27, 0x00	; 0
    40fa:	c0 40       	sbci	r28, 0x00	; 0
    40fc:	e1 f7       	brne	.-8      	; 0x40f6 <__stack+0x3897>
    40fe:	00 c0       	rjmp	.+0      	; 0x4100 <__stack+0x38a1>
    4100:	00 00       	nop
					_delay_ms(period);
					PORTD = 0x06;
    4102:	52 bb       	out	0x12, r21	; 18
    4104:	af ef       	ldi	r26, 0xFF	; 255
    4106:	b1 ee       	ldi	r27, 0xE1	; 225
    4108:	c4 e0       	ldi	r28, 0x04	; 4
    410a:	a1 50       	subi	r26, 0x01	; 1
    410c:	b0 40       	sbci	r27, 0x00	; 0
    410e:	c0 40       	sbci	r28, 0x00	; 0
    4110:	e1 f7       	brne	.-8      	; 0x410a <__stack+0x38ab>
    4112:	00 c0       	rjmp	.+0      	; 0x4114 <__stack+0x38b5>
    4114:	00 00       	nop
					_delay_ms(period);
					PORTD = 0x02;
    4116:	42 bb       	out	0x12, r20	; 18
    4118:	af ef       	ldi	r26, 0xFF	; 255
    411a:	b1 ee       	ldi	r27, 0xE1	; 225
    411c:	c4 e0       	ldi	r28, 0x04	; 4
    411e:	a1 50       	subi	r26, 0x01	; 1
    4120:	b0 40       	sbci	r27, 0x00	; 0
    4122:	c0 40       	sbci	r28, 0x00	; 0
    4124:	e1 f7       	brne	.-8      	; 0x411e <__stack+0x38bf>
    4126:	00 c0       	rjmp	.+0      	; 0x4128 <__stack+0x38c9>
    4128:	00 00       	nop
					_delay_ms(period);
					PORTD = 0x03;
    412a:	32 bb       	out	0x12, r19	; 18
    412c:	af ef       	ldi	r26, 0xFF	; 255
    412e:	b1 ee       	ldi	r27, 0xE1	; 225
    4130:	c4 e0       	ldi	r28, 0x04	; 4
    4132:	a1 50       	subi	r26, 0x01	; 1
    4134:	b0 40       	sbci	r27, 0x00	; 0
    4136:	c0 40       	sbci	r28, 0x00	; 0
    4138:	e1 f7       	brne	.-8      	; 0x4132 <__stack+0x38d3>
    413a:	00 c0       	rjmp	.+0      	; 0x413c <__stack+0x38dd>
    413c:	00 00       	nop
					_delay_ms(period);
					PORTD = 0x01;
    413e:	22 bb       	out	0x12, r18	; 18
    4140:	af ef       	ldi	r26, 0xFF	; 255
    4142:	b1 ee       	ldi	r27, 0xE1	; 225
    4144:	c4 e0       	ldi	r28, 0x04	; 4
    4146:	a1 50       	subi	r26, 0x01	; 1
    4148:	b0 40       	sbci	r27, 0x00	; 0
    414a:	c0 40       	sbci	r28, 0x00	; 0
    414c:	e1 f7       	brne	.-8      	; 0x4146 <__stack+0x38e7>
    414e:	00 c0       	rjmp	.+0      	; 0x4150 <__stack+0x38f1>
    4150:	00 00       	nop
    4152:	01 97       	sbiw	r24, 0x01	; 1
				break;
			}
			case 9:
			{
				/* Rotate Stepper Motor clockwise with Half step sequence */
				for (int i = 0; i < 12; i++)
    4154:	09 f0       	breq	.+2      	; 0x4158 <__stack+0x38f9>
    4156:	ad cf       	rjmp	.-166    	; 0x40b2 <__stack+0x3853>
					PORTD = 0x03;
					_delay_ms(period);
					PORTD = 0x01;
					_delay_ms(period);
				}
				PORTD = 0x09; /* Last step to initial position */
    4158:	89 e0       	ldi	r24, 0x09	; 9
    415a:	82 bb       	out	0x12, r24	; 18
    415c:	ef ef       	ldi	r30, 0xFF	; 255
    415e:	21 ee       	ldi	r18, 0xE1	; 225
    4160:	64 e0       	ldi	r22, 0x04	; 4
    4162:	e1 50       	subi	r30, 0x01	; 1
    4164:	20 40       	sbci	r18, 0x00	; 0
    4166:	60 40       	sbci	r22, 0x00	; 0
    4168:	e1 f7       	brne	.-8      	; 0x4162 <__stack+0x3903>
    416a:	00 c0       	rjmp	.+0      	; 0x416c <__stack+0x390d>
    416c:	00 00       	nop
    416e:	7f ef       	ldi	r23, 0xFF	; 255
    4170:	83 ed       	ldi	r24, 0xD3	; 211
    4172:	90 e3       	ldi	r25, 0x30	; 48
    4174:	71 50       	subi	r23, 0x01	; 1
    4176:	80 40       	sbci	r24, 0x00	; 0
    4178:	90 40       	sbci	r25, 0x00	; 0
    417a:	e1 f7       	brne	.-8      	; 0x4174 <__stack+0x3915>
    417c:	00 c0       	rjmp	.+0      	; 0x417e <__stack+0x391f>
    417e:	00 00       	nop
    4180:	8c e0       	ldi	r24, 0x0C	; 12
    4182:	90 e0       	ldi	r25, 0x00	; 0
				_delay_ms(1000);

				/* Rotate Stepper Motor Anticlockwise with Full step sequence */
				for (int i = 0; i < 12; i++)
				{
					PORTD = 0x09;
    4184:	59 e0       	ldi	r21, 0x09	; 9
					_delay_ms(period);
					PORTD = 0x03;
    4186:	43 e0       	ldi	r20, 0x03	; 3
					_delay_ms(period);
					PORTD = 0x06;
    4188:	36 e0       	ldi	r19, 0x06	; 6
					_delay_ms(period);
					PORTD = 0x0C;
    418a:	2c e0       	ldi	r18, 0x0C	; 12
				_delay_ms(1000);

				/* Rotate Stepper Motor Anticlockwise with Full step sequence */
				for (int i = 0; i < 12; i++)
				{
					PORTD = 0x09;
    418c:	52 bb       	out	0x12, r21	; 18
    418e:	af ef       	ldi	r26, 0xFF	; 255
    4190:	b1 ee       	ldi	r27, 0xE1	; 225
    4192:	c4 e0       	ldi	r28, 0x04	; 4
    4194:	a1 50       	subi	r26, 0x01	; 1
    4196:	b0 40       	sbci	r27, 0x00	; 0
    4198:	c0 40       	sbci	r28, 0x00	; 0
    419a:	e1 f7       	brne	.-8      	; 0x4194 <__stack+0x3935>
    419c:	00 c0       	rjmp	.+0      	; 0x419e <__stack+0x393f>
    419e:	00 00       	nop
					_delay_ms(period);
					PORTD = 0x03;
    41a0:	42 bb       	out	0x12, r20	; 18
    41a2:	ef ef       	ldi	r30, 0xFF	; 255
    41a4:	61 ee       	ldi	r22, 0xE1	; 225
    41a6:	74 e0       	ldi	r23, 0x04	; 4
    41a8:	e1 50       	subi	r30, 0x01	; 1
    41aa:	60 40       	sbci	r22, 0x00	; 0
    41ac:	70 40       	sbci	r23, 0x00	; 0
    41ae:	e1 f7       	brne	.-8      	; 0x41a8 <__stack+0x3949>
    41b0:	00 c0       	rjmp	.+0      	; 0x41b2 <__stack+0x3953>
    41b2:	00 00       	nop
					_delay_ms(period);
					PORTD = 0x06;
    41b4:	32 bb       	out	0x12, r19	; 18
    41b6:	af ef       	ldi	r26, 0xFF	; 255
    41b8:	b1 ee       	ldi	r27, 0xE1	; 225
    41ba:	c4 e0       	ldi	r28, 0x04	; 4
    41bc:	a1 50       	subi	r26, 0x01	; 1
    41be:	b0 40       	sbci	r27, 0x00	; 0
    41c0:	c0 40       	sbci	r28, 0x00	; 0
    41c2:	e1 f7       	brne	.-8      	; 0x41bc <__stack+0x395d>
    41c4:	00 c0       	rjmp	.+0      	; 0x41c6 <__stack+0x3967>
    41c6:	00 00       	nop
					_delay_ms(period);
					PORTD = 0x0C;
    41c8:	22 bb       	out	0x12, r18	; 18
    41ca:	ef ef       	ldi	r30, 0xFF	; 255
    41cc:	61 ee       	ldi	r22, 0xE1	; 225
    41ce:	74 e0       	ldi	r23, 0x04	; 4
    41d0:	e1 50       	subi	r30, 0x01	; 1
    41d2:	60 40       	sbci	r22, 0x00	; 0
    41d4:	70 40       	sbci	r23, 0x00	; 0
    41d6:	e1 f7       	brne	.-8      	; 0x41d0 <__stack+0x3971>
    41d8:	00 c0       	rjmp	.+0      	; 0x41da <__stack+0x397b>
    41da:	00 00       	nop
    41dc:	01 97       	sbiw	r24, 0x01	; 1
				PORTD = 0x09; /* Last step to initial position */
				_delay_ms(period);
				_delay_ms(1000);

				/* Rotate Stepper Motor Anticlockwise with Full step sequence */
				for (int i = 0; i < 12; i++)
    41de:	b1 f6       	brne	.-84     	; 0x418c <__stack+0x392d>
					PORTD = 0x06;
					_delay_ms(period);
					PORTD = 0x0C;
					_delay_ms(period);
				}
				PORTD = 0x09;
    41e0:	89 e0       	ldi	r24, 0x09	; 9
    41e2:	82 bb       	out	0x12, r24	; 18
    41e4:	8f ef       	ldi	r24, 0xFF	; 255
    41e6:	91 ee       	ldi	r25, 0xE1	; 225
    41e8:	a4 e0       	ldi	r26, 0x04	; 4
    41ea:	81 50       	subi	r24, 0x01	; 1
    41ec:	90 40       	sbci	r25, 0x00	; 0
    41ee:	a0 40       	sbci	r26, 0x00	; 0
    41f0:	e1 f7       	brne	.-8      	; 0x41ea <__stack+0x398b>
    41f2:	00 c0       	rjmp	.+0      	; 0x41f4 <__stack+0x3995>
    41f4:	00 00       	nop
    41f6:	bf ef       	ldi	r27, 0xFF	; 255
    41f8:	c3 ed       	ldi	r28, 0xD3	; 211
    41fa:	e0 e3       	ldi	r30, 0x30	; 48
    41fc:	b1 50       	subi	r27, 0x01	; 1
    41fe:	c0 40       	sbci	r28, 0x00	; 0
    4200:	e0 40       	sbci	r30, 0x00	; 0
    4202:	e1 f7       	brne	.-8      	; 0x41fc <__stack+0x399d>
    4204:	00 c0       	rjmp	.+0      	; 0x4206 <__stack+0x39a7>
    4206:	00 00       	nop
    4208:	0c 94 2c 3b 	jmp	0x7658	; 0x7658 <__stack+0x6df9>
				break;
			}
		}
		break;
		case 6:
		switch (personNum)
    420c:	8c e0       	ldi	r24, 0x0C	; 12
    420e:	90 e0       	ldi	r25, 0x00	; 0
			case 1:
			{
				/* Rotate Stepper Motor clockwise with Half step sequence */
				for (int i = 0; i < 12; i++)
				{
					PORTD = 0x09;
    4210:	f9 e0       	ldi	r31, 0x09	; 9
					_delay_ms(period);
					PORTD = 0x08;
    4212:	e8 e0       	ldi	r30, 0x08	; 8
					_delay_ms(period);
					PORTD = 0x0C;
    4214:	7c e0       	ldi	r23, 0x0C	; 12
					_delay_ms(period);
					PORTD = 0x04;
    4216:	64 e0       	ldi	r22, 0x04	; 4
					_delay_ms(period);
					PORTD = 0x06;
    4218:	56 e0       	ldi	r21, 0x06	; 6
					_delay_ms(period);
					PORTD = 0x02;
    421a:	42 e0       	ldi	r20, 0x02	; 2
					_delay_ms(period);
					PORTD = 0x03;
    421c:	33 e0       	ldi	r19, 0x03	; 3
					_delay_ms(period);
					PORTD = 0x01;
    421e:	21 e0       	ldi	r18, 0x01	; 1
			case 1:
			{
				/* Rotate Stepper Motor clockwise with Half step sequence */
				for (int i = 0; i < 12; i++)
				{
					PORTD = 0x09;
    4220:	f2 bb       	out	0x12, r31	; 18
    4222:	af ef       	ldi	r26, 0xFF	; 255
    4224:	b1 ee       	ldi	r27, 0xE1	; 225
    4226:	c4 e0       	ldi	r28, 0x04	; 4
    4228:	a1 50       	subi	r26, 0x01	; 1
    422a:	b0 40       	sbci	r27, 0x00	; 0
    422c:	c0 40       	sbci	r28, 0x00	; 0
    422e:	e1 f7       	brne	.-8      	; 0x4228 <__stack+0x39c9>
    4230:	00 c0       	rjmp	.+0      	; 0x4232 <__stack+0x39d3>
    4232:	00 00       	nop
					_delay_ms(period);
					PORTD = 0x08;
    4234:	e2 bb       	out	0x12, r30	; 18
    4236:	af ef       	ldi	r26, 0xFF	; 255
    4238:	b1 ee       	ldi	r27, 0xE1	; 225
    423a:	c4 e0       	ldi	r28, 0x04	; 4
    423c:	a1 50       	subi	r26, 0x01	; 1
    423e:	b0 40       	sbci	r27, 0x00	; 0
    4240:	c0 40       	sbci	r28, 0x00	; 0
    4242:	e1 f7       	brne	.-8      	; 0x423c <__stack+0x39dd>
    4244:	00 c0       	rjmp	.+0      	; 0x4246 <__stack+0x39e7>
    4246:	00 00       	nop
					_delay_ms(period);
					PORTD = 0x0C;
    4248:	72 bb       	out	0x12, r23	; 18
    424a:	af ef       	ldi	r26, 0xFF	; 255
    424c:	b1 ee       	ldi	r27, 0xE1	; 225
    424e:	c4 e0       	ldi	r28, 0x04	; 4
    4250:	a1 50       	subi	r26, 0x01	; 1
    4252:	b0 40       	sbci	r27, 0x00	; 0
    4254:	c0 40       	sbci	r28, 0x00	; 0
    4256:	e1 f7       	brne	.-8      	; 0x4250 <__stack+0x39f1>
    4258:	00 c0       	rjmp	.+0      	; 0x425a <__stack+0x39fb>
    425a:	00 00       	nop
					_delay_ms(period);
					PORTD = 0x04;
    425c:	62 bb       	out	0x12, r22	; 18
    425e:	af ef       	ldi	r26, 0xFF	; 255
    4260:	b1 ee       	ldi	r27, 0xE1	; 225
    4262:	c4 e0       	ldi	r28, 0x04	; 4
    4264:	a1 50       	subi	r26, 0x01	; 1
    4266:	b0 40       	sbci	r27, 0x00	; 0
    4268:	c0 40       	sbci	r28, 0x00	; 0
    426a:	e1 f7       	brne	.-8      	; 0x4264 <__stack+0x3a05>
    426c:	00 c0       	rjmp	.+0      	; 0x426e <__stack+0x3a0f>
    426e:	00 00       	nop
					_delay_ms(period);
					PORTD = 0x06;
    4270:	52 bb       	out	0x12, r21	; 18
    4272:	af ef       	ldi	r26, 0xFF	; 255
    4274:	b1 ee       	ldi	r27, 0xE1	; 225
    4276:	c4 e0       	ldi	r28, 0x04	; 4
    4278:	a1 50       	subi	r26, 0x01	; 1
    427a:	b0 40       	sbci	r27, 0x00	; 0
    427c:	c0 40       	sbci	r28, 0x00	; 0
    427e:	e1 f7       	brne	.-8      	; 0x4278 <__stack+0x3a19>
    4280:	00 c0       	rjmp	.+0      	; 0x4282 <__stack+0x3a23>
    4282:	00 00       	nop
					_delay_ms(period);
					PORTD = 0x02;
    4284:	42 bb       	out	0x12, r20	; 18
    4286:	af ef       	ldi	r26, 0xFF	; 255
    4288:	b1 ee       	ldi	r27, 0xE1	; 225
    428a:	c4 e0       	ldi	r28, 0x04	; 4
    428c:	a1 50       	subi	r26, 0x01	; 1
    428e:	b0 40       	sbci	r27, 0x00	; 0
    4290:	c0 40       	sbci	r28, 0x00	; 0
    4292:	e1 f7       	brne	.-8      	; 0x428c <__stack+0x3a2d>
    4294:	00 c0       	rjmp	.+0      	; 0x4296 <__stack+0x3a37>
    4296:	00 00       	nop
					_delay_ms(period);
					PORTD = 0x03;
    4298:	32 bb       	out	0x12, r19	; 18
    429a:	af ef       	ldi	r26, 0xFF	; 255
    429c:	b1 ee       	ldi	r27, 0xE1	; 225
    429e:	c4 e0       	ldi	r28, 0x04	; 4
    42a0:	a1 50       	subi	r26, 0x01	; 1
    42a2:	b0 40       	sbci	r27, 0x00	; 0
    42a4:	c0 40       	sbci	r28, 0x00	; 0
    42a6:	e1 f7       	brne	.-8      	; 0x42a0 <__stack+0x3a41>
    42a8:	00 c0       	rjmp	.+0      	; 0x42aa <__stack+0x3a4b>
    42aa:	00 00       	nop
					_delay_ms(period);
					PORTD = 0x01;
    42ac:	22 bb       	out	0x12, r18	; 18
    42ae:	af ef       	ldi	r26, 0xFF	; 255
    42b0:	b1 ee       	ldi	r27, 0xE1	; 225
    42b2:	c4 e0       	ldi	r28, 0x04	; 4
    42b4:	a1 50       	subi	r26, 0x01	; 1
    42b6:	b0 40       	sbci	r27, 0x00	; 0
    42b8:	c0 40       	sbci	r28, 0x00	; 0
    42ba:	e1 f7       	brne	.-8      	; 0x42b4 <__stack+0x3a55>
    42bc:	00 c0       	rjmp	.+0      	; 0x42be <__stack+0x3a5f>
    42be:	00 00       	nop
    42c0:	01 97       	sbiw	r24, 0x01	; 1
		switch (personNum)
		{
			case 1:
			{
				/* Rotate Stepper Motor clockwise with Half step sequence */
				for (int i = 0; i < 12; i++)
    42c2:	09 f0       	breq	.+2      	; 0x42c6 <__stack+0x3a67>
    42c4:	ad cf       	rjmp	.-166    	; 0x4220 <__stack+0x39c1>
					PORTD = 0x03;
					_delay_ms(period);
					PORTD = 0x01;
					_delay_ms(period);
				}
				PORTD = 0x09; /* Last step to initial position */
    42c6:	89 e0       	ldi	r24, 0x09	; 9
    42c8:	82 bb       	out	0x12, r24	; 18
    42ca:	ef ef       	ldi	r30, 0xFF	; 255
    42cc:	21 ee       	ldi	r18, 0xE1	; 225
    42ce:	64 e0       	ldi	r22, 0x04	; 4
    42d0:	e1 50       	subi	r30, 0x01	; 1
    42d2:	20 40       	sbci	r18, 0x00	; 0
    42d4:	60 40       	sbci	r22, 0x00	; 0
    42d6:	e1 f7       	brne	.-8      	; 0x42d0 <__stack+0x3a71>
    42d8:	00 c0       	rjmp	.+0      	; 0x42da <__stack+0x3a7b>
    42da:	00 00       	nop
    42dc:	7f ef       	ldi	r23, 0xFF	; 255
    42de:	83 ed       	ldi	r24, 0xD3	; 211
    42e0:	90 e3       	ldi	r25, 0x30	; 48
    42e2:	71 50       	subi	r23, 0x01	; 1
    42e4:	80 40       	sbci	r24, 0x00	; 0
    42e6:	90 40       	sbci	r25, 0x00	; 0
    42e8:	e1 f7       	brne	.-8      	; 0x42e2 <__stack+0x3a83>
    42ea:	00 c0       	rjmp	.+0      	; 0x42ec <__stack+0x3a8d>
    42ec:	00 00       	nop
    42ee:	8c e0       	ldi	r24, 0x0C	; 12
    42f0:	90 e0       	ldi	r25, 0x00	; 0
				_delay_ms(1000);

				/* Rotate Stepper Motor Anticlockwise with Full step sequence */
				for (int i = 0; i < 12; i++)
				{
					PORTD = 0x09;
    42f2:	59 e0       	ldi	r21, 0x09	; 9
					_delay_ms(period);
					PORTD = 0x03;
    42f4:	43 e0       	ldi	r20, 0x03	; 3
					_delay_ms(period);
					PORTD = 0x06;
    42f6:	36 e0       	ldi	r19, 0x06	; 6
					_delay_ms(period);
					PORTD = 0x0C;
    42f8:	2c e0       	ldi	r18, 0x0C	; 12
				_delay_ms(1000);

				/* Rotate Stepper Motor Anticlockwise with Full step sequence */
				for (int i = 0; i < 12; i++)
				{
					PORTD = 0x09;
    42fa:	52 bb       	out	0x12, r21	; 18
    42fc:	af ef       	ldi	r26, 0xFF	; 255
    42fe:	b1 ee       	ldi	r27, 0xE1	; 225
    4300:	c4 e0       	ldi	r28, 0x04	; 4
    4302:	a1 50       	subi	r26, 0x01	; 1
    4304:	b0 40       	sbci	r27, 0x00	; 0
    4306:	c0 40       	sbci	r28, 0x00	; 0
    4308:	e1 f7       	brne	.-8      	; 0x4302 <__stack+0x3aa3>
    430a:	00 c0       	rjmp	.+0      	; 0x430c <__stack+0x3aad>
    430c:	00 00       	nop
					_delay_ms(period);
					PORTD = 0x03;
    430e:	42 bb       	out	0x12, r20	; 18
    4310:	ef ef       	ldi	r30, 0xFF	; 255
    4312:	61 ee       	ldi	r22, 0xE1	; 225
    4314:	74 e0       	ldi	r23, 0x04	; 4
    4316:	e1 50       	subi	r30, 0x01	; 1
    4318:	60 40       	sbci	r22, 0x00	; 0
    431a:	70 40       	sbci	r23, 0x00	; 0
    431c:	e1 f7       	brne	.-8      	; 0x4316 <__stack+0x3ab7>
    431e:	00 c0       	rjmp	.+0      	; 0x4320 <__stack+0x3ac1>
    4320:	00 00       	nop
					_delay_ms(period);
					PORTD = 0x06;
    4322:	32 bb       	out	0x12, r19	; 18
    4324:	af ef       	ldi	r26, 0xFF	; 255
    4326:	b1 ee       	ldi	r27, 0xE1	; 225
    4328:	c4 e0       	ldi	r28, 0x04	; 4
    432a:	a1 50       	subi	r26, 0x01	; 1
    432c:	b0 40       	sbci	r27, 0x00	; 0
    432e:	c0 40       	sbci	r28, 0x00	; 0
    4330:	e1 f7       	brne	.-8      	; 0x432a <__stack+0x3acb>
    4332:	00 c0       	rjmp	.+0      	; 0x4334 <__stack+0x3ad5>
    4334:	00 00       	nop
					_delay_ms(period);
					PORTD = 0x0C;
    4336:	22 bb       	out	0x12, r18	; 18
    4338:	ef ef       	ldi	r30, 0xFF	; 255
    433a:	61 ee       	ldi	r22, 0xE1	; 225
    433c:	74 e0       	ldi	r23, 0x04	; 4
    433e:	e1 50       	subi	r30, 0x01	; 1
    4340:	60 40       	sbci	r22, 0x00	; 0
    4342:	70 40       	sbci	r23, 0x00	; 0
    4344:	e1 f7       	brne	.-8      	; 0x433e <__stack+0x3adf>
    4346:	00 c0       	rjmp	.+0      	; 0x4348 <__stack+0x3ae9>
    4348:	00 00       	nop
    434a:	01 97       	sbiw	r24, 0x01	; 1
				PORTD = 0x09; /* Last step to initial position */
				_delay_ms(period);
				_delay_ms(1000);

				/* Rotate Stepper Motor Anticlockwise with Full step sequence */
				for (int i = 0; i < 12; i++)
    434c:	b1 f6       	brne	.-84     	; 0x42fa <__stack+0x3a9b>
					PORTD = 0x06;
					_delay_ms(period);
					PORTD = 0x0C;
					_delay_ms(period);
				}
				PORTD = 0x09;
    434e:	89 e0       	ldi	r24, 0x09	; 9
    4350:	82 bb       	out	0x12, r24	; 18
    4352:	8f ef       	ldi	r24, 0xFF	; 255
    4354:	91 ee       	ldi	r25, 0xE1	; 225
    4356:	a4 e0       	ldi	r26, 0x04	; 4
    4358:	81 50       	subi	r24, 0x01	; 1
    435a:	90 40       	sbci	r25, 0x00	; 0
    435c:	a0 40       	sbci	r26, 0x00	; 0
    435e:	e1 f7       	brne	.-8      	; 0x4358 <__stack+0x3af9>
    4360:	00 c0       	rjmp	.+0      	; 0x4362 <__stack+0x3b03>
    4362:	00 00       	nop
    4364:	bf ef       	ldi	r27, 0xFF	; 255
    4366:	c3 ed       	ldi	r28, 0xD3	; 211
    4368:	e0 e3       	ldi	r30, 0x30	; 48
    436a:	b1 50       	subi	r27, 0x01	; 1
    436c:	c0 40       	sbci	r28, 0x00	; 0
    436e:	e0 40       	sbci	r30, 0x00	; 0
    4370:	e1 f7       	brne	.-8      	; 0x436a <__stack+0x3b0b>
    4372:	00 c0       	rjmp	.+0      	; 0x4374 <__stack+0x3b15>
    4374:	00 00       	nop
    4376:	0c 94 2c 3b 	jmp	0x7658	; 0x7658 <__stack+0x6df9>
				break;
			}
		}
		break;
		case 6:
		switch (personNum)
    437a:	8c e0       	ldi	r24, 0x0C	; 12
    437c:	90 e0       	ldi	r25, 0x00	; 0
			case 2:
			{
				/* Rotate Stepper Motor clockwise with Half step sequence */
				for (int i = 0; i < 12; i++)
				{
					PORTD = 0x09;
    437e:	f9 e0       	ldi	r31, 0x09	; 9
					_delay_ms(period);
					PORTD = 0x08;
    4380:	e8 e0       	ldi	r30, 0x08	; 8
					_delay_ms(period);
					PORTD = 0x0C;
    4382:	7c e0       	ldi	r23, 0x0C	; 12
					_delay_ms(period);
					PORTD = 0x04;
    4384:	64 e0       	ldi	r22, 0x04	; 4
					_delay_ms(period);
					PORTD = 0x06;
    4386:	56 e0       	ldi	r21, 0x06	; 6
					_delay_ms(period);
					PORTD = 0x02;
    4388:	42 e0       	ldi	r20, 0x02	; 2
					_delay_ms(period);
					PORTD = 0x03;
    438a:	33 e0       	ldi	r19, 0x03	; 3
					_delay_ms(period);
					PORTD = 0x01;
    438c:	21 e0       	ldi	r18, 0x01	; 1
			case 2:
			{
				/* Rotate Stepper Motor clockwise with Half step sequence */
				for (int i = 0; i < 12; i++)
				{
					PORTD = 0x09;
    438e:	f2 bb       	out	0x12, r31	; 18
    4390:	af ef       	ldi	r26, 0xFF	; 255
    4392:	b1 ee       	ldi	r27, 0xE1	; 225
    4394:	c4 e0       	ldi	r28, 0x04	; 4
    4396:	a1 50       	subi	r26, 0x01	; 1
    4398:	b0 40       	sbci	r27, 0x00	; 0
    439a:	c0 40       	sbci	r28, 0x00	; 0
    439c:	e1 f7       	brne	.-8      	; 0x4396 <__stack+0x3b37>
    439e:	00 c0       	rjmp	.+0      	; 0x43a0 <__stack+0x3b41>
    43a0:	00 00       	nop
					_delay_ms(period);
					PORTD = 0x08;
    43a2:	e2 bb       	out	0x12, r30	; 18
    43a4:	af ef       	ldi	r26, 0xFF	; 255
    43a6:	b1 ee       	ldi	r27, 0xE1	; 225
    43a8:	c4 e0       	ldi	r28, 0x04	; 4
    43aa:	a1 50       	subi	r26, 0x01	; 1
    43ac:	b0 40       	sbci	r27, 0x00	; 0
    43ae:	c0 40       	sbci	r28, 0x00	; 0
    43b0:	e1 f7       	brne	.-8      	; 0x43aa <__stack+0x3b4b>
    43b2:	00 c0       	rjmp	.+0      	; 0x43b4 <__stack+0x3b55>
    43b4:	00 00       	nop
					_delay_ms(period);
					PORTD = 0x0C;
    43b6:	72 bb       	out	0x12, r23	; 18
    43b8:	af ef       	ldi	r26, 0xFF	; 255
    43ba:	b1 ee       	ldi	r27, 0xE1	; 225
    43bc:	c4 e0       	ldi	r28, 0x04	; 4
    43be:	a1 50       	subi	r26, 0x01	; 1
    43c0:	b0 40       	sbci	r27, 0x00	; 0
    43c2:	c0 40       	sbci	r28, 0x00	; 0
    43c4:	e1 f7       	brne	.-8      	; 0x43be <__stack+0x3b5f>
    43c6:	00 c0       	rjmp	.+0      	; 0x43c8 <__stack+0x3b69>
    43c8:	00 00       	nop
					_delay_ms(period);
					PORTD = 0x04;
    43ca:	62 bb       	out	0x12, r22	; 18
    43cc:	af ef       	ldi	r26, 0xFF	; 255
    43ce:	b1 ee       	ldi	r27, 0xE1	; 225
    43d0:	c4 e0       	ldi	r28, 0x04	; 4
    43d2:	a1 50       	subi	r26, 0x01	; 1
    43d4:	b0 40       	sbci	r27, 0x00	; 0
    43d6:	c0 40       	sbci	r28, 0x00	; 0
    43d8:	e1 f7       	brne	.-8      	; 0x43d2 <__stack+0x3b73>
    43da:	00 c0       	rjmp	.+0      	; 0x43dc <__stack+0x3b7d>
    43dc:	00 00       	nop
					_delay_ms(period);
					PORTD = 0x06;
    43de:	52 bb       	out	0x12, r21	; 18
    43e0:	af ef       	ldi	r26, 0xFF	; 255
    43e2:	b1 ee       	ldi	r27, 0xE1	; 225
    43e4:	c4 e0       	ldi	r28, 0x04	; 4
    43e6:	a1 50       	subi	r26, 0x01	; 1
    43e8:	b0 40       	sbci	r27, 0x00	; 0
    43ea:	c0 40       	sbci	r28, 0x00	; 0
    43ec:	e1 f7       	brne	.-8      	; 0x43e6 <__stack+0x3b87>
    43ee:	00 c0       	rjmp	.+0      	; 0x43f0 <__stack+0x3b91>
    43f0:	00 00       	nop
					_delay_ms(period);
					PORTD = 0x02;
    43f2:	42 bb       	out	0x12, r20	; 18
    43f4:	af ef       	ldi	r26, 0xFF	; 255
    43f6:	b1 ee       	ldi	r27, 0xE1	; 225
    43f8:	c4 e0       	ldi	r28, 0x04	; 4
    43fa:	a1 50       	subi	r26, 0x01	; 1
    43fc:	b0 40       	sbci	r27, 0x00	; 0
    43fe:	c0 40       	sbci	r28, 0x00	; 0
    4400:	e1 f7       	brne	.-8      	; 0x43fa <__stack+0x3b9b>
    4402:	00 c0       	rjmp	.+0      	; 0x4404 <__stack+0x3ba5>
    4404:	00 00       	nop
					_delay_ms(period);
					PORTD = 0x03;
    4406:	32 bb       	out	0x12, r19	; 18
    4408:	af ef       	ldi	r26, 0xFF	; 255
    440a:	b1 ee       	ldi	r27, 0xE1	; 225
    440c:	c4 e0       	ldi	r28, 0x04	; 4
    440e:	a1 50       	subi	r26, 0x01	; 1
    4410:	b0 40       	sbci	r27, 0x00	; 0
    4412:	c0 40       	sbci	r28, 0x00	; 0
    4414:	e1 f7       	brne	.-8      	; 0x440e <__stack+0x3baf>
    4416:	00 c0       	rjmp	.+0      	; 0x4418 <__stack+0x3bb9>
    4418:	00 00       	nop
					_delay_ms(period);
					PORTD = 0x01;
    441a:	22 bb       	out	0x12, r18	; 18
    441c:	af ef       	ldi	r26, 0xFF	; 255
    441e:	b1 ee       	ldi	r27, 0xE1	; 225
    4420:	c4 e0       	ldi	r28, 0x04	; 4
    4422:	a1 50       	subi	r26, 0x01	; 1
    4424:	b0 40       	sbci	r27, 0x00	; 0
    4426:	c0 40       	sbci	r28, 0x00	; 0
    4428:	e1 f7       	brne	.-8      	; 0x4422 <__stack+0x3bc3>
    442a:	00 c0       	rjmp	.+0      	; 0x442c <__stack+0x3bcd>
    442c:	00 00       	nop
    442e:	01 97       	sbiw	r24, 0x01	; 1
				break;
			}
			case 2:
			{
				/* Rotate Stepper Motor clockwise with Half step sequence */
				for (int i = 0; i < 12; i++)
    4430:	09 f0       	breq	.+2      	; 0x4434 <__stack+0x3bd5>
    4432:	ad cf       	rjmp	.-166    	; 0x438e <__stack+0x3b2f>
					PORTD = 0x03;
					_delay_ms(period);
					PORTD = 0x01;
					_delay_ms(period);
				}
				PORTD = 0x09; /* Last step to initial position */
    4434:	89 e0       	ldi	r24, 0x09	; 9
    4436:	82 bb       	out	0x12, r24	; 18
    4438:	ef ef       	ldi	r30, 0xFF	; 255
    443a:	21 ee       	ldi	r18, 0xE1	; 225
    443c:	64 e0       	ldi	r22, 0x04	; 4
    443e:	e1 50       	subi	r30, 0x01	; 1
    4440:	20 40       	sbci	r18, 0x00	; 0
    4442:	60 40       	sbci	r22, 0x00	; 0
    4444:	e1 f7       	brne	.-8      	; 0x443e <__stack+0x3bdf>
    4446:	00 c0       	rjmp	.+0      	; 0x4448 <__stack+0x3be9>
    4448:	00 00       	nop
    444a:	7f ef       	ldi	r23, 0xFF	; 255
    444c:	83 ed       	ldi	r24, 0xD3	; 211
    444e:	90 e3       	ldi	r25, 0x30	; 48
    4450:	71 50       	subi	r23, 0x01	; 1
    4452:	80 40       	sbci	r24, 0x00	; 0
    4454:	90 40       	sbci	r25, 0x00	; 0
    4456:	e1 f7       	brne	.-8      	; 0x4450 <__stack+0x3bf1>
    4458:	00 c0       	rjmp	.+0      	; 0x445a <__stack+0x3bfb>
    445a:	00 00       	nop
    445c:	8c e0       	ldi	r24, 0x0C	; 12
    445e:	90 e0       	ldi	r25, 0x00	; 0
				_delay_ms(1000);

				/* Rotate Stepper Motor Anticlockwise with Full step sequence */
				for (int i = 0; i < 12; i++)
				{
					PORTD = 0x09;
    4460:	59 e0       	ldi	r21, 0x09	; 9
					_delay_ms(period);
					PORTD = 0x03;
    4462:	43 e0       	ldi	r20, 0x03	; 3
					_delay_ms(period);
					PORTD = 0x06;
    4464:	36 e0       	ldi	r19, 0x06	; 6
					_delay_ms(period);
					PORTD = 0x0C;
    4466:	2c e0       	ldi	r18, 0x0C	; 12
				_delay_ms(1000);

				/* Rotate Stepper Motor Anticlockwise with Full step sequence */
				for (int i = 0; i < 12; i++)
				{
					PORTD = 0x09;
    4468:	52 bb       	out	0x12, r21	; 18
    446a:	af ef       	ldi	r26, 0xFF	; 255
    446c:	b1 ee       	ldi	r27, 0xE1	; 225
    446e:	c4 e0       	ldi	r28, 0x04	; 4
    4470:	a1 50       	subi	r26, 0x01	; 1
    4472:	b0 40       	sbci	r27, 0x00	; 0
    4474:	c0 40       	sbci	r28, 0x00	; 0
    4476:	e1 f7       	brne	.-8      	; 0x4470 <__stack+0x3c11>
    4478:	00 c0       	rjmp	.+0      	; 0x447a <__stack+0x3c1b>
    447a:	00 00       	nop
					_delay_ms(period);
					PORTD = 0x03;
    447c:	42 bb       	out	0x12, r20	; 18
    447e:	ef ef       	ldi	r30, 0xFF	; 255
    4480:	61 ee       	ldi	r22, 0xE1	; 225
    4482:	74 e0       	ldi	r23, 0x04	; 4
    4484:	e1 50       	subi	r30, 0x01	; 1
    4486:	60 40       	sbci	r22, 0x00	; 0
    4488:	70 40       	sbci	r23, 0x00	; 0
    448a:	e1 f7       	brne	.-8      	; 0x4484 <__stack+0x3c25>
    448c:	00 c0       	rjmp	.+0      	; 0x448e <__stack+0x3c2f>
    448e:	00 00       	nop
					_delay_ms(period);
					PORTD = 0x06;
    4490:	32 bb       	out	0x12, r19	; 18
    4492:	af ef       	ldi	r26, 0xFF	; 255
    4494:	b1 ee       	ldi	r27, 0xE1	; 225
    4496:	c4 e0       	ldi	r28, 0x04	; 4
    4498:	a1 50       	subi	r26, 0x01	; 1
    449a:	b0 40       	sbci	r27, 0x00	; 0
    449c:	c0 40       	sbci	r28, 0x00	; 0
    449e:	e1 f7       	brne	.-8      	; 0x4498 <__stack+0x3c39>
    44a0:	00 c0       	rjmp	.+0      	; 0x44a2 <__stack+0x3c43>
    44a2:	00 00       	nop
					_delay_ms(period);
					PORTD = 0x0C;
    44a4:	22 bb       	out	0x12, r18	; 18
    44a6:	ef ef       	ldi	r30, 0xFF	; 255
    44a8:	61 ee       	ldi	r22, 0xE1	; 225
    44aa:	74 e0       	ldi	r23, 0x04	; 4
    44ac:	e1 50       	subi	r30, 0x01	; 1
    44ae:	60 40       	sbci	r22, 0x00	; 0
    44b0:	70 40       	sbci	r23, 0x00	; 0
    44b2:	e1 f7       	brne	.-8      	; 0x44ac <__stack+0x3c4d>
    44b4:	00 c0       	rjmp	.+0      	; 0x44b6 <__stack+0x3c57>
    44b6:	00 00       	nop
    44b8:	01 97       	sbiw	r24, 0x01	; 1
				PORTD = 0x09; /* Last step to initial position */
				_delay_ms(period);
				_delay_ms(1000);

				/* Rotate Stepper Motor Anticlockwise with Full step sequence */
				for (int i = 0; i < 12; i++)
    44ba:	b1 f6       	brne	.-84     	; 0x4468 <__stack+0x3c09>
					PORTD = 0x06;
					_delay_ms(period);
					PORTD = 0x0C;
					_delay_ms(period);
				}
				PORTD = 0x09;
    44bc:	89 e0       	ldi	r24, 0x09	; 9
    44be:	82 bb       	out	0x12, r24	; 18
    44c0:	8f ef       	ldi	r24, 0xFF	; 255
    44c2:	91 ee       	ldi	r25, 0xE1	; 225
    44c4:	a4 e0       	ldi	r26, 0x04	; 4
    44c6:	81 50       	subi	r24, 0x01	; 1
    44c8:	90 40       	sbci	r25, 0x00	; 0
    44ca:	a0 40       	sbci	r26, 0x00	; 0
    44cc:	e1 f7       	brne	.-8      	; 0x44c6 <__stack+0x3c67>
    44ce:	00 c0       	rjmp	.+0      	; 0x44d0 <__stack+0x3c71>
    44d0:	00 00       	nop
    44d2:	bf ef       	ldi	r27, 0xFF	; 255
    44d4:	c3 ed       	ldi	r28, 0xD3	; 211
    44d6:	e0 e3       	ldi	r30, 0x30	; 48
    44d8:	b1 50       	subi	r27, 0x01	; 1
    44da:	c0 40       	sbci	r28, 0x00	; 0
    44dc:	e0 40       	sbci	r30, 0x00	; 0
    44de:	e1 f7       	brne	.-8      	; 0x44d8 <__stack+0x3c79>
    44e0:	00 c0       	rjmp	.+0      	; 0x44e2 <__stack+0x3c83>
    44e2:	00 00       	nop
    44e4:	0c 94 2c 3b 	jmp	0x7658	; 0x7658 <__stack+0x6df9>
				break;
			}
		}
		break;
		case 6:
		switch (personNum)
    44e8:	8c e0       	ldi	r24, 0x0C	; 12
    44ea:	90 e0       	ldi	r25, 0x00	; 0
			case 3:
			{
				/* Rotate Stepper Motor clockwise with Half step sequence */
				for (int i = 0; i < 12; i++)
				{
					PORTD = 0x09;
    44ec:	f9 e0       	ldi	r31, 0x09	; 9
					_delay_ms(period);
					PORTD = 0x08;
    44ee:	e8 e0       	ldi	r30, 0x08	; 8
					_delay_ms(period);
					PORTD = 0x0C;
    44f0:	7c e0       	ldi	r23, 0x0C	; 12
					_delay_ms(period);
					PORTD = 0x04;
    44f2:	64 e0       	ldi	r22, 0x04	; 4
					_delay_ms(period);
					PORTD = 0x06;
    44f4:	56 e0       	ldi	r21, 0x06	; 6
					_delay_ms(period);
					PORTD = 0x02;
    44f6:	42 e0       	ldi	r20, 0x02	; 2
					_delay_ms(period);
					PORTD = 0x03;
    44f8:	33 e0       	ldi	r19, 0x03	; 3
					_delay_ms(period);
					PORTD = 0x01;
    44fa:	21 e0       	ldi	r18, 0x01	; 1
			case 3:
			{
				/* Rotate Stepper Motor clockwise with Half step sequence */
				for (int i = 0; i < 12; i++)
				{
					PORTD = 0x09;
    44fc:	f2 bb       	out	0x12, r31	; 18
    44fe:	af ef       	ldi	r26, 0xFF	; 255
    4500:	b1 ee       	ldi	r27, 0xE1	; 225
    4502:	c4 e0       	ldi	r28, 0x04	; 4
    4504:	a1 50       	subi	r26, 0x01	; 1
    4506:	b0 40       	sbci	r27, 0x00	; 0
    4508:	c0 40       	sbci	r28, 0x00	; 0
    450a:	e1 f7       	brne	.-8      	; 0x4504 <__stack+0x3ca5>
    450c:	00 c0       	rjmp	.+0      	; 0x450e <__stack+0x3caf>
    450e:	00 00       	nop
					_delay_ms(period);
					PORTD = 0x08;
    4510:	e2 bb       	out	0x12, r30	; 18
    4512:	af ef       	ldi	r26, 0xFF	; 255
    4514:	b1 ee       	ldi	r27, 0xE1	; 225
    4516:	c4 e0       	ldi	r28, 0x04	; 4
    4518:	a1 50       	subi	r26, 0x01	; 1
    451a:	b0 40       	sbci	r27, 0x00	; 0
    451c:	c0 40       	sbci	r28, 0x00	; 0
    451e:	e1 f7       	brne	.-8      	; 0x4518 <__stack+0x3cb9>
    4520:	00 c0       	rjmp	.+0      	; 0x4522 <__stack+0x3cc3>
    4522:	00 00       	nop
					_delay_ms(period);
					PORTD = 0x0C;
    4524:	72 bb       	out	0x12, r23	; 18
    4526:	af ef       	ldi	r26, 0xFF	; 255
    4528:	b1 ee       	ldi	r27, 0xE1	; 225
    452a:	c4 e0       	ldi	r28, 0x04	; 4
    452c:	a1 50       	subi	r26, 0x01	; 1
    452e:	b0 40       	sbci	r27, 0x00	; 0
    4530:	c0 40       	sbci	r28, 0x00	; 0
    4532:	e1 f7       	brne	.-8      	; 0x452c <__stack+0x3ccd>
    4534:	00 c0       	rjmp	.+0      	; 0x4536 <__stack+0x3cd7>
    4536:	00 00       	nop
					_delay_ms(period);
					PORTD = 0x04;
    4538:	62 bb       	out	0x12, r22	; 18
    453a:	af ef       	ldi	r26, 0xFF	; 255
    453c:	b1 ee       	ldi	r27, 0xE1	; 225
    453e:	c4 e0       	ldi	r28, 0x04	; 4
    4540:	a1 50       	subi	r26, 0x01	; 1
    4542:	b0 40       	sbci	r27, 0x00	; 0
    4544:	c0 40       	sbci	r28, 0x00	; 0
    4546:	e1 f7       	brne	.-8      	; 0x4540 <__stack+0x3ce1>
    4548:	00 c0       	rjmp	.+0      	; 0x454a <__stack+0x3ceb>
    454a:	00 00       	nop
					_delay_ms(period);
					PORTD = 0x06;
    454c:	52 bb       	out	0x12, r21	; 18
    454e:	af ef       	ldi	r26, 0xFF	; 255
    4550:	b1 ee       	ldi	r27, 0xE1	; 225
    4552:	c4 e0       	ldi	r28, 0x04	; 4
    4554:	a1 50       	subi	r26, 0x01	; 1
    4556:	b0 40       	sbci	r27, 0x00	; 0
    4558:	c0 40       	sbci	r28, 0x00	; 0
    455a:	e1 f7       	brne	.-8      	; 0x4554 <__stack+0x3cf5>
    455c:	00 c0       	rjmp	.+0      	; 0x455e <__stack+0x3cff>
    455e:	00 00       	nop
					_delay_ms(period);
					PORTD = 0x02;
    4560:	42 bb       	out	0x12, r20	; 18
    4562:	af ef       	ldi	r26, 0xFF	; 255
    4564:	b1 ee       	ldi	r27, 0xE1	; 225
    4566:	c4 e0       	ldi	r28, 0x04	; 4
    4568:	a1 50       	subi	r26, 0x01	; 1
    456a:	b0 40       	sbci	r27, 0x00	; 0
    456c:	c0 40       	sbci	r28, 0x00	; 0
    456e:	e1 f7       	brne	.-8      	; 0x4568 <__stack+0x3d09>
    4570:	00 c0       	rjmp	.+0      	; 0x4572 <__stack+0x3d13>
    4572:	00 00       	nop
					_delay_ms(period);
					PORTD = 0x03;
    4574:	32 bb       	out	0x12, r19	; 18
    4576:	af ef       	ldi	r26, 0xFF	; 255
    4578:	b1 ee       	ldi	r27, 0xE1	; 225
    457a:	c4 e0       	ldi	r28, 0x04	; 4
    457c:	a1 50       	subi	r26, 0x01	; 1
    457e:	b0 40       	sbci	r27, 0x00	; 0
    4580:	c0 40       	sbci	r28, 0x00	; 0
    4582:	e1 f7       	brne	.-8      	; 0x457c <__stack+0x3d1d>
    4584:	00 c0       	rjmp	.+0      	; 0x4586 <__stack+0x3d27>
    4586:	00 00       	nop
					_delay_ms(period);
					PORTD = 0x01;
    4588:	22 bb       	out	0x12, r18	; 18
    458a:	af ef       	ldi	r26, 0xFF	; 255
    458c:	b1 ee       	ldi	r27, 0xE1	; 225
    458e:	c4 e0       	ldi	r28, 0x04	; 4
    4590:	a1 50       	subi	r26, 0x01	; 1
    4592:	b0 40       	sbci	r27, 0x00	; 0
    4594:	c0 40       	sbci	r28, 0x00	; 0
    4596:	e1 f7       	brne	.-8      	; 0x4590 <__stack+0x3d31>
    4598:	00 c0       	rjmp	.+0      	; 0x459a <__stack+0x3d3b>
    459a:	00 00       	nop
    459c:	01 97       	sbiw	r24, 0x01	; 1
				break;
			}
			case 3:
			{
				/* Rotate Stepper Motor clockwise with Half step sequence */
				for (int i = 0; i < 12; i++)
    459e:	09 f0       	breq	.+2      	; 0x45a2 <__stack+0x3d43>
    45a0:	ad cf       	rjmp	.-166    	; 0x44fc <__stack+0x3c9d>
					PORTD = 0x03;
					_delay_ms(period);
					PORTD = 0x01;
					_delay_ms(period);
				}
				PORTD = 0x09; /* Last step to initial position */
    45a2:	89 e0       	ldi	r24, 0x09	; 9
    45a4:	82 bb       	out	0x12, r24	; 18
    45a6:	ef ef       	ldi	r30, 0xFF	; 255
    45a8:	21 ee       	ldi	r18, 0xE1	; 225
    45aa:	64 e0       	ldi	r22, 0x04	; 4
    45ac:	e1 50       	subi	r30, 0x01	; 1
    45ae:	20 40       	sbci	r18, 0x00	; 0
    45b0:	60 40       	sbci	r22, 0x00	; 0
    45b2:	e1 f7       	brne	.-8      	; 0x45ac <__stack+0x3d4d>
    45b4:	00 c0       	rjmp	.+0      	; 0x45b6 <__stack+0x3d57>
    45b6:	00 00       	nop
    45b8:	7f ef       	ldi	r23, 0xFF	; 255
    45ba:	83 ed       	ldi	r24, 0xD3	; 211
    45bc:	90 e3       	ldi	r25, 0x30	; 48
    45be:	71 50       	subi	r23, 0x01	; 1
    45c0:	80 40       	sbci	r24, 0x00	; 0
    45c2:	90 40       	sbci	r25, 0x00	; 0
    45c4:	e1 f7       	brne	.-8      	; 0x45be <__stack+0x3d5f>
    45c6:	00 c0       	rjmp	.+0      	; 0x45c8 <__stack+0x3d69>
    45c8:	00 00       	nop
    45ca:	8c e0       	ldi	r24, 0x0C	; 12
    45cc:	90 e0       	ldi	r25, 0x00	; 0
				_delay_ms(1000);

				/* Rotate Stepper Motor Anticlockwise with Full step sequence */
				for (int i = 0; i < 12; i++)
				{
					PORTD = 0x09;
    45ce:	59 e0       	ldi	r21, 0x09	; 9
					_delay_ms(period);
					PORTD = 0x03;
    45d0:	43 e0       	ldi	r20, 0x03	; 3
					_delay_ms(period);
					PORTD = 0x06;
    45d2:	36 e0       	ldi	r19, 0x06	; 6
					_delay_ms(period);
					PORTD = 0x0C;
    45d4:	2c e0       	ldi	r18, 0x0C	; 12
				_delay_ms(1000);

				/* Rotate Stepper Motor Anticlockwise with Full step sequence */
				for (int i = 0; i < 12; i++)
				{
					PORTD = 0x09;
    45d6:	52 bb       	out	0x12, r21	; 18
    45d8:	af ef       	ldi	r26, 0xFF	; 255
    45da:	b1 ee       	ldi	r27, 0xE1	; 225
    45dc:	c4 e0       	ldi	r28, 0x04	; 4
    45de:	a1 50       	subi	r26, 0x01	; 1
    45e0:	b0 40       	sbci	r27, 0x00	; 0
    45e2:	c0 40       	sbci	r28, 0x00	; 0
    45e4:	e1 f7       	brne	.-8      	; 0x45de <__stack+0x3d7f>
    45e6:	00 c0       	rjmp	.+0      	; 0x45e8 <__stack+0x3d89>
    45e8:	00 00       	nop
					_delay_ms(period);
					PORTD = 0x03;
    45ea:	42 bb       	out	0x12, r20	; 18
    45ec:	ef ef       	ldi	r30, 0xFF	; 255
    45ee:	61 ee       	ldi	r22, 0xE1	; 225
    45f0:	74 e0       	ldi	r23, 0x04	; 4
    45f2:	e1 50       	subi	r30, 0x01	; 1
    45f4:	60 40       	sbci	r22, 0x00	; 0
    45f6:	70 40       	sbci	r23, 0x00	; 0
    45f8:	e1 f7       	brne	.-8      	; 0x45f2 <__stack+0x3d93>
    45fa:	00 c0       	rjmp	.+0      	; 0x45fc <__stack+0x3d9d>
    45fc:	00 00       	nop
					_delay_ms(period);
					PORTD = 0x06;
    45fe:	32 bb       	out	0x12, r19	; 18
    4600:	af ef       	ldi	r26, 0xFF	; 255
    4602:	b1 ee       	ldi	r27, 0xE1	; 225
    4604:	c4 e0       	ldi	r28, 0x04	; 4
    4606:	a1 50       	subi	r26, 0x01	; 1
    4608:	b0 40       	sbci	r27, 0x00	; 0
    460a:	c0 40       	sbci	r28, 0x00	; 0
    460c:	e1 f7       	brne	.-8      	; 0x4606 <__stack+0x3da7>
    460e:	00 c0       	rjmp	.+0      	; 0x4610 <__stack+0x3db1>
    4610:	00 00       	nop
					_delay_ms(period);
					PORTD = 0x0C;
    4612:	22 bb       	out	0x12, r18	; 18
    4614:	ef ef       	ldi	r30, 0xFF	; 255
    4616:	61 ee       	ldi	r22, 0xE1	; 225
    4618:	74 e0       	ldi	r23, 0x04	; 4
    461a:	e1 50       	subi	r30, 0x01	; 1
    461c:	60 40       	sbci	r22, 0x00	; 0
    461e:	70 40       	sbci	r23, 0x00	; 0
    4620:	e1 f7       	brne	.-8      	; 0x461a <__stack+0x3dbb>
    4622:	00 c0       	rjmp	.+0      	; 0x4624 <__stack+0x3dc5>
    4624:	00 00       	nop
    4626:	01 97       	sbiw	r24, 0x01	; 1
				PORTD = 0x09; /* Last step to initial position */
				_delay_ms(period);
				_delay_ms(1000);

				/* Rotate Stepper Motor Anticlockwise with Full step sequence */
				for (int i = 0; i < 12; i++)
    4628:	b1 f6       	brne	.-84     	; 0x45d6 <__stack+0x3d77>
					PORTD = 0x06;
					_delay_ms(period);
					PORTD = 0x0C;
					_delay_ms(period);
				}
				PORTD = 0x09;
    462a:	89 e0       	ldi	r24, 0x09	; 9
    462c:	82 bb       	out	0x12, r24	; 18
    462e:	8f ef       	ldi	r24, 0xFF	; 255
    4630:	91 ee       	ldi	r25, 0xE1	; 225
    4632:	a4 e0       	ldi	r26, 0x04	; 4
    4634:	81 50       	subi	r24, 0x01	; 1
    4636:	90 40       	sbci	r25, 0x00	; 0
    4638:	a0 40       	sbci	r26, 0x00	; 0
    463a:	e1 f7       	brne	.-8      	; 0x4634 <__stack+0x3dd5>
    463c:	00 c0       	rjmp	.+0      	; 0x463e <__stack+0x3ddf>
    463e:	00 00       	nop
    4640:	bf ef       	ldi	r27, 0xFF	; 255
    4642:	c3 ed       	ldi	r28, 0xD3	; 211
    4644:	e0 e3       	ldi	r30, 0x30	; 48
    4646:	b1 50       	subi	r27, 0x01	; 1
    4648:	c0 40       	sbci	r28, 0x00	; 0
    464a:	e0 40       	sbci	r30, 0x00	; 0
    464c:	e1 f7       	brne	.-8      	; 0x4646 <__stack+0x3de7>
    464e:	00 c0       	rjmp	.+0      	; 0x4650 <__stack+0x3df1>
    4650:	00 00       	nop
    4652:	0c 94 2c 3b 	jmp	0x7658	; 0x7658 <__stack+0x6df9>
				break;
			}
		}
		break;
		case 6:
		switch (personNum)
    4656:	8c e0       	ldi	r24, 0x0C	; 12
    4658:	90 e0       	ldi	r25, 0x00	; 0
			case 4:
			{
				/* Rotate Stepper Motor clockwise with Half step sequence */
				for (int i = 0; i < 12; i++)
				{
					PORTD = 0x09;
    465a:	f9 e0       	ldi	r31, 0x09	; 9
					_delay_ms(period);
					PORTD = 0x08;
    465c:	e8 e0       	ldi	r30, 0x08	; 8
					_delay_ms(period);
					PORTD = 0x0C;
    465e:	7c e0       	ldi	r23, 0x0C	; 12
					_delay_ms(period);
					PORTD = 0x04;
    4660:	64 e0       	ldi	r22, 0x04	; 4
					_delay_ms(period);
					PORTD = 0x06;
    4662:	56 e0       	ldi	r21, 0x06	; 6
					_delay_ms(period);
					PORTD = 0x02;
    4664:	42 e0       	ldi	r20, 0x02	; 2
					_delay_ms(period);
					PORTD = 0x03;
    4666:	33 e0       	ldi	r19, 0x03	; 3
					_delay_ms(period);
					PORTD = 0x01;
    4668:	21 e0       	ldi	r18, 0x01	; 1
			case 4:
			{
				/* Rotate Stepper Motor clockwise with Half step sequence */
				for (int i = 0; i < 12; i++)
				{
					PORTD = 0x09;
    466a:	f2 bb       	out	0x12, r31	; 18
    466c:	af ef       	ldi	r26, 0xFF	; 255
    466e:	b1 ee       	ldi	r27, 0xE1	; 225
    4670:	c4 e0       	ldi	r28, 0x04	; 4
    4672:	a1 50       	subi	r26, 0x01	; 1
    4674:	b0 40       	sbci	r27, 0x00	; 0
    4676:	c0 40       	sbci	r28, 0x00	; 0
    4678:	e1 f7       	brne	.-8      	; 0x4672 <__stack+0x3e13>
    467a:	00 c0       	rjmp	.+0      	; 0x467c <__stack+0x3e1d>
    467c:	00 00       	nop
					_delay_ms(period);
					PORTD = 0x08;
    467e:	e2 bb       	out	0x12, r30	; 18
    4680:	af ef       	ldi	r26, 0xFF	; 255
    4682:	b1 ee       	ldi	r27, 0xE1	; 225
    4684:	c4 e0       	ldi	r28, 0x04	; 4
    4686:	a1 50       	subi	r26, 0x01	; 1
    4688:	b0 40       	sbci	r27, 0x00	; 0
    468a:	c0 40       	sbci	r28, 0x00	; 0
    468c:	e1 f7       	brne	.-8      	; 0x4686 <__stack+0x3e27>
    468e:	00 c0       	rjmp	.+0      	; 0x4690 <__stack+0x3e31>
    4690:	00 00       	nop
					_delay_ms(period);
					PORTD = 0x0C;
    4692:	72 bb       	out	0x12, r23	; 18
    4694:	af ef       	ldi	r26, 0xFF	; 255
    4696:	b1 ee       	ldi	r27, 0xE1	; 225
    4698:	c4 e0       	ldi	r28, 0x04	; 4
    469a:	a1 50       	subi	r26, 0x01	; 1
    469c:	b0 40       	sbci	r27, 0x00	; 0
    469e:	c0 40       	sbci	r28, 0x00	; 0
    46a0:	e1 f7       	brne	.-8      	; 0x469a <__stack+0x3e3b>
    46a2:	00 c0       	rjmp	.+0      	; 0x46a4 <__stack+0x3e45>
    46a4:	00 00       	nop
					_delay_ms(period);
					PORTD = 0x04;
    46a6:	62 bb       	out	0x12, r22	; 18
    46a8:	af ef       	ldi	r26, 0xFF	; 255
    46aa:	b1 ee       	ldi	r27, 0xE1	; 225
    46ac:	c4 e0       	ldi	r28, 0x04	; 4
    46ae:	a1 50       	subi	r26, 0x01	; 1
    46b0:	b0 40       	sbci	r27, 0x00	; 0
    46b2:	c0 40       	sbci	r28, 0x00	; 0
    46b4:	e1 f7       	brne	.-8      	; 0x46ae <__stack+0x3e4f>
    46b6:	00 c0       	rjmp	.+0      	; 0x46b8 <__stack+0x3e59>
    46b8:	00 00       	nop
					_delay_ms(period);
					PORTD = 0x06;
    46ba:	52 bb       	out	0x12, r21	; 18
    46bc:	af ef       	ldi	r26, 0xFF	; 255
    46be:	b1 ee       	ldi	r27, 0xE1	; 225
    46c0:	c4 e0       	ldi	r28, 0x04	; 4
    46c2:	a1 50       	subi	r26, 0x01	; 1
    46c4:	b0 40       	sbci	r27, 0x00	; 0
    46c6:	c0 40       	sbci	r28, 0x00	; 0
    46c8:	e1 f7       	brne	.-8      	; 0x46c2 <__stack+0x3e63>
    46ca:	00 c0       	rjmp	.+0      	; 0x46cc <__stack+0x3e6d>
    46cc:	00 00       	nop
					_delay_ms(period);
					PORTD = 0x02;
    46ce:	42 bb       	out	0x12, r20	; 18
    46d0:	af ef       	ldi	r26, 0xFF	; 255
    46d2:	b1 ee       	ldi	r27, 0xE1	; 225
    46d4:	c4 e0       	ldi	r28, 0x04	; 4
    46d6:	a1 50       	subi	r26, 0x01	; 1
    46d8:	b0 40       	sbci	r27, 0x00	; 0
    46da:	c0 40       	sbci	r28, 0x00	; 0
    46dc:	e1 f7       	brne	.-8      	; 0x46d6 <__stack+0x3e77>
    46de:	00 c0       	rjmp	.+0      	; 0x46e0 <__stack+0x3e81>
    46e0:	00 00       	nop
					_delay_ms(period);
					PORTD = 0x03;
    46e2:	32 bb       	out	0x12, r19	; 18
    46e4:	af ef       	ldi	r26, 0xFF	; 255
    46e6:	b1 ee       	ldi	r27, 0xE1	; 225
    46e8:	c4 e0       	ldi	r28, 0x04	; 4
    46ea:	a1 50       	subi	r26, 0x01	; 1
    46ec:	b0 40       	sbci	r27, 0x00	; 0
    46ee:	c0 40       	sbci	r28, 0x00	; 0
    46f0:	e1 f7       	brne	.-8      	; 0x46ea <__stack+0x3e8b>
    46f2:	00 c0       	rjmp	.+0      	; 0x46f4 <__stack+0x3e95>
    46f4:	00 00       	nop
					_delay_ms(period);
					PORTD = 0x01;
    46f6:	22 bb       	out	0x12, r18	; 18
    46f8:	af ef       	ldi	r26, 0xFF	; 255
    46fa:	b1 ee       	ldi	r27, 0xE1	; 225
    46fc:	c4 e0       	ldi	r28, 0x04	; 4
    46fe:	a1 50       	subi	r26, 0x01	; 1
    4700:	b0 40       	sbci	r27, 0x00	; 0
    4702:	c0 40       	sbci	r28, 0x00	; 0
    4704:	e1 f7       	brne	.-8      	; 0x46fe <__stack+0x3e9f>
    4706:	00 c0       	rjmp	.+0      	; 0x4708 <__stack+0x3ea9>
    4708:	00 00       	nop
    470a:	01 97       	sbiw	r24, 0x01	; 1
				break;
			}
			case 4:
			{
				/* Rotate Stepper Motor clockwise with Half step sequence */
				for (int i = 0; i < 12; i++)
    470c:	09 f0       	breq	.+2      	; 0x4710 <__stack+0x3eb1>
    470e:	ad cf       	rjmp	.-166    	; 0x466a <__stack+0x3e0b>
					PORTD = 0x03;
					_delay_ms(period);
					PORTD = 0x01;
					_delay_ms(period);
				}
				PORTD = 0x09; /* Last step to initial position */
    4710:	89 e0       	ldi	r24, 0x09	; 9
    4712:	82 bb       	out	0x12, r24	; 18
    4714:	ef ef       	ldi	r30, 0xFF	; 255
    4716:	21 ee       	ldi	r18, 0xE1	; 225
    4718:	64 e0       	ldi	r22, 0x04	; 4
    471a:	e1 50       	subi	r30, 0x01	; 1
    471c:	20 40       	sbci	r18, 0x00	; 0
    471e:	60 40       	sbci	r22, 0x00	; 0
    4720:	e1 f7       	brne	.-8      	; 0x471a <__stack+0x3ebb>
    4722:	00 c0       	rjmp	.+0      	; 0x4724 <__stack+0x3ec5>
    4724:	00 00       	nop
    4726:	7f ef       	ldi	r23, 0xFF	; 255
    4728:	83 ed       	ldi	r24, 0xD3	; 211
    472a:	90 e3       	ldi	r25, 0x30	; 48
    472c:	71 50       	subi	r23, 0x01	; 1
    472e:	80 40       	sbci	r24, 0x00	; 0
    4730:	90 40       	sbci	r25, 0x00	; 0
    4732:	e1 f7       	brne	.-8      	; 0x472c <__stack+0x3ecd>
    4734:	00 c0       	rjmp	.+0      	; 0x4736 <__stack+0x3ed7>
    4736:	00 00       	nop
    4738:	8c e0       	ldi	r24, 0x0C	; 12
    473a:	90 e0       	ldi	r25, 0x00	; 0
				_delay_ms(1000);

				/* Rotate Stepper Motor Anticlockwise with Full step sequence */
				for (int i = 0; i < 12; i++)
				{
					PORTD = 0x09;
    473c:	59 e0       	ldi	r21, 0x09	; 9
					_delay_ms(period);
					PORTD = 0x03;
    473e:	43 e0       	ldi	r20, 0x03	; 3
					_delay_ms(period);
					PORTD = 0x06;
    4740:	36 e0       	ldi	r19, 0x06	; 6
					_delay_ms(period);
					PORTD = 0x0C;
    4742:	2c e0       	ldi	r18, 0x0C	; 12
				_delay_ms(1000);

				/* Rotate Stepper Motor Anticlockwise with Full step sequence */
				for (int i = 0; i < 12; i++)
				{
					PORTD = 0x09;
    4744:	52 bb       	out	0x12, r21	; 18
    4746:	af ef       	ldi	r26, 0xFF	; 255
    4748:	b1 ee       	ldi	r27, 0xE1	; 225
    474a:	c4 e0       	ldi	r28, 0x04	; 4
    474c:	a1 50       	subi	r26, 0x01	; 1
    474e:	b0 40       	sbci	r27, 0x00	; 0
    4750:	c0 40       	sbci	r28, 0x00	; 0
    4752:	e1 f7       	brne	.-8      	; 0x474c <__stack+0x3eed>
    4754:	00 c0       	rjmp	.+0      	; 0x4756 <__stack+0x3ef7>
    4756:	00 00       	nop
					_delay_ms(period);
					PORTD = 0x03;
    4758:	42 bb       	out	0x12, r20	; 18
    475a:	ef ef       	ldi	r30, 0xFF	; 255
    475c:	61 ee       	ldi	r22, 0xE1	; 225
    475e:	74 e0       	ldi	r23, 0x04	; 4
    4760:	e1 50       	subi	r30, 0x01	; 1
    4762:	60 40       	sbci	r22, 0x00	; 0
    4764:	70 40       	sbci	r23, 0x00	; 0
    4766:	e1 f7       	brne	.-8      	; 0x4760 <__stack+0x3f01>
    4768:	00 c0       	rjmp	.+0      	; 0x476a <__stack+0x3f0b>
    476a:	00 00       	nop
					_delay_ms(period);
					PORTD = 0x06;
    476c:	32 bb       	out	0x12, r19	; 18
    476e:	af ef       	ldi	r26, 0xFF	; 255
    4770:	b1 ee       	ldi	r27, 0xE1	; 225
    4772:	c4 e0       	ldi	r28, 0x04	; 4
    4774:	a1 50       	subi	r26, 0x01	; 1
    4776:	b0 40       	sbci	r27, 0x00	; 0
    4778:	c0 40       	sbci	r28, 0x00	; 0
    477a:	e1 f7       	brne	.-8      	; 0x4774 <__stack+0x3f15>
    477c:	00 c0       	rjmp	.+0      	; 0x477e <__stack+0x3f1f>
    477e:	00 00       	nop
					_delay_ms(period);
					PORTD = 0x0C;
    4780:	22 bb       	out	0x12, r18	; 18
    4782:	ef ef       	ldi	r30, 0xFF	; 255
    4784:	61 ee       	ldi	r22, 0xE1	; 225
    4786:	74 e0       	ldi	r23, 0x04	; 4
    4788:	e1 50       	subi	r30, 0x01	; 1
    478a:	60 40       	sbci	r22, 0x00	; 0
    478c:	70 40       	sbci	r23, 0x00	; 0
    478e:	e1 f7       	brne	.-8      	; 0x4788 <__stack+0x3f29>
    4790:	00 c0       	rjmp	.+0      	; 0x4792 <__stack+0x3f33>
    4792:	00 00       	nop
    4794:	01 97       	sbiw	r24, 0x01	; 1
				PORTD = 0x09; /* Last step to initial position */
				_delay_ms(period);
				_delay_ms(1000);

				/* Rotate Stepper Motor Anticlockwise with Full step sequence */
				for (int i = 0; i < 12; i++)
    4796:	b1 f6       	brne	.-84     	; 0x4744 <__stack+0x3ee5>
					PORTD = 0x06;
					_delay_ms(period);
					PORTD = 0x0C;
					_delay_ms(period);
				}
				PORTD = 0x09;
    4798:	89 e0       	ldi	r24, 0x09	; 9
    479a:	82 bb       	out	0x12, r24	; 18
    479c:	8f ef       	ldi	r24, 0xFF	; 255
    479e:	91 ee       	ldi	r25, 0xE1	; 225
    47a0:	a4 e0       	ldi	r26, 0x04	; 4
    47a2:	81 50       	subi	r24, 0x01	; 1
    47a4:	90 40       	sbci	r25, 0x00	; 0
    47a6:	a0 40       	sbci	r26, 0x00	; 0
    47a8:	e1 f7       	brne	.-8      	; 0x47a2 <__stack+0x3f43>
    47aa:	00 c0       	rjmp	.+0      	; 0x47ac <__stack+0x3f4d>
    47ac:	00 00       	nop
    47ae:	bf ef       	ldi	r27, 0xFF	; 255
    47b0:	c3 ed       	ldi	r28, 0xD3	; 211
    47b2:	e0 e3       	ldi	r30, 0x30	; 48
    47b4:	b1 50       	subi	r27, 0x01	; 1
    47b6:	c0 40       	sbci	r28, 0x00	; 0
    47b8:	e0 40       	sbci	r30, 0x00	; 0
    47ba:	e1 f7       	brne	.-8      	; 0x47b4 <__stack+0x3f55>
    47bc:	00 c0       	rjmp	.+0      	; 0x47be <__stack+0x3f5f>
    47be:	00 00       	nop
    47c0:	0c 94 2c 3b 	jmp	0x7658	; 0x7658 <__stack+0x6df9>
				break;
			}
		}
		break;
		case 6:
		switch (personNum)
    47c4:	8c e0       	ldi	r24, 0x0C	; 12
    47c6:	90 e0       	ldi	r25, 0x00	; 0
			case 5:
			{
				/* Rotate Stepper Motor clockwise with Half step sequence */
				for (int i = 0; i < 12; i++)
				{
					PORTD = 0x09;
    47c8:	f9 e0       	ldi	r31, 0x09	; 9
					_delay_ms(period);
					PORTD = 0x08;
    47ca:	e8 e0       	ldi	r30, 0x08	; 8
					_delay_ms(period);
					PORTD = 0x0C;
    47cc:	7c e0       	ldi	r23, 0x0C	; 12
					_delay_ms(period);
					PORTD = 0x04;
    47ce:	64 e0       	ldi	r22, 0x04	; 4
					_delay_ms(period);
					PORTD = 0x06;
    47d0:	56 e0       	ldi	r21, 0x06	; 6
					_delay_ms(period);
					PORTD = 0x02;
    47d2:	42 e0       	ldi	r20, 0x02	; 2
					_delay_ms(period);
					PORTD = 0x03;
    47d4:	33 e0       	ldi	r19, 0x03	; 3
					_delay_ms(period);
					PORTD = 0x01;
    47d6:	21 e0       	ldi	r18, 0x01	; 1
			case 5:
			{
				/* Rotate Stepper Motor clockwise with Half step sequence */
				for (int i = 0; i < 12; i++)
				{
					PORTD = 0x09;
    47d8:	f2 bb       	out	0x12, r31	; 18
    47da:	af ef       	ldi	r26, 0xFF	; 255
    47dc:	b1 ee       	ldi	r27, 0xE1	; 225
    47de:	c4 e0       	ldi	r28, 0x04	; 4
    47e0:	a1 50       	subi	r26, 0x01	; 1
    47e2:	b0 40       	sbci	r27, 0x00	; 0
    47e4:	c0 40       	sbci	r28, 0x00	; 0
    47e6:	e1 f7       	brne	.-8      	; 0x47e0 <__stack+0x3f81>
    47e8:	00 c0       	rjmp	.+0      	; 0x47ea <__stack+0x3f8b>
    47ea:	00 00       	nop
					_delay_ms(period);
					PORTD = 0x08;
    47ec:	e2 bb       	out	0x12, r30	; 18
    47ee:	af ef       	ldi	r26, 0xFF	; 255
    47f0:	b1 ee       	ldi	r27, 0xE1	; 225
    47f2:	c4 e0       	ldi	r28, 0x04	; 4
    47f4:	a1 50       	subi	r26, 0x01	; 1
    47f6:	b0 40       	sbci	r27, 0x00	; 0
    47f8:	c0 40       	sbci	r28, 0x00	; 0
    47fa:	e1 f7       	brne	.-8      	; 0x47f4 <__stack+0x3f95>
    47fc:	00 c0       	rjmp	.+0      	; 0x47fe <__stack+0x3f9f>
    47fe:	00 00       	nop
					_delay_ms(period);
					PORTD = 0x0C;
    4800:	72 bb       	out	0x12, r23	; 18
    4802:	af ef       	ldi	r26, 0xFF	; 255
    4804:	b1 ee       	ldi	r27, 0xE1	; 225
    4806:	c4 e0       	ldi	r28, 0x04	; 4
    4808:	a1 50       	subi	r26, 0x01	; 1
    480a:	b0 40       	sbci	r27, 0x00	; 0
    480c:	c0 40       	sbci	r28, 0x00	; 0
    480e:	e1 f7       	brne	.-8      	; 0x4808 <__stack+0x3fa9>
    4810:	00 c0       	rjmp	.+0      	; 0x4812 <__stack+0x3fb3>
    4812:	00 00       	nop
					_delay_ms(period);
					PORTD = 0x04;
    4814:	62 bb       	out	0x12, r22	; 18
    4816:	af ef       	ldi	r26, 0xFF	; 255
    4818:	b1 ee       	ldi	r27, 0xE1	; 225
    481a:	c4 e0       	ldi	r28, 0x04	; 4
    481c:	a1 50       	subi	r26, 0x01	; 1
    481e:	b0 40       	sbci	r27, 0x00	; 0
    4820:	c0 40       	sbci	r28, 0x00	; 0
    4822:	e1 f7       	brne	.-8      	; 0x481c <__stack+0x3fbd>
    4824:	00 c0       	rjmp	.+0      	; 0x4826 <__stack+0x3fc7>
    4826:	00 00       	nop
					_delay_ms(period);
					PORTD = 0x06;
    4828:	52 bb       	out	0x12, r21	; 18
    482a:	af ef       	ldi	r26, 0xFF	; 255
    482c:	b1 ee       	ldi	r27, 0xE1	; 225
    482e:	c4 e0       	ldi	r28, 0x04	; 4
    4830:	a1 50       	subi	r26, 0x01	; 1
    4832:	b0 40       	sbci	r27, 0x00	; 0
    4834:	c0 40       	sbci	r28, 0x00	; 0
    4836:	e1 f7       	brne	.-8      	; 0x4830 <__stack+0x3fd1>
    4838:	00 c0       	rjmp	.+0      	; 0x483a <__stack+0x3fdb>
    483a:	00 00       	nop
					_delay_ms(period);
					PORTD = 0x02;
    483c:	42 bb       	out	0x12, r20	; 18
    483e:	af ef       	ldi	r26, 0xFF	; 255
    4840:	b1 ee       	ldi	r27, 0xE1	; 225
    4842:	c4 e0       	ldi	r28, 0x04	; 4
    4844:	a1 50       	subi	r26, 0x01	; 1
    4846:	b0 40       	sbci	r27, 0x00	; 0
    4848:	c0 40       	sbci	r28, 0x00	; 0
    484a:	e1 f7       	brne	.-8      	; 0x4844 <__stack+0x3fe5>
    484c:	00 c0       	rjmp	.+0      	; 0x484e <__stack+0x3fef>
    484e:	00 00       	nop
					_delay_ms(period);
					PORTD = 0x03;
    4850:	32 bb       	out	0x12, r19	; 18
    4852:	af ef       	ldi	r26, 0xFF	; 255
    4854:	b1 ee       	ldi	r27, 0xE1	; 225
    4856:	c4 e0       	ldi	r28, 0x04	; 4
    4858:	a1 50       	subi	r26, 0x01	; 1
    485a:	b0 40       	sbci	r27, 0x00	; 0
    485c:	c0 40       	sbci	r28, 0x00	; 0
    485e:	e1 f7       	brne	.-8      	; 0x4858 <__stack+0x3ff9>
    4860:	00 c0       	rjmp	.+0      	; 0x4862 <__stack+0x4003>
    4862:	00 00       	nop
					_delay_ms(period);
					PORTD = 0x01;
    4864:	22 bb       	out	0x12, r18	; 18
    4866:	af ef       	ldi	r26, 0xFF	; 255
    4868:	b1 ee       	ldi	r27, 0xE1	; 225
    486a:	c4 e0       	ldi	r28, 0x04	; 4
    486c:	a1 50       	subi	r26, 0x01	; 1
    486e:	b0 40       	sbci	r27, 0x00	; 0
    4870:	c0 40       	sbci	r28, 0x00	; 0
    4872:	e1 f7       	brne	.-8      	; 0x486c <__stack+0x400d>
    4874:	00 c0       	rjmp	.+0      	; 0x4876 <__stack+0x4017>
    4876:	00 00       	nop
    4878:	01 97       	sbiw	r24, 0x01	; 1
				break;
			}
			case 5:
			{
				/* Rotate Stepper Motor clockwise with Half step sequence */
				for (int i = 0; i < 12; i++)
    487a:	09 f0       	breq	.+2      	; 0x487e <__stack+0x401f>
    487c:	ad cf       	rjmp	.-166    	; 0x47d8 <__stack+0x3f79>
					PORTD = 0x03;
					_delay_ms(period);
					PORTD = 0x01;
					_delay_ms(period);
				}
				PORTD = 0x09; /* Last step to initial position */
    487e:	89 e0       	ldi	r24, 0x09	; 9
    4880:	82 bb       	out	0x12, r24	; 18
    4882:	ef ef       	ldi	r30, 0xFF	; 255
    4884:	21 ee       	ldi	r18, 0xE1	; 225
    4886:	64 e0       	ldi	r22, 0x04	; 4
    4888:	e1 50       	subi	r30, 0x01	; 1
    488a:	20 40       	sbci	r18, 0x00	; 0
    488c:	60 40       	sbci	r22, 0x00	; 0
    488e:	e1 f7       	brne	.-8      	; 0x4888 <__stack+0x4029>
    4890:	00 c0       	rjmp	.+0      	; 0x4892 <__stack+0x4033>
    4892:	00 00       	nop
    4894:	7f ef       	ldi	r23, 0xFF	; 255
    4896:	83 ed       	ldi	r24, 0xD3	; 211
    4898:	90 e3       	ldi	r25, 0x30	; 48
    489a:	71 50       	subi	r23, 0x01	; 1
    489c:	80 40       	sbci	r24, 0x00	; 0
    489e:	90 40       	sbci	r25, 0x00	; 0
    48a0:	e1 f7       	brne	.-8      	; 0x489a <__stack+0x403b>
    48a2:	00 c0       	rjmp	.+0      	; 0x48a4 <__stack+0x4045>
    48a4:	00 00       	nop
    48a6:	8c e0       	ldi	r24, 0x0C	; 12
    48a8:	90 e0       	ldi	r25, 0x00	; 0
				_delay_ms(1000);

				/* Rotate Stepper Motor Anticlockwise with Full step sequence */
				for (int i = 0; i < 12; i++)
				{
					PORTD = 0x09;
    48aa:	59 e0       	ldi	r21, 0x09	; 9
					_delay_ms(period);
					PORTD = 0x03;
    48ac:	43 e0       	ldi	r20, 0x03	; 3
					_delay_ms(period);
					PORTD = 0x06;
    48ae:	36 e0       	ldi	r19, 0x06	; 6
					_delay_ms(period);
					PORTD = 0x0C;
    48b0:	2c e0       	ldi	r18, 0x0C	; 12
				_delay_ms(1000);

				/* Rotate Stepper Motor Anticlockwise with Full step sequence */
				for (int i = 0; i < 12; i++)
				{
					PORTD = 0x09;
    48b2:	52 bb       	out	0x12, r21	; 18
    48b4:	af ef       	ldi	r26, 0xFF	; 255
    48b6:	b1 ee       	ldi	r27, 0xE1	; 225
    48b8:	c4 e0       	ldi	r28, 0x04	; 4
    48ba:	a1 50       	subi	r26, 0x01	; 1
    48bc:	b0 40       	sbci	r27, 0x00	; 0
    48be:	c0 40       	sbci	r28, 0x00	; 0
    48c0:	e1 f7       	brne	.-8      	; 0x48ba <__stack+0x405b>
    48c2:	00 c0       	rjmp	.+0      	; 0x48c4 <__stack+0x4065>
    48c4:	00 00       	nop
					_delay_ms(period);
					PORTD = 0x03;
    48c6:	42 bb       	out	0x12, r20	; 18
    48c8:	ef ef       	ldi	r30, 0xFF	; 255
    48ca:	61 ee       	ldi	r22, 0xE1	; 225
    48cc:	74 e0       	ldi	r23, 0x04	; 4
    48ce:	e1 50       	subi	r30, 0x01	; 1
    48d0:	60 40       	sbci	r22, 0x00	; 0
    48d2:	70 40       	sbci	r23, 0x00	; 0
    48d4:	e1 f7       	brne	.-8      	; 0x48ce <__stack+0x406f>
    48d6:	00 c0       	rjmp	.+0      	; 0x48d8 <__stack+0x4079>
    48d8:	00 00       	nop
					_delay_ms(period);
					PORTD = 0x06;
    48da:	32 bb       	out	0x12, r19	; 18
    48dc:	af ef       	ldi	r26, 0xFF	; 255
    48de:	b1 ee       	ldi	r27, 0xE1	; 225
    48e0:	c4 e0       	ldi	r28, 0x04	; 4
    48e2:	a1 50       	subi	r26, 0x01	; 1
    48e4:	b0 40       	sbci	r27, 0x00	; 0
    48e6:	c0 40       	sbci	r28, 0x00	; 0
    48e8:	e1 f7       	brne	.-8      	; 0x48e2 <__stack+0x4083>
    48ea:	00 c0       	rjmp	.+0      	; 0x48ec <__stack+0x408d>
    48ec:	00 00       	nop
					_delay_ms(period);
					PORTD = 0x0C;
    48ee:	22 bb       	out	0x12, r18	; 18
    48f0:	ef ef       	ldi	r30, 0xFF	; 255
    48f2:	61 ee       	ldi	r22, 0xE1	; 225
    48f4:	74 e0       	ldi	r23, 0x04	; 4
    48f6:	e1 50       	subi	r30, 0x01	; 1
    48f8:	60 40       	sbci	r22, 0x00	; 0
    48fa:	70 40       	sbci	r23, 0x00	; 0
    48fc:	e1 f7       	brne	.-8      	; 0x48f6 <__stack+0x4097>
    48fe:	00 c0       	rjmp	.+0      	; 0x4900 <__stack+0x40a1>
    4900:	00 00       	nop
    4902:	01 97       	sbiw	r24, 0x01	; 1
				PORTD = 0x09; /* Last step to initial position */
				_delay_ms(period);
				_delay_ms(1000);

				/* Rotate Stepper Motor Anticlockwise with Full step sequence */
				for (int i = 0; i < 12; i++)
    4904:	b1 f6       	brne	.-84     	; 0x48b2 <__stack+0x4053>
					PORTD = 0x06;
					_delay_ms(period);
					PORTD = 0x0C;
					_delay_ms(period);
				}
				PORTD = 0x09;
    4906:	89 e0       	ldi	r24, 0x09	; 9
    4908:	82 bb       	out	0x12, r24	; 18
    490a:	8f ef       	ldi	r24, 0xFF	; 255
    490c:	91 ee       	ldi	r25, 0xE1	; 225
    490e:	a4 e0       	ldi	r26, 0x04	; 4
    4910:	81 50       	subi	r24, 0x01	; 1
    4912:	90 40       	sbci	r25, 0x00	; 0
    4914:	a0 40       	sbci	r26, 0x00	; 0
    4916:	e1 f7       	brne	.-8      	; 0x4910 <__stack+0x40b1>
    4918:	00 c0       	rjmp	.+0      	; 0x491a <__stack+0x40bb>
    491a:	00 00       	nop
    491c:	bf ef       	ldi	r27, 0xFF	; 255
    491e:	c3 ed       	ldi	r28, 0xD3	; 211
    4920:	e0 e3       	ldi	r30, 0x30	; 48
    4922:	b1 50       	subi	r27, 0x01	; 1
    4924:	c0 40       	sbci	r28, 0x00	; 0
    4926:	e0 40       	sbci	r30, 0x00	; 0
    4928:	e1 f7       	brne	.-8      	; 0x4922 <__stack+0x40c3>
    492a:	00 c0       	rjmp	.+0      	; 0x492c <__stack+0x40cd>
    492c:	00 00       	nop
    492e:	0c 94 2c 3b 	jmp	0x7658	; 0x7658 <__stack+0x6df9>
				break;
			}
		}
		break;
		case 6:
		switch (personNum)
    4932:	8c e0       	ldi	r24, 0x0C	; 12
    4934:	90 e0       	ldi	r25, 0x00	; 0
			case 6:
			{
				/* Rotate Stepper Motor clockwise with Half step sequence */
				for (int i = 0; i < 12; i++)
				{
					PORTD = 0x09;
    4936:	f9 e0       	ldi	r31, 0x09	; 9
					_delay_ms(period);
					PORTD = 0x08;
    4938:	e8 e0       	ldi	r30, 0x08	; 8
					_delay_ms(period);
					PORTD = 0x0C;
    493a:	7c e0       	ldi	r23, 0x0C	; 12
					_delay_ms(period);
					PORTD = 0x04;
    493c:	64 e0       	ldi	r22, 0x04	; 4
					_delay_ms(period);
					PORTD = 0x06;
    493e:	56 e0       	ldi	r21, 0x06	; 6
					_delay_ms(period);
					PORTD = 0x02;
    4940:	42 e0       	ldi	r20, 0x02	; 2
					_delay_ms(period);
					PORTD = 0x03;
    4942:	33 e0       	ldi	r19, 0x03	; 3
					_delay_ms(period);
					PORTD = 0x01;
    4944:	21 e0       	ldi	r18, 0x01	; 1
			case 6:
			{
				/* Rotate Stepper Motor clockwise with Half step sequence */
				for (int i = 0; i < 12; i++)
				{
					PORTD = 0x09;
    4946:	f2 bb       	out	0x12, r31	; 18
    4948:	af ef       	ldi	r26, 0xFF	; 255
    494a:	b1 ee       	ldi	r27, 0xE1	; 225
    494c:	c4 e0       	ldi	r28, 0x04	; 4
    494e:	a1 50       	subi	r26, 0x01	; 1
    4950:	b0 40       	sbci	r27, 0x00	; 0
    4952:	c0 40       	sbci	r28, 0x00	; 0
    4954:	e1 f7       	brne	.-8      	; 0x494e <__stack+0x40ef>
    4956:	00 c0       	rjmp	.+0      	; 0x4958 <__stack+0x40f9>
    4958:	00 00       	nop
					_delay_ms(period);
					PORTD = 0x08;
    495a:	e2 bb       	out	0x12, r30	; 18
    495c:	af ef       	ldi	r26, 0xFF	; 255
    495e:	b1 ee       	ldi	r27, 0xE1	; 225
    4960:	c4 e0       	ldi	r28, 0x04	; 4
    4962:	a1 50       	subi	r26, 0x01	; 1
    4964:	b0 40       	sbci	r27, 0x00	; 0
    4966:	c0 40       	sbci	r28, 0x00	; 0
    4968:	e1 f7       	brne	.-8      	; 0x4962 <__stack+0x4103>
    496a:	00 c0       	rjmp	.+0      	; 0x496c <__stack+0x410d>
    496c:	00 00       	nop
					_delay_ms(period);
					PORTD = 0x0C;
    496e:	72 bb       	out	0x12, r23	; 18
    4970:	af ef       	ldi	r26, 0xFF	; 255
    4972:	b1 ee       	ldi	r27, 0xE1	; 225
    4974:	c4 e0       	ldi	r28, 0x04	; 4
    4976:	a1 50       	subi	r26, 0x01	; 1
    4978:	b0 40       	sbci	r27, 0x00	; 0
    497a:	c0 40       	sbci	r28, 0x00	; 0
    497c:	e1 f7       	brne	.-8      	; 0x4976 <__stack+0x4117>
    497e:	00 c0       	rjmp	.+0      	; 0x4980 <__stack+0x4121>
    4980:	00 00       	nop
					_delay_ms(period);
					PORTD = 0x04;
    4982:	62 bb       	out	0x12, r22	; 18
    4984:	af ef       	ldi	r26, 0xFF	; 255
    4986:	b1 ee       	ldi	r27, 0xE1	; 225
    4988:	c4 e0       	ldi	r28, 0x04	; 4
    498a:	a1 50       	subi	r26, 0x01	; 1
    498c:	b0 40       	sbci	r27, 0x00	; 0
    498e:	c0 40       	sbci	r28, 0x00	; 0
    4990:	e1 f7       	brne	.-8      	; 0x498a <__stack+0x412b>
    4992:	00 c0       	rjmp	.+0      	; 0x4994 <__stack+0x4135>
    4994:	00 00       	nop
					_delay_ms(period);
					PORTD = 0x06;
    4996:	52 bb       	out	0x12, r21	; 18
    4998:	af ef       	ldi	r26, 0xFF	; 255
    499a:	b1 ee       	ldi	r27, 0xE1	; 225
    499c:	c4 e0       	ldi	r28, 0x04	; 4
    499e:	a1 50       	subi	r26, 0x01	; 1
    49a0:	b0 40       	sbci	r27, 0x00	; 0
    49a2:	c0 40       	sbci	r28, 0x00	; 0
    49a4:	e1 f7       	brne	.-8      	; 0x499e <__stack+0x413f>
    49a6:	00 c0       	rjmp	.+0      	; 0x49a8 <__stack+0x4149>
    49a8:	00 00       	nop
					_delay_ms(period);
					PORTD = 0x02;
    49aa:	42 bb       	out	0x12, r20	; 18
    49ac:	af ef       	ldi	r26, 0xFF	; 255
    49ae:	b1 ee       	ldi	r27, 0xE1	; 225
    49b0:	c4 e0       	ldi	r28, 0x04	; 4
    49b2:	a1 50       	subi	r26, 0x01	; 1
    49b4:	b0 40       	sbci	r27, 0x00	; 0
    49b6:	c0 40       	sbci	r28, 0x00	; 0
    49b8:	e1 f7       	brne	.-8      	; 0x49b2 <__stack+0x4153>
    49ba:	00 c0       	rjmp	.+0      	; 0x49bc <__stack+0x415d>
    49bc:	00 00       	nop
					_delay_ms(period);
					PORTD = 0x03;
    49be:	32 bb       	out	0x12, r19	; 18
    49c0:	af ef       	ldi	r26, 0xFF	; 255
    49c2:	b1 ee       	ldi	r27, 0xE1	; 225
    49c4:	c4 e0       	ldi	r28, 0x04	; 4
    49c6:	a1 50       	subi	r26, 0x01	; 1
    49c8:	b0 40       	sbci	r27, 0x00	; 0
    49ca:	c0 40       	sbci	r28, 0x00	; 0
    49cc:	e1 f7       	brne	.-8      	; 0x49c6 <__stack+0x4167>
    49ce:	00 c0       	rjmp	.+0      	; 0x49d0 <__stack+0x4171>
    49d0:	00 00       	nop
					_delay_ms(period);
					PORTD = 0x01;
    49d2:	22 bb       	out	0x12, r18	; 18
    49d4:	af ef       	ldi	r26, 0xFF	; 255
    49d6:	b1 ee       	ldi	r27, 0xE1	; 225
    49d8:	c4 e0       	ldi	r28, 0x04	; 4
    49da:	a1 50       	subi	r26, 0x01	; 1
    49dc:	b0 40       	sbci	r27, 0x00	; 0
    49de:	c0 40       	sbci	r28, 0x00	; 0
    49e0:	e1 f7       	brne	.-8      	; 0x49da <__stack+0x417b>
    49e2:	00 c0       	rjmp	.+0      	; 0x49e4 <__stack+0x4185>
    49e4:	00 00       	nop
    49e6:	01 97       	sbiw	r24, 0x01	; 1
				break;
			}
			case 6:
			{
				/* Rotate Stepper Motor clockwise with Half step sequence */
				for (int i = 0; i < 12; i++)
    49e8:	09 f0       	breq	.+2      	; 0x49ec <__stack+0x418d>
    49ea:	ad cf       	rjmp	.-166    	; 0x4946 <__stack+0x40e7>
					PORTD = 0x03;
					_delay_ms(period);
					PORTD = 0x01;
					_delay_ms(period);
				}
				PORTD = 0x09; /* Last step to initial position */
    49ec:	89 e0       	ldi	r24, 0x09	; 9
    49ee:	82 bb       	out	0x12, r24	; 18
    49f0:	ef ef       	ldi	r30, 0xFF	; 255
    49f2:	21 ee       	ldi	r18, 0xE1	; 225
    49f4:	64 e0       	ldi	r22, 0x04	; 4
    49f6:	e1 50       	subi	r30, 0x01	; 1
    49f8:	20 40       	sbci	r18, 0x00	; 0
    49fa:	60 40       	sbci	r22, 0x00	; 0
    49fc:	e1 f7       	brne	.-8      	; 0x49f6 <__stack+0x4197>
    49fe:	00 c0       	rjmp	.+0      	; 0x4a00 <__stack+0x41a1>
    4a00:	00 00       	nop
    4a02:	7f ef       	ldi	r23, 0xFF	; 255
    4a04:	83 ed       	ldi	r24, 0xD3	; 211
    4a06:	90 e3       	ldi	r25, 0x30	; 48
    4a08:	71 50       	subi	r23, 0x01	; 1
    4a0a:	80 40       	sbci	r24, 0x00	; 0
    4a0c:	90 40       	sbci	r25, 0x00	; 0
    4a0e:	e1 f7       	brne	.-8      	; 0x4a08 <__stack+0x41a9>
    4a10:	00 c0       	rjmp	.+0      	; 0x4a12 <__stack+0x41b3>
    4a12:	00 00       	nop
    4a14:	8c e0       	ldi	r24, 0x0C	; 12
    4a16:	90 e0       	ldi	r25, 0x00	; 0
				_delay_ms(1000);

				/* Rotate Stepper Motor Anticlockwise with Full step sequence */
				for (int i = 0; i < 12; i++)
				{
					PORTD = 0x09;
    4a18:	59 e0       	ldi	r21, 0x09	; 9
					_delay_ms(period);
					PORTD = 0x03;
    4a1a:	43 e0       	ldi	r20, 0x03	; 3
					_delay_ms(period);
					PORTD = 0x06;
    4a1c:	36 e0       	ldi	r19, 0x06	; 6
					_delay_ms(period);
					PORTD = 0x0C;
    4a1e:	2c e0       	ldi	r18, 0x0C	; 12
				_delay_ms(1000);

				/* Rotate Stepper Motor Anticlockwise with Full step sequence */
				for (int i = 0; i < 12; i++)
				{
					PORTD = 0x09;
    4a20:	52 bb       	out	0x12, r21	; 18
    4a22:	af ef       	ldi	r26, 0xFF	; 255
    4a24:	b1 ee       	ldi	r27, 0xE1	; 225
    4a26:	c4 e0       	ldi	r28, 0x04	; 4
    4a28:	a1 50       	subi	r26, 0x01	; 1
    4a2a:	b0 40       	sbci	r27, 0x00	; 0
    4a2c:	c0 40       	sbci	r28, 0x00	; 0
    4a2e:	e1 f7       	brne	.-8      	; 0x4a28 <__stack+0x41c9>
    4a30:	00 c0       	rjmp	.+0      	; 0x4a32 <__stack+0x41d3>
    4a32:	00 00       	nop
					_delay_ms(period);
					PORTD = 0x03;
    4a34:	42 bb       	out	0x12, r20	; 18
    4a36:	ef ef       	ldi	r30, 0xFF	; 255
    4a38:	61 ee       	ldi	r22, 0xE1	; 225
    4a3a:	74 e0       	ldi	r23, 0x04	; 4
    4a3c:	e1 50       	subi	r30, 0x01	; 1
    4a3e:	60 40       	sbci	r22, 0x00	; 0
    4a40:	70 40       	sbci	r23, 0x00	; 0
    4a42:	e1 f7       	brne	.-8      	; 0x4a3c <__stack+0x41dd>
    4a44:	00 c0       	rjmp	.+0      	; 0x4a46 <__stack+0x41e7>
    4a46:	00 00       	nop
					_delay_ms(period);
					PORTD = 0x06;
    4a48:	32 bb       	out	0x12, r19	; 18
    4a4a:	af ef       	ldi	r26, 0xFF	; 255
    4a4c:	b1 ee       	ldi	r27, 0xE1	; 225
    4a4e:	c4 e0       	ldi	r28, 0x04	; 4
    4a50:	a1 50       	subi	r26, 0x01	; 1
    4a52:	b0 40       	sbci	r27, 0x00	; 0
    4a54:	c0 40       	sbci	r28, 0x00	; 0
    4a56:	e1 f7       	brne	.-8      	; 0x4a50 <__stack+0x41f1>
    4a58:	00 c0       	rjmp	.+0      	; 0x4a5a <__stack+0x41fb>
    4a5a:	00 00       	nop
					_delay_ms(period);
					PORTD = 0x0C;
    4a5c:	22 bb       	out	0x12, r18	; 18
    4a5e:	ef ef       	ldi	r30, 0xFF	; 255
    4a60:	61 ee       	ldi	r22, 0xE1	; 225
    4a62:	74 e0       	ldi	r23, 0x04	; 4
    4a64:	e1 50       	subi	r30, 0x01	; 1
    4a66:	60 40       	sbci	r22, 0x00	; 0
    4a68:	70 40       	sbci	r23, 0x00	; 0
    4a6a:	e1 f7       	brne	.-8      	; 0x4a64 <__stack+0x4205>
    4a6c:	00 c0       	rjmp	.+0      	; 0x4a6e <__stack+0x420f>
    4a6e:	00 00       	nop
    4a70:	01 97       	sbiw	r24, 0x01	; 1
				PORTD = 0x09; /* Last step to initial position */
				_delay_ms(period);
				_delay_ms(1000);

				/* Rotate Stepper Motor Anticlockwise with Full step sequence */
				for (int i = 0; i < 12; i++)
    4a72:	b1 f6       	brne	.-84     	; 0x4a20 <__stack+0x41c1>
					PORTD = 0x06;
					_delay_ms(period);
					PORTD = 0x0C;
					_delay_ms(period);
				}
				PORTD = 0x09;
    4a74:	89 e0       	ldi	r24, 0x09	; 9
    4a76:	82 bb       	out	0x12, r24	; 18
    4a78:	8f ef       	ldi	r24, 0xFF	; 255
    4a7a:	91 ee       	ldi	r25, 0xE1	; 225
    4a7c:	a4 e0       	ldi	r26, 0x04	; 4
    4a7e:	81 50       	subi	r24, 0x01	; 1
    4a80:	90 40       	sbci	r25, 0x00	; 0
    4a82:	a0 40       	sbci	r26, 0x00	; 0
    4a84:	e1 f7       	brne	.-8      	; 0x4a7e <__stack+0x421f>
    4a86:	00 c0       	rjmp	.+0      	; 0x4a88 <__stack+0x4229>
    4a88:	00 00       	nop
    4a8a:	bf ef       	ldi	r27, 0xFF	; 255
    4a8c:	c3 ed       	ldi	r28, 0xD3	; 211
    4a8e:	e0 e3       	ldi	r30, 0x30	; 48
    4a90:	b1 50       	subi	r27, 0x01	; 1
    4a92:	c0 40       	sbci	r28, 0x00	; 0
    4a94:	e0 40       	sbci	r30, 0x00	; 0
    4a96:	e1 f7       	brne	.-8      	; 0x4a90 <__stack+0x4231>
    4a98:	00 c0       	rjmp	.+0      	; 0x4a9a <__stack+0x423b>
    4a9a:	00 00       	nop
    4a9c:	0c 94 2c 3b 	jmp	0x7658	; 0x7658 <__stack+0x6df9>
				break;
			}
		}
		break;
		case 6:
		switch (personNum)
    4aa0:	8c e0       	ldi	r24, 0x0C	; 12
    4aa2:	90 e0       	ldi	r25, 0x00	; 0
			case 7:
			{
				/* Rotate Stepper Motor clockwise with Half step sequence */
				for (int i = 0; i < 12; i++)
				{
					PORTD = 0x09;
    4aa4:	f9 e0       	ldi	r31, 0x09	; 9
					_delay_ms(period);
					PORTD = 0x08;
    4aa6:	e8 e0       	ldi	r30, 0x08	; 8
					_delay_ms(period);
					PORTD = 0x0C;
    4aa8:	7c e0       	ldi	r23, 0x0C	; 12
					_delay_ms(period);
					PORTD = 0x04;
    4aaa:	64 e0       	ldi	r22, 0x04	; 4
					_delay_ms(period);
					PORTD = 0x06;
    4aac:	56 e0       	ldi	r21, 0x06	; 6
					_delay_ms(period);
					PORTD = 0x02;
    4aae:	42 e0       	ldi	r20, 0x02	; 2
					_delay_ms(period);
					PORTD = 0x03;
    4ab0:	33 e0       	ldi	r19, 0x03	; 3
					_delay_ms(period);
					PORTD = 0x01;
    4ab2:	21 e0       	ldi	r18, 0x01	; 1
			case 7:
			{
				/* Rotate Stepper Motor clockwise with Half step sequence */
				for (int i = 0; i < 12; i++)
				{
					PORTD = 0x09;
    4ab4:	f2 bb       	out	0x12, r31	; 18
    4ab6:	af ef       	ldi	r26, 0xFF	; 255
    4ab8:	b1 ee       	ldi	r27, 0xE1	; 225
    4aba:	c4 e0       	ldi	r28, 0x04	; 4
    4abc:	a1 50       	subi	r26, 0x01	; 1
    4abe:	b0 40       	sbci	r27, 0x00	; 0
    4ac0:	c0 40       	sbci	r28, 0x00	; 0
    4ac2:	e1 f7       	brne	.-8      	; 0x4abc <__stack+0x425d>
    4ac4:	00 c0       	rjmp	.+0      	; 0x4ac6 <__stack+0x4267>
    4ac6:	00 00       	nop
					_delay_ms(period);
					PORTD = 0x08;
    4ac8:	e2 bb       	out	0x12, r30	; 18
    4aca:	af ef       	ldi	r26, 0xFF	; 255
    4acc:	b1 ee       	ldi	r27, 0xE1	; 225
    4ace:	c4 e0       	ldi	r28, 0x04	; 4
    4ad0:	a1 50       	subi	r26, 0x01	; 1
    4ad2:	b0 40       	sbci	r27, 0x00	; 0
    4ad4:	c0 40       	sbci	r28, 0x00	; 0
    4ad6:	e1 f7       	brne	.-8      	; 0x4ad0 <__stack+0x4271>
    4ad8:	00 c0       	rjmp	.+0      	; 0x4ada <__stack+0x427b>
    4ada:	00 00       	nop
					_delay_ms(period);
					PORTD = 0x0C;
    4adc:	72 bb       	out	0x12, r23	; 18
    4ade:	af ef       	ldi	r26, 0xFF	; 255
    4ae0:	b1 ee       	ldi	r27, 0xE1	; 225
    4ae2:	c4 e0       	ldi	r28, 0x04	; 4
    4ae4:	a1 50       	subi	r26, 0x01	; 1
    4ae6:	b0 40       	sbci	r27, 0x00	; 0
    4ae8:	c0 40       	sbci	r28, 0x00	; 0
    4aea:	e1 f7       	brne	.-8      	; 0x4ae4 <__stack+0x4285>
    4aec:	00 c0       	rjmp	.+0      	; 0x4aee <__stack+0x428f>
    4aee:	00 00       	nop
					_delay_ms(period);
					PORTD = 0x04;
    4af0:	62 bb       	out	0x12, r22	; 18
    4af2:	af ef       	ldi	r26, 0xFF	; 255
    4af4:	b1 ee       	ldi	r27, 0xE1	; 225
    4af6:	c4 e0       	ldi	r28, 0x04	; 4
    4af8:	a1 50       	subi	r26, 0x01	; 1
    4afa:	b0 40       	sbci	r27, 0x00	; 0
    4afc:	c0 40       	sbci	r28, 0x00	; 0
    4afe:	e1 f7       	brne	.-8      	; 0x4af8 <__stack+0x4299>
    4b00:	00 c0       	rjmp	.+0      	; 0x4b02 <__stack+0x42a3>
    4b02:	00 00       	nop
					_delay_ms(period);
					PORTD = 0x06;
    4b04:	52 bb       	out	0x12, r21	; 18
    4b06:	af ef       	ldi	r26, 0xFF	; 255
    4b08:	b1 ee       	ldi	r27, 0xE1	; 225
    4b0a:	c4 e0       	ldi	r28, 0x04	; 4
    4b0c:	a1 50       	subi	r26, 0x01	; 1
    4b0e:	b0 40       	sbci	r27, 0x00	; 0
    4b10:	c0 40       	sbci	r28, 0x00	; 0
    4b12:	e1 f7       	brne	.-8      	; 0x4b0c <__stack+0x42ad>
    4b14:	00 c0       	rjmp	.+0      	; 0x4b16 <__stack+0x42b7>
    4b16:	00 00       	nop
					_delay_ms(period);
					PORTD = 0x02;
    4b18:	42 bb       	out	0x12, r20	; 18
    4b1a:	af ef       	ldi	r26, 0xFF	; 255
    4b1c:	b1 ee       	ldi	r27, 0xE1	; 225
    4b1e:	c4 e0       	ldi	r28, 0x04	; 4
    4b20:	a1 50       	subi	r26, 0x01	; 1
    4b22:	b0 40       	sbci	r27, 0x00	; 0
    4b24:	c0 40       	sbci	r28, 0x00	; 0
    4b26:	e1 f7       	brne	.-8      	; 0x4b20 <__stack+0x42c1>
    4b28:	00 c0       	rjmp	.+0      	; 0x4b2a <__stack+0x42cb>
    4b2a:	00 00       	nop
					_delay_ms(period);
					PORTD = 0x03;
    4b2c:	32 bb       	out	0x12, r19	; 18
    4b2e:	af ef       	ldi	r26, 0xFF	; 255
    4b30:	b1 ee       	ldi	r27, 0xE1	; 225
    4b32:	c4 e0       	ldi	r28, 0x04	; 4
    4b34:	a1 50       	subi	r26, 0x01	; 1
    4b36:	b0 40       	sbci	r27, 0x00	; 0
    4b38:	c0 40       	sbci	r28, 0x00	; 0
    4b3a:	e1 f7       	brne	.-8      	; 0x4b34 <__stack+0x42d5>
    4b3c:	00 c0       	rjmp	.+0      	; 0x4b3e <__stack+0x42df>
    4b3e:	00 00       	nop
					_delay_ms(period);
					PORTD = 0x01;
    4b40:	22 bb       	out	0x12, r18	; 18
    4b42:	af ef       	ldi	r26, 0xFF	; 255
    4b44:	b1 ee       	ldi	r27, 0xE1	; 225
    4b46:	c4 e0       	ldi	r28, 0x04	; 4
    4b48:	a1 50       	subi	r26, 0x01	; 1
    4b4a:	b0 40       	sbci	r27, 0x00	; 0
    4b4c:	c0 40       	sbci	r28, 0x00	; 0
    4b4e:	e1 f7       	brne	.-8      	; 0x4b48 <__stack+0x42e9>
    4b50:	00 c0       	rjmp	.+0      	; 0x4b52 <__stack+0x42f3>
    4b52:	00 00       	nop
    4b54:	01 97       	sbiw	r24, 0x01	; 1
				break;
			}
			case 7:
			{
				/* Rotate Stepper Motor clockwise with Half step sequence */
				for (int i = 0; i < 12; i++)
    4b56:	09 f0       	breq	.+2      	; 0x4b5a <__stack+0x42fb>
    4b58:	ad cf       	rjmp	.-166    	; 0x4ab4 <__stack+0x4255>
					PORTD = 0x03;
					_delay_ms(period);
					PORTD = 0x01;
					_delay_ms(period);
				}
				PORTD = 0x09; /* Last step to initial position */
    4b5a:	89 e0       	ldi	r24, 0x09	; 9
    4b5c:	82 bb       	out	0x12, r24	; 18
    4b5e:	ef ef       	ldi	r30, 0xFF	; 255
    4b60:	21 ee       	ldi	r18, 0xE1	; 225
    4b62:	64 e0       	ldi	r22, 0x04	; 4
    4b64:	e1 50       	subi	r30, 0x01	; 1
    4b66:	20 40       	sbci	r18, 0x00	; 0
    4b68:	60 40       	sbci	r22, 0x00	; 0
    4b6a:	e1 f7       	brne	.-8      	; 0x4b64 <__stack+0x4305>
    4b6c:	00 c0       	rjmp	.+0      	; 0x4b6e <__stack+0x430f>
    4b6e:	00 00       	nop
    4b70:	7f ef       	ldi	r23, 0xFF	; 255
    4b72:	83 ed       	ldi	r24, 0xD3	; 211
    4b74:	90 e3       	ldi	r25, 0x30	; 48
    4b76:	71 50       	subi	r23, 0x01	; 1
    4b78:	80 40       	sbci	r24, 0x00	; 0
    4b7a:	90 40       	sbci	r25, 0x00	; 0
    4b7c:	e1 f7       	brne	.-8      	; 0x4b76 <__stack+0x4317>
    4b7e:	00 c0       	rjmp	.+0      	; 0x4b80 <__stack+0x4321>
    4b80:	00 00       	nop
    4b82:	8c e0       	ldi	r24, 0x0C	; 12
    4b84:	90 e0       	ldi	r25, 0x00	; 0
				_delay_ms(1000);

				/* Rotate Stepper Motor Anticlockwise with Full step sequence */
				for (int i = 0; i < 12; i++)
				{
					PORTD = 0x09;
    4b86:	59 e0       	ldi	r21, 0x09	; 9
					_delay_ms(period);
					PORTD = 0x03;
    4b88:	43 e0       	ldi	r20, 0x03	; 3
					_delay_ms(period);
					PORTD = 0x06;
    4b8a:	36 e0       	ldi	r19, 0x06	; 6
					_delay_ms(period);
					PORTD = 0x0C;
    4b8c:	2c e0       	ldi	r18, 0x0C	; 12
				_delay_ms(1000);

				/* Rotate Stepper Motor Anticlockwise with Full step sequence */
				for (int i = 0; i < 12; i++)
				{
					PORTD = 0x09;
    4b8e:	52 bb       	out	0x12, r21	; 18
    4b90:	af ef       	ldi	r26, 0xFF	; 255
    4b92:	b1 ee       	ldi	r27, 0xE1	; 225
    4b94:	c4 e0       	ldi	r28, 0x04	; 4
    4b96:	a1 50       	subi	r26, 0x01	; 1
    4b98:	b0 40       	sbci	r27, 0x00	; 0
    4b9a:	c0 40       	sbci	r28, 0x00	; 0
    4b9c:	e1 f7       	brne	.-8      	; 0x4b96 <__stack+0x4337>
    4b9e:	00 c0       	rjmp	.+0      	; 0x4ba0 <__stack+0x4341>
    4ba0:	00 00       	nop
					_delay_ms(period);
					PORTD = 0x03;
    4ba2:	42 bb       	out	0x12, r20	; 18
    4ba4:	ef ef       	ldi	r30, 0xFF	; 255
    4ba6:	61 ee       	ldi	r22, 0xE1	; 225
    4ba8:	74 e0       	ldi	r23, 0x04	; 4
    4baa:	e1 50       	subi	r30, 0x01	; 1
    4bac:	60 40       	sbci	r22, 0x00	; 0
    4bae:	70 40       	sbci	r23, 0x00	; 0
    4bb0:	e1 f7       	brne	.-8      	; 0x4baa <__stack+0x434b>
    4bb2:	00 c0       	rjmp	.+0      	; 0x4bb4 <__stack+0x4355>
    4bb4:	00 00       	nop
					_delay_ms(period);
					PORTD = 0x06;
    4bb6:	32 bb       	out	0x12, r19	; 18
    4bb8:	af ef       	ldi	r26, 0xFF	; 255
    4bba:	b1 ee       	ldi	r27, 0xE1	; 225
    4bbc:	c4 e0       	ldi	r28, 0x04	; 4
    4bbe:	a1 50       	subi	r26, 0x01	; 1
    4bc0:	b0 40       	sbci	r27, 0x00	; 0
    4bc2:	c0 40       	sbci	r28, 0x00	; 0
    4bc4:	e1 f7       	brne	.-8      	; 0x4bbe <__stack+0x435f>
    4bc6:	00 c0       	rjmp	.+0      	; 0x4bc8 <__stack+0x4369>
    4bc8:	00 00       	nop
					_delay_ms(period);
					PORTD = 0x0C;
    4bca:	22 bb       	out	0x12, r18	; 18
    4bcc:	ef ef       	ldi	r30, 0xFF	; 255
    4bce:	61 ee       	ldi	r22, 0xE1	; 225
    4bd0:	74 e0       	ldi	r23, 0x04	; 4
    4bd2:	e1 50       	subi	r30, 0x01	; 1
    4bd4:	60 40       	sbci	r22, 0x00	; 0
    4bd6:	70 40       	sbci	r23, 0x00	; 0
    4bd8:	e1 f7       	brne	.-8      	; 0x4bd2 <__stack+0x4373>
    4bda:	00 c0       	rjmp	.+0      	; 0x4bdc <__stack+0x437d>
    4bdc:	00 00       	nop
    4bde:	01 97       	sbiw	r24, 0x01	; 1
				PORTD = 0x09; /* Last step to initial position */
				_delay_ms(period);
				_delay_ms(1000);

				/* Rotate Stepper Motor Anticlockwise with Full step sequence */
				for (int i = 0; i < 12; i++)
    4be0:	b1 f6       	brne	.-84     	; 0x4b8e <__stack+0x432f>
					PORTD = 0x06;
					_delay_ms(period);
					PORTD = 0x0C;
					_delay_ms(period);
				}
				PORTD = 0x09;
    4be2:	89 e0       	ldi	r24, 0x09	; 9
    4be4:	82 bb       	out	0x12, r24	; 18
    4be6:	8f ef       	ldi	r24, 0xFF	; 255
    4be8:	91 ee       	ldi	r25, 0xE1	; 225
    4bea:	a4 e0       	ldi	r26, 0x04	; 4
    4bec:	81 50       	subi	r24, 0x01	; 1
    4bee:	90 40       	sbci	r25, 0x00	; 0
    4bf0:	a0 40       	sbci	r26, 0x00	; 0
    4bf2:	e1 f7       	brne	.-8      	; 0x4bec <__stack+0x438d>
    4bf4:	00 c0       	rjmp	.+0      	; 0x4bf6 <__stack+0x4397>
    4bf6:	00 00       	nop
    4bf8:	bf ef       	ldi	r27, 0xFF	; 255
    4bfa:	c3 ed       	ldi	r28, 0xD3	; 211
    4bfc:	e0 e3       	ldi	r30, 0x30	; 48
    4bfe:	b1 50       	subi	r27, 0x01	; 1
    4c00:	c0 40       	sbci	r28, 0x00	; 0
    4c02:	e0 40       	sbci	r30, 0x00	; 0
    4c04:	e1 f7       	brne	.-8      	; 0x4bfe <__stack+0x439f>
    4c06:	00 c0       	rjmp	.+0      	; 0x4c08 <__stack+0x43a9>
    4c08:	00 00       	nop
    4c0a:	0c 94 2c 3b 	jmp	0x7658	; 0x7658 <__stack+0x6df9>
				break;
			}
		}
		break;
		case 6:
		switch (personNum)
    4c0e:	8c e0       	ldi	r24, 0x0C	; 12
    4c10:	90 e0       	ldi	r25, 0x00	; 0
			case 8:
			{
				/* Rotate Stepper Motor clockwise with Half step sequence */
				for (int i = 0; i < 12; i++)
				{
					PORTD = 0x09;
    4c12:	f9 e0       	ldi	r31, 0x09	; 9
					_delay_ms(period);
					PORTD = 0x08;
    4c14:	e8 e0       	ldi	r30, 0x08	; 8
					_delay_ms(period);
					PORTD = 0x0C;
    4c16:	7c e0       	ldi	r23, 0x0C	; 12
					_delay_ms(period);
					PORTD = 0x04;
    4c18:	64 e0       	ldi	r22, 0x04	; 4
					_delay_ms(period);
					PORTD = 0x06;
    4c1a:	56 e0       	ldi	r21, 0x06	; 6
					_delay_ms(period);
					PORTD = 0x02;
    4c1c:	42 e0       	ldi	r20, 0x02	; 2
					_delay_ms(period);
					PORTD = 0x03;
    4c1e:	33 e0       	ldi	r19, 0x03	; 3
					_delay_ms(period);
					PORTD = 0x01;
    4c20:	21 e0       	ldi	r18, 0x01	; 1
			case 8:
			{
				/* Rotate Stepper Motor clockwise with Half step sequence */
				for (int i = 0; i < 12; i++)
				{
					PORTD = 0x09;
    4c22:	f2 bb       	out	0x12, r31	; 18
    4c24:	af ef       	ldi	r26, 0xFF	; 255
    4c26:	b1 ee       	ldi	r27, 0xE1	; 225
    4c28:	c4 e0       	ldi	r28, 0x04	; 4
    4c2a:	a1 50       	subi	r26, 0x01	; 1
    4c2c:	b0 40       	sbci	r27, 0x00	; 0
    4c2e:	c0 40       	sbci	r28, 0x00	; 0
    4c30:	e1 f7       	brne	.-8      	; 0x4c2a <__stack+0x43cb>
    4c32:	00 c0       	rjmp	.+0      	; 0x4c34 <__stack+0x43d5>
    4c34:	00 00       	nop
					_delay_ms(period);
					PORTD = 0x08;
    4c36:	e2 bb       	out	0x12, r30	; 18
    4c38:	af ef       	ldi	r26, 0xFF	; 255
    4c3a:	b1 ee       	ldi	r27, 0xE1	; 225
    4c3c:	c4 e0       	ldi	r28, 0x04	; 4
    4c3e:	a1 50       	subi	r26, 0x01	; 1
    4c40:	b0 40       	sbci	r27, 0x00	; 0
    4c42:	c0 40       	sbci	r28, 0x00	; 0
    4c44:	e1 f7       	brne	.-8      	; 0x4c3e <__stack+0x43df>
    4c46:	00 c0       	rjmp	.+0      	; 0x4c48 <__stack+0x43e9>
    4c48:	00 00       	nop
					_delay_ms(period);
					PORTD = 0x0C;
    4c4a:	72 bb       	out	0x12, r23	; 18
    4c4c:	af ef       	ldi	r26, 0xFF	; 255
    4c4e:	b1 ee       	ldi	r27, 0xE1	; 225
    4c50:	c4 e0       	ldi	r28, 0x04	; 4
    4c52:	a1 50       	subi	r26, 0x01	; 1
    4c54:	b0 40       	sbci	r27, 0x00	; 0
    4c56:	c0 40       	sbci	r28, 0x00	; 0
    4c58:	e1 f7       	brne	.-8      	; 0x4c52 <__stack+0x43f3>
    4c5a:	00 c0       	rjmp	.+0      	; 0x4c5c <__stack+0x43fd>
    4c5c:	00 00       	nop
					_delay_ms(period);
					PORTD = 0x04;
    4c5e:	62 bb       	out	0x12, r22	; 18
    4c60:	af ef       	ldi	r26, 0xFF	; 255
    4c62:	b1 ee       	ldi	r27, 0xE1	; 225
    4c64:	c4 e0       	ldi	r28, 0x04	; 4
    4c66:	a1 50       	subi	r26, 0x01	; 1
    4c68:	b0 40       	sbci	r27, 0x00	; 0
    4c6a:	c0 40       	sbci	r28, 0x00	; 0
    4c6c:	e1 f7       	brne	.-8      	; 0x4c66 <__stack+0x4407>
    4c6e:	00 c0       	rjmp	.+0      	; 0x4c70 <__stack+0x4411>
    4c70:	00 00       	nop
					_delay_ms(period);
					PORTD = 0x06;
    4c72:	52 bb       	out	0x12, r21	; 18
    4c74:	af ef       	ldi	r26, 0xFF	; 255
    4c76:	b1 ee       	ldi	r27, 0xE1	; 225
    4c78:	c4 e0       	ldi	r28, 0x04	; 4
    4c7a:	a1 50       	subi	r26, 0x01	; 1
    4c7c:	b0 40       	sbci	r27, 0x00	; 0
    4c7e:	c0 40       	sbci	r28, 0x00	; 0
    4c80:	e1 f7       	brne	.-8      	; 0x4c7a <__stack+0x441b>
    4c82:	00 c0       	rjmp	.+0      	; 0x4c84 <__stack+0x4425>
    4c84:	00 00       	nop
					_delay_ms(period);
					PORTD = 0x02;
    4c86:	42 bb       	out	0x12, r20	; 18
    4c88:	af ef       	ldi	r26, 0xFF	; 255
    4c8a:	b1 ee       	ldi	r27, 0xE1	; 225
    4c8c:	c4 e0       	ldi	r28, 0x04	; 4
    4c8e:	a1 50       	subi	r26, 0x01	; 1
    4c90:	b0 40       	sbci	r27, 0x00	; 0
    4c92:	c0 40       	sbci	r28, 0x00	; 0
    4c94:	e1 f7       	brne	.-8      	; 0x4c8e <__stack+0x442f>
    4c96:	00 c0       	rjmp	.+0      	; 0x4c98 <__stack+0x4439>
    4c98:	00 00       	nop
					_delay_ms(period);
					PORTD = 0x03;
    4c9a:	32 bb       	out	0x12, r19	; 18
    4c9c:	af ef       	ldi	r26, 0xFF	; 255
    4c9e:	b1 ee       	ldi	r27, 0xE1	; 225
    4ca0:	c4 e0       	ldi	r28, 0x04	; 4
    4ca2:	a1 50       	subi	r26, 0x01	; 1
    4ca4:	b0 40       	sbci	r27, 0x00	; 0
    4ca6:	c0 40       	sbci	r28, 0x00	; 0
    4ca8:	e1 f7       	brne	.-8      	; 0x4ca2 <__stack+0x4443>
    4caa:	00 c0       	rjmp	.+0      	; 0x4cac <__stack+0x444d>
    4cac:	00 00       	nop
					_delay_ms(period);
					PORTD = 0x01;
    4cae:	22 bb       	out	0x12, r18	; 18
    4cb0:	af ef       	ldi	r26, 0xFF	; 255
    4cb2:	b1 ee       	ldi	r27, 0xE1	; 225
    4cb4:	c4 e0       	ldi	r28, 0x04	; 4
    4cb6:	a1 50       	subi	r26, 0x01	; 1
    4cb8:	b0 40       	sbci	r27, 0x00	; 0
    4cba:	c0 40       	sbci	r28, 0x00	; 0
    4cbc:	e1 f7       	brne	.-8      	; 0x4cb6 <__stack+0x4457>
    4cbe:	00 c0       	rjmp	.+0      	; 0x4cc0 <__stack+0x4461>
    4cc0:	00 00       	nop
    4cc2:	01 97       	sbiw	r24, 0x01	; 1
				break;
			}
			case 8:
			{
				/* Rotate Stepper Motor clockwise with Half step sequence */
				for (int i = 0; i < 12; i++)
    4cc4:	09 f0       	breq	.+2      	; 0x4cc8 <__stack+0x4469>
    4cc6:	ad cf       	rjmp	.-166    	; 0x4c22 <__stack+0x43c3>
					PORTD = 0x03;
					_delay_ms(period);
					PORTD = 0x01;
					_delay_ms(period);
				}
				PORTD = 0x09; /* Last step to initial position */
    4cc8:	89 e0       	ldi	r24, 0x09	; 9
    4cca:	82 bb       	out	0x12, r24	; 18
    4ccc:	ef ef       	ldi	r30, 0xFF	; 255
    4cce:	21 ee       	ldi	r18, 0xE1	; 225
    4cd0:	64 e0       	ldi	r22, 0x04	; 4
    4cd2:	e1 50       	subi	r30, 0x01	; 1
    4cd4:	20 40       	sbci	r18, 0x00	; 0
    4cd6:	60 40       	sbci	r22, 0x00	; 0
    4cd8:	e1 f7       	brne	.-8      	; 0x4cd2 <__stack+0x4473>
    4cda:	00 c0       	rjmp	.+0      	; 0x4cdc <__stack+0x447d>
    4cdc:	00 00       	nop
    4cde:	7f ef       	ldi	r23, 0xFF	; 255
    4ce0:	83 ed       	ldi	r24, 0xD3	; 211
    4ce2:	90 e3       	ldi	r25, 0x30	; 48
    4ce4:	71 50       	subi	r23, 0x01	; 1
    4ce6:	80 40       	sbci	r24, 0x00	; 0
    4ce8:	90 40       	sbci	r25, 0x00	; 0
    4cea:	e1 f7       	brne	.-8      	; 0x4ce4 <__stack+0x4485>
    4cec:	00 c0       	rjmp	.+0      	; 0x4cee <__stack+0x448f>
    4cee:	00 00       	nop
    4cf0:	8c e0       	ldi	r24, 0x0C	; 12
    4cf2:	90 e0       	ldi	r25, 0x00	; 0
				_delay_ms(1000);

				/* Rotate Stepper Motor Anticlockwise with Full step sequence */
				for (int i = 0; i < 12; i++)
				{
					PORTD = 0x09;
    4cf4:	59 e0       	ldi	r21, 0x09	; 9
					_delay_ms(period);
					PORTD = 0x03;
    4cf6:	43 e0       	ldi	r20, 0x03	; 3
					_delay_ms(period);
					PORTD = 0x06;
    4cf8:	36 e0       	ldi	r19, 0x06	; 6
					_delay_ms(period);
					PORTD = 0x0C;
    4cfa:	2c e0       	ldi	r18, 0x0C	; 12
				_delay_ms(1000);

				/* Rotate Stepper Motor Anticlockwise with Full step sequence */
				for (int i = 0; i < 12; i++)
				{
					PORTD = 0x09;
    4cfc:	52 bb       	out	0x12, r21	; 18
    4cfe:	af ef       	ldi	r26, 0xFF	; 255
    4d00:	b1 ee       	ldi	r27, 0xE1	; 225
    4d02:	c4 e0       	ldi	r28, 0x04	; 4
    4d04:	a1 50       	subi	r26, 0x01	; 1
    4d06:	b0 40       	sbci	r27, 0x00	; 0
    4d08:	c0 40       	sbci	r28, 0x00	; 0
    4d0a:	e1 f7       	brne	.-8      	; 0x4d04 <__stack+0x44a5>
    4d0c:	00 c0       	rjmp	.+0      	; 0x4d0e <__stack+0x44af>
    4d0e:	00 00       	nop
					_delay_ms(period);
					PORTD = 0x03;
    4d10:	42 bb       	out	0x12, r20	; 18
    4d12:	ef ef       	ldi	r30, 0xFF	; 255
    4d14:	61 ee       	ldi	r22, 0xE1	; 225
    4d16:	74 e0       	ldi	r23, 0x04	; 4
    4d18:	e1 50       	subi	r30, 0x01	; 1
    4d1a:	60 40       	sbci	r22, 0x00	; 0
    4d1c:	70 40       	sbci	r23, 0x00	; 0
    4d1e:	e1 f7       	brne	.-8      	; 0x4d18 <__stack+0x44b9>
    4d20:	00 c0       	rjmp	.+0      	; 0x4d22 <__stack+0x44c3>
    4d22:	00 00       	nop
					_delay_ms(period);
					PORTD = 0x06;
    4d24:	32 bb       	out	0x12, r19	; 18
    4d26:	af ef       	ldi	r26, 0xFF	; 255
    4d28:	b1 ee       	ldi	r27, 0xE1	; 225
    4d2a:	c4 e0       	ldi	r28, 0x04	; 4
    4d2c:	a1 50       	subi	r26, 0x01	; 1
    4d2e:	b0 40       	sbci	r27, 0x00	; 0
    4d30:	c0 40       	sbci	r28, 0x00	; 0
    4d32:	e1 f7       	brne	.-8      	; 0x4d2c <__stack+0x44cd>
    4d34:	00 c0       	rjmp	.+0      	; 0x4d36 <__stack+0x44d7>
    4d36:	00 00       	nop
					_delay_ms(period);
					PORTD = 0x0C;
    4d38:	22 bb       	out	0x12, r18	; 18
    4d3a:	ef ef       	ldi	r30, 0xFF	; 255
    4d3c:	61 ee       	ldi	r22, 0xE1	; 225
    4d3e:	74 e0       	ldi	r23, 0x04	; 4
    4d40:	e1 50       	subi	r30, 0x01	; 1
    4d42:	60 40       	sbci	r22, 0x00	; 0
    4d44:	70 40       	sbci	r23, 0x00	; 0
    4d46:	e1 f7       	brne	.-8      	; 0x4d40 <__stack+0x44e1>
    4d48:	00 c0       	rjmp	.+0      	; 0x4d4a <__stack+0x44eb>
    4d4a:	00 00       	nop
    4d4c:	01 97       	sbiw	r24, 0x01	; 1
				PORTD = 0x09; /* Last step to initial position */
				_delay_ms(period);
				_delay_ms(1000);

				/* Rotate Stepper Motor Anticlockwise with Full step sequence */
				for (int i = 0; i < 12; i++)
    4d4e:	b1 f6       	brne	.-84     	; 0x4cfc <__stack+0x449d>
					PORTD = 0x06;
					_delay_ms(period);
					PORTD = 0x0C;
					_delay_ms(period);
				}
				PORTD = 0x09;
    4d50:	89 e0       	ldi	r24, 0x09	; 9
    4d52:	82 bb       	out	0x12, r24	; 18
    4d54:	8f ef       	ldi	r24, 0xFF	; 255
    4d56:	91 ee       	ldi	r25, 0xE1	; 225
    4d58:	a4 e0       	ldi	r26, 0x04	; 4
    4d5a:	81 50       	subi	r24, 0x01	; 1
    4d5c:	90 40       	sbci	r25, 0x00	; 0
    4d5e:	a0 40       	sbci	r26, 0x00	; 0
    4d60:	e1 f7       	brne	.-8      	; 0x4d5a <__stack+0x44fb>
    4d62:	00 c0       	rjmp	.+0      	; 0x4d64 <__stack+0x4505>
    4d64:	00 00       	nop
    4d66:	bf ef       	ldi	r27, 0xFF	; 255
    4d68:	c3 ed       	ldi	r28, 0xD3	; 211
    4d6a:	e0 e3       	ldi	r30, 0x30	; 48
    4d6c:	b1 50       	subi	r27, 0x01	; 1
    4d6e:	c0 40       	sbci	r28, 0x00	; 0
    4d70:	e0 40       	sbci	r30, 0x00	; 0
    4d72:	e1 f7       	brne	.-8      	; 0x4d6c <__stack+0x450d>
    4d74:	00 c0       	rjmp	.+0      	; 0x4d76 <__stack+0x4517>
    4d76:	00 00       	nop
    4d78:	0c 94 2c 3b 	jmp	0x7658	; 0x7658 <__stack+0x6df9>
				break;
			}
		}
		break;
		case 6:
		switch (personNum)
    4d7c:	8c e0       	ldi	r24, 0x0C	; 12
    4d7e:	90 e0       	ldi	r25, 0x00	; 0
			case 9:
			{
				/* Rotate Stepper Motor clockwise with Half step sequence */
				for (int i = 0; i < 12; i++)
				{
					PORTD = 0x09;
    4d80:	f9 e0       	ldi	r31, 0x09	; 9
					_delay_ms(period);
					PORTD = 0x08;
    4d82:	e8 e0       	ldi	r30, 0x08	; 8
					_delay_ms(period);
					PORTD = 0x0C;
    4d84:	7c e0       	ldi	r23, 0x0C	; 12
					_delay_ms(period);
					PORTD = 0x04;
    4d86:	64 e0       	ldi	r22, 0x04	; 4
					_delay_ms(period);
					PORTD = 0x06;
    4d88:	56 e0       	ldi	r21, 0x06	; 6
					_delay_ms(period);
					PORTD = 0x02;
    4d8a:	42 e0       	ldi	r20, 0x02	; 2
					_delay_ms(period);
					PORTD = 0x03;
    4d8c:	33 e0       	ldi	r19, 0x03	; 3
					_delay_ms(period);
					PORTD = 0x01;
    4d8e:	21 e0       	ldi	r18, 0x01	; 1
			case 9:
			{
				/* Rotate Stepper Motor clockwise with Half step sequence */
				for (int i = 0; i < 12; i++)
				{
					PORTD = 0x09;
    4d90:	f2 bb       	out	0x12, r31	; 18
    4d92:	af ef       	ldi	r26, 0xFF	; 255
    4d94:	b1 ee       	ldi	r27, 0xE1	; 225
    4d96:	c4 e0       	ldi	r28, 0x04	; 4
    4d98:	a1 50       	subi	r26, 0x01	; 1
    4d9a:	b0 40       	sbci	r27, 0x00	; 0
    4d9c:	c0 40       	sbci	r28, 0x00	; 0
    4d9e:	e1 f7       	brne	.-8      	; 0x4d98 <__stack+0x4539>
    4da0:	00 c0       	rjmp	.+0      	; 0x4da2 <__stack+0x4543>
    4da2:	00 00       	nop
					_delay_ms(period);
					PORTD = 0x08;
    4da4:	e2 bb       	out	0x12, r30	; 18
    4da6:	af ef       	ldi	r26, 0xFF	; 255
    4da8:	b1 ee       	ldi	r27, 0xE1	; 225
    4daa:	c4 e0       	ldi	r28, 0x04	; 4
    4dac:	a1 50       	subi	r26, 0x01	; 1
    4dae:	b0 40       	sbci	r27, 0x00	; 0
    4db0:	c0 40       	sbci	r28, 0x00	; 0
    4db2:	e1 f7       	brne	.-8      	; 0x4dac <__stack+0x454d>
    4db4:	00 c0       	rjmp	.+0      	; 0x4db6 <__stack+0x4557>
    4db6:	00 00       	nop
					_delay_ms(period);
					PORTD = 0x0C;
    4db8:	72 bb       	out	0x12, r23	; 18
    4dba:	af ef       	ldi	r26, 0xFF	; 255
    4dbc:	b1 ee       	ldi	r27, 0xE1	; 225
    4dbe:	c4 e0       	ldi	r28, 0x04	; 4
    4dc0:	a1 50       	subi	r26, 0x01	; 1
    4dc2:	b0 40       	sbci	r27, 0x00	; 0
    4dc4:	c0 40       	sbci	r28, 0x00	; 0
    4dc6:	e1 f7       	brne	.-8      	; 0x4dc0 <__stack+0x4561>
    4dc8:	00 c0       	rjmp	.+0      	; 0x4dca <__stack+0x456b>
    4dca:	00 00       	nop
					_delay_ms(period);
					PORTD = 0x04;
    4dcc:	62 bb       	out	0x12, r22	; 18
    4dce:	af ef       	ldi	r26, 0xFF	; 255
    4dd0:	b1 ee       	ldi	r27, 0xE1	; 225
    4dd2:	c4 e0       	ldi	r28, 0x04	; 4
    4dd4:	a1 50       	subi	r26, 0x01	; 1
    4dd6:	b0 40       	sbci	r27, 0x00	; 0
    4dd8:	c0 40       	sbci	r28, 0x00	; 0
    4dda:	e1 f7       	brne	.-8      	; 0x4dd4 <__stack+0x4575>
    4ddc:	00 c0       	rjmp	.+0      	; 0x4dde <__stack+0x457f>
    4dde:	00 00       	nop
					_delay_ms(period);
					PORTD = 0x06;
    4de0:	52 bb       	out	0x12, r21	; 18
    4de2:	af ef       	ldi	r26, 0xFF	; 255
    4de4:	b1 ee       	ldi	r27, 0xE1	; 225
    4de6:	c4 e0       	ldi	r28, 0x04	; 4
    4de8:	a1 50       	subi	r26, 0x01	; 1
    4dea:	b0 40       	sbci	r27, 0x00	; 0
    4dec:	c0 40       	sbci	r28, 0x00	; 0
    4dee:	e1 f7       	brne	.-8      	; 0x4de8 <__stack+0x4589>
    4df0:	00 c0       	rjmp	.+0      	; 0x4df2 <__stack+0x4593>
    4df2:	00 00       	nop
					_delay_ms(period);
					PORTD = 0x02;
    4df4:	42 bb       	out	0x12, r20	; 18
    4df6:	af ef       	ldi	r26, 0xFF	; 255
    4df8:	b1 ee       	ldi	r27, 0xE1	; 225
    4dfa:	c4 e0       	ldi	r28, 0x04	; 4
    4dfc:	a1 50       	subi	r26, 0x01	; 1
    4dfe:	b0 40       	sbci	r27, 0x00	; 0
    4e00:	c0 40       	sbci	r28, 0x00	; 0
    4e02:	e1 f7       	brne	.-8      	; 0x4dfc <__stack+0x459d>
    4e04:	00 c0       	rjmp	.+0      	; 0x4e06 <__stack+0x45a7>
    4e06:	00 00       	nop
					_delay_ms(period);
					PORTD = 0x03;
    4e08:	32 bb       	out	0x12, r19	; 18
    4e0a:	af ef       	ldi	r26, 0xFF	; 255
    4e0c:	b1 ee       	ldi	r27, 0xE1	; 225
    4e0e:	c4 e0       	ldi	r28, 0x04	; 4
    4e10:	a1 50       	subi	r26, 0x01	; 1
    4e12:	b0 40       	sbci	r27, 0x00	; 0
    4e14:	c0 40       	sbci	r28, 0x00	; 0
    4e16:	e1 f7       	brne	.-8      	; 0x4e10 <__stack+0x45b1>
    4e18:	00 c0       	rjmp	.+0      	; 0x4e1a <__stack+0x45bb>
    4e1a:	00 00       	nop
					_delay_ms(period);
					PORTD = 0x01;
    4e1c:	22 bb       	out	0x12, r18	; 18
    4e1e:	af ef       	ldi	r26, 0xFF	; 255
    4e20:	b1 ee       	ldi	r27, 0xE1	; 225
    4e22:	c4 e0       	ldi	r28, 0x04	; 4
    4e24:	a1 50       	subi	r26, 0x01	; 1
    4e26:	b0 40       	sbci	r27, 0x00	; 0
    4e28:	c0 40       	sbci	r28, 0x00	; 0
    4e2a:	e1 f7       	brne	.-8      	; 0x4e24 <__stack+0x45c5>
    4e2c:	00 c0       	rjmp	.+0      	; 0x4e2e <__stack+0x45cf>
    4e2e:	00 00       	nop
    4e30:	01 97       	sbiw	r24, 0x01	; 1
				break;
			}
			case 9:
			{
				/* Rotate Stepper Motor clockwise with Half step sequence */
				for (int i = 0; i < 12; i++)
    4e32:	09 f0       	breq	.+2      	; 0x4e36 <__stack+0x45d7>
    4e34:	ad cf       	rjmp	.-166    	; 0x4d90 <__stack+0x4531>
					PORTD = 0x03;
					_delay_ms(period);
					PORTD = 0x01;
					_delay_ms(period);
				}
				PORTD = 0x09; /* Last step to initial position */
    4e36:	89 e0       	ldi	r24, 0x09	; 9
    4e38:	82 bb       	out	0x12, r24	; 18
    4e3a:	ef ef       	ldi	r30, 0xFF	; 255
    4e3c:	21 ee       	ldi	r18, 0xE1	; 225
    4e3e:	64 e0       	ldi	r22, 0x04	; 4
    4e40:	e1 50       	subi	r30, 0x01	; 1
    4e42:	20 40       	sbci	r18, 0x00	; 0
    4e44:	60 40       	sbci	r22, 0x00	; 0
    4e46:	e1 f7       	brne	.-8      	; 0x4e40 <__stack+0x45e1>
    4e48:	00 c0       	rjmp	.+0      	; 0x4e4a <__stack+0x45eb>
    4e4a:	00 00       	nop
    4e4c:	7f ef       	ldi	r23, 0xFF	; 255
    4e4e:	83 ed       	ldi	r24, 0xD3	; 211
    4e50:	90 e3       	ldi	r25, 0x30	; 48
    4e52:	71 50       	subi	r23, 0x01	; 1
    4e54:	80 40       	sbci	r24, 0x00	; 0
    4e56:	90 40       	sbci	r25, 0x00	; 0
    4e58:	e1 f7       	brne	.-8      	; 0x4e52 <__stack+0x45f3>
    4e5a:	00 c0       	rjmp	.+0      	; 0x4e5c <__stack+0x45fd>
    4e5c:	00 00       	nop
    4e5e:	8c e0       	ldi	r24, 0x0C	; 12
    4e60:	90 e0       	ldi	r25, 0x00	; 0
				_delay_ms(1000);

				/* Rotate Stepper Motor Anticlockwise with Full step sequence */
				for (int i = 0; i < 12; i++)
				{
					PORTD = 0x09;
    4e62:	59 e0       	ldi	r21, 0x09	; 9
					_delay_ms(period);
					PORTD = 0x03;
    4e64:	43 e0       	ldi	r20, 0x03	; 3
					_delay_ms(period);
					PORTD = 0x06;
    4e66:	36 e0       	ldi	r19, 0x06	; 6
					_delay_ms(period);
					PORTD = 0x0C;
    4e68:	2c e0       	ldi	r18, 0x0C	; 12
				_delay_ms(1000);

				/* Rotate Stepper Motor Anticlockwise with Full step sequence */
				for (int i = 0; i < 12; i++)
				{
					PORTD = 0x09;
    4e6a:	52 bb       	out	0x12, r21	; 18
    4e6c:	af ef       	ldi	r26, 0xFF	; 255
    4e6e:	b1 ee       	ldi	r27, 0xE1	; 225
    4e70:	c4 e0       	ldi	r28, 0x04	; 4
    4e72:	a1 50       	subi	r26, 0x01	; 1
    4e74:	b0 40       	sbci	r27, 0x00	; 0
    4e76:	c0 40       	sbci	r28, 0x00	; 0
    4e78:	e1 f7       	brne	.-8      	; 0x4e72 <__stack+0x4613>
    4e7a:	00 c0       	rjmp	.+0      	; 0x4e7c <__stack+0x461d>
    4e7c:	00 00       	nop
					_delay_ms(period);
					PORTD = 0x03;
    4e7e:	42 bb       	out	0x12, r20	; 18
    4e80:	ef ef       	ldi	r30, 0xFF	; 255
    4e82:	61 ee       	ldi	r22, 0xE1	; 225
    4e84:	74 e0       	ldi	r23, 0x04	; 4
    4e86:	e1 50       	subi	r30, 0x01	; 1
    4e88:	60 40       	sbci	r22, 0x00	; 0
    4e8a:	70 40       	sbci	r23, 0x00	; 0
    4e8c:	e1 f7       	brne	.-8      	; 0x4e86 <__stack+0x4627>
    4e8e:	00 c0       	rjmp	.+0      	; 0x4e90 <__stack+0x4631>
    4e90:	00 00       	nop
					_delay_ms(period);
					PORTD = 0x06;
    4e92:	32 bb       	out	0x12, r19	; 18
    4e94:	af ef       	ldi	r26, 0xFF	; 255
    4e96:	b1 ee       	ldi	r27, 0xE1	; 225
    4e98:	c4 e0       	ldi	r28, 0x04	; 4
    4e9a:	a1 50       	subi	r26, 0x01	; 1
    4e9c:	b0 40       	sbci	r27, 0x00	; 0
    4e9e:	c0 40       	sbci	r28, 0x00	; 0
    4ea0:	e1 f7       	brne	.-8      	; 0x4e9a <__stack+0x463b>
    4ea2:	00 c0       	rjmp	.+0      	; 0x4ea4 <__stack+0x4645>
    4ea4:	00 00       	nop
					_delay_ms(period);
					PORTD = 0x0C;
    4ea6:	22 bb       	out	0x12, r18	; 18
    4ea8:	ef ef       	ldi	r30, 0xFF	; 255
    4eaa:	61 ee       	ldi	r22, 0xE1	; 225
    4eac:	74 e0       	ldi	r23, 0x04	; 4
    4eae:	e1 50       	subi	r30, 0x01	; 1
    4eb0:	60 40       	sbci	r22, 0x00	; 0
    4eb2:	70 40       	sbci	r23, 0x00	; 0
    4eb4:	e1 f7       	brne	.-8      	; 0x4eae <__stack+0x464f>
    4eb6:	00 c0       	rjmp	.+0      	; 0x4eb8 <__stack+0x4659>
    4eb8:	00 00       	nop
    4eba:	01 97       	sbiw	r24, 0x01	; 1
				PORTD = 0x09; /* Last step to initial position */
				_delay_ms(period);
				_delay_ms(1000);

				/* Rotate Stepper Motor Anticlockwise with Full step sequence */
				for (int i = 0; i < 12; i++)
    4ebc:	b1 f6       	brne	.-84     	; 0x4e6a <__stack+0x460b>
					PORTD = 0x06;
					_delay_ms(period);
					PORTD = 0x0C;
					_delay_ms(period);
				}
				PORTD = 0x09;
    4ebe:	89 e0       	ldi	r24, 0x09	; 9
    4ec0:	82 bb       	out	0x12, r24	; 18
    4ec2:	8f ef       	ldi	r24, 0xFF	; 255
    4ec4:	91 ee       	ldi	r25, 0xE1	; 225
    4ec6:	a4 e0       	ldi	r26, 0x04	; 4
    4ec8:	81 50       	subi	r24, 0x01	; 1
    4eca:	90 40       	sbci	r25, 0x00	; 0
    4ecc:	a0 40       	sbci	r26, 0x00	; 0
    4ece:	e1 f7       	brne	.-8      	; 0x4ec8 <__stack+0x4669>
    4ed0:	00 c0       	rjmp	.+0      	; 0x4ed2 <__stack+0x4673>
    4ed2:	00 00       	nop
    4ed4:	bf ef       	ldi	r27, 0xFF	; 255
    4ed6:	c3 ed       	ldi	r28, 0xD3	; 211
    4ed8:	e0 e3       	ldi	r30, 0x30	; 48
    4eda:	b1 50       	subi	r27, 0x01	; 1
    4edc:	c0 40       	sbci	r28, 0x00	; 0
    4ede:	e0 40       	sbci	r30, 0x00	; 0
    4ee0:	e1 f7       	brne	.-8      	; 0x4eda <__stack+0x467b>
    4ee2:	00 c0       	rjmp	.+0      	; 0x4ee4 <__stack+0x4685>
    4ee4:	00 00       	nop
    4ee6:	0c 94 2c 3b 	jmp	0x7658	; 0x7658 <__stack+0x6df9>
				break;
			}
		}
		break;
		case 7:
		switch (personNum)
    4eea:	8c e0       	ldi	r24, 0x0C	; 12
    4eec:	90 e0       	ldi	r25, 0x00	; 0
			case 1:
			{
				/* Rotate Stepper Motor clockwise with Half step sequence */
				for (int i = 0; i < 12; i++)
				{
					PORTD = 0x09;
    4eee:	f9 e0       	ldi	r31, 0x09	; 9
					_delay_ms(period);
					PORTD = 0x08;
    4ef0:	e8 e0       	ldi	r30, 0x08	; 8
					_delay_ms(period);
					PORTD = 0x0C;
    4ef2:	7c e0       	ldi	r23, 0x0C	; 12
					_delay_ms(period);
					PORTD = 0x04;
    4ef4:	64 e0       	ldi	r22, 0x04	; 4
					_delay_ms(period);
					PORTD = 0x06;
    4ef6:	56 e0       	ldi	r21, 0x06	; 6
					_delay_ms(period);
					PORTD = 0x02;
    4ef8:	42 e0       	ldi	r20, 0x02	; 2
					_delay_ms(period);
					PORTD = 0x03;
    4efa:	33 e0       	ldi	r19, 0x03	; 3
					_delay_ms(period);
					PORTD = 0x01;
    4efc:	21 e0       	ldi	r18, 0x01	; 1
			case 1:
			{
				/* Rotate Stepper Motor clockwise with Half step sequence */
				for (int i = 0; i < 12; i++)
				{
					PORTD = 0x09;
    4efe:	f2 bb       	out	0x12, r31	; 18
    4f00:	af ef       	ldi	r26, 0xFF	; 255
    4f02:	b1 ee       	ldi	r27, 0xE1	; 225
    4f04:	c4 e0       	ldi	r28, 0x04	; 4
    4f06:	a1 50       	subi	r26, 0x01	; 1
    4f08:	b0 40       	sbci	r27, 0x00	; 0
    4f0a:	c0 40       	sbci	r28, 0x00	; 0
    4f0c:	e1 f7       	brne	.-8      	; 0x4f06 <__stack+0x46a7>
    4f0e:	00 c0       	rjmp	.+0      	; 0x4f10 <__stack+0x46b1>
    4f10:	00 00       	nop
					_delay_ms(period);
					PORTD = 0x08;
    4f12:	e2 bb       	out	0x12, r30	; 18
    4f14:	af ef       	ldi	r26, 0xFF	; 255
    4f16:	b1 ee       	ldi	r27, 0xE1	; 225
    4f18:	c4 e0       	ldi	r28, 0x04	; 4
    4f1a:	a1 50       	subi	r26, 0x01	; 1
    4f1c:	b0 40       	sbci	r27, 0x00	; 0
    4f1e:	c0 40       	sbci	r28, 0x00	; 0
    4f20:	e1 f7       	brne	.-8      	; 0x4f1a <__stack+0x46bb>
    4f22:	00 c0       	rjmp	.+0      	; 0x4f24 <__stack+0x46c5>
    4f24:	00 00       	nop
					_delay_ms(period);
					PORTD = 0x0C;
    4f26:	72 bb       	out	0x12, r23	; 18
    4f28:	af ef       	ldi	r26, 0xFF	; 255
    4f2a:	b1 ee       	ldi	r27, 0xE1	; 225
    4f2c:	c4 e0       	ldi	r28, 0x04	; 4
    4f2e:	a1 50       	subi	r26, 0x01	; 1
    4f30:	b0 40       	sbci	r27, 0x00	; 0
    4f32:	c0 40       	sbci	r28, 0x00	; 0
    4f34:	e1 f7       	brne	.-8      	; 0x4f2e <__stack+0x46cf>
    4f36:	00 c0       	rjmp	.+0      	; 0x4f38 <__stack+0x46d9>
    4f38:	00 00       	nop
					_delay_ms(period);
					PORTD = 0x04;
    4f3a:	62 bb       	out	0x12, r22	; 18
    4f3c:	af ef       	ldi	r26, 0xFF	; 255
    4f3e:	b1 ee       	ldi	r27, 0xE1	; 225
    4f40:	c4 e0       	ldi	r28, 0x04	; 4
    4f42:	a1 50       	subi	r26, 0x01	; 1
    4f44:	b0 40       	sbci	r27, 0x00	; 0
    4f46:	c0 40       	sbci	r28, 0x00	; 0
    4f48:	e1 f7       	brne	.-8      	; 0x4f42 <__stack+0x46e3>
    4f4a:	00 c0       	rjmp	.+0      	; 0x4f4c <__stack+0x46ed>
    4f4c:	00 00       	nop
					_delay_ms(period);
					PORTD = 0x06;
    4f4e:	52 bb       	out	0x12, r21	; 18
    4f50:	af ef       	ldi	r26, 0xFF	; 255
    4f52:	b1 ee       	ldi	r27, 0xE1	; 225
    4f54:	c4 e0       	ldi	r28, 0x04	; 4
    4f56:	a1 50       	subi	r26, 0x01	; 1
    4f58:	b0 40       	sbci	r27, 0x00	; 0
    4f5a:	c0 40       	sbci	r28, 0x00	; 0
    4f5c:	e1 f7       	brne	.-8      	; 0x4f56 <__stack+0x46f7>
    4f5e:	00 c0       	rjmp	.+0      	; 0x4f60 <__stack+0x4701>
    4f60:	00 00       	nop
					_delay_ms(period);
					PORTD = 0x02;
    4f62:	42 bb       	out	0x12, r20	; 18
    4f64:	af ef       	ldi	r26, 0xFF	; 255
    4f66:	b1 ee       	ldi	r27, 0xE1	; 225
    4f68:	c4 e0       	ldi	r28, 0x04	; 4
    4f6a:	a1 50       	subi	r26, 0x01	; 1
    4f6c:	b0 40       	sbci	r27, 0x00	; 0
    4f6e:	c0 40       	sbci	r28, 0x00	; 0
    4f70:	e1 f7       	brne	.-8      	; 0x4f6a <__stack+0x470b>
    4f72:	00 c0       	rjmp	.+0      	; 0x4f74 <__stack+0x4715>
    4f74:	00 00       	nop
					_delay_ms(period);
					PORTD = 0x03;
    4f76:	32 bb       	out	0x12, r19	; 18
    4f78:	af ef       	ldi	r26, 0xFF	; 255
    4f7a:	b1 ee       	ldi	r27, 0xE1	; 225
    4f7c:	c4 e0       	ldi	r28, 0x04	; 4
    4f7e:	a1 50       	subi	r26, 0x01	; 1
    4f80:	b0 40       	sbci	r27, 0x00	; 0
    4f82:	c0 40       	sbci	r28, 0x00	; 0
    4f84:	e1 f7       	brne	.-8      	; 0x4f7e <__stack+0x471f>
    4f86:	00 c0       	rjmp	.+0      	; 0x4f88 <__stack+0x4729>
    4f88:	00 00       	nop
					_delay_ms(period);
					PORTD = 0x01;
    4f8a:	22 bb       	out	0x12, r18	; 18
    4f8c:	af ef       	ldi	r26, 0xFF	; 255
    4f8e:	b1 ee       	ldi	r27, 0xE1	; 225
    4f90:	c4 e0       	ldi	r28, 0x04	; 4
    4f92:	a1 50       	subi	r26, 0x01	; 1
    4f94:	b0 40       	sbci	r27, 0x00	; 0
    4f96:	c0 40       	sbci	r28, 0x00	; 0
    4f98:	e1 f7       	brne	.-8      	; 0x4f92 <__stack+0x4733>
    4f9a:	00 c0       	rjmp	.+0      	; 0x4f9c <__stack+0x473d>
    4f9c:	00 00       	nop
    4f9e:	01 97       	sbiw	r24, 0x01	; 1
		switch (personNum)
		{
			case 1:
			{
				/* Rotate Stepper Motor clockwise with Half step sequence */
				for (int i = 0; i < 12; i++)
    4fa0:	09 f0       	breq	.+2      	; 0x4fa4 <__stack+0x4745>
    4fa2:	ad cf       	rjmp	.-166    	; 0x4efe <__stack+0x469f>
					PORTD = 0x03;
					_delay_ms(period);
					PORTD = 0x01;
					_delay_ms(period);
				}
				PORTD = 0x09; /* Last step to initial position */
    4fa4:	89 e0       	ldi	r24, 0x09	; 9
    4fa6:	82 bb       	out	0x12, r24	; 18
    4fa8:	ef ef       	ldi	r30, 0xFF	; 255
    4faa:	21 ee       	ldi	r18, 0xE1	; 225
    4fac:	64 e0       	ldi	r22, 0x04	; 4
    4fae:	e1 50       	subi	r30, 0x01	; 1
    4fb0:	20 40       	sbci	r18, 0x00	; 0
    4fb2:	60 40       	sbci	r22, 0x00	; 0
    4fb4:	e1 f7       	brne	.-8      	; 0x4fae <__stack+0x474f>
    4fb6:	00 c0       	rjmp	.+0      	; 0x4fb8 <__stack+0x4759>
    4fb8:	00 00       	nop
    4fba:	7f ef       	ldi	r23, 0xFF	; 255
    4fbc:	83 ed       	ldi	r24, 0xD3	; 211
    4fbe:	90 e3       	ldi	r25, 0x30	; 48
    4fc0:	71 50       	subi	r23, 0x01	; 1
    4fc2:	80 40       	sbci	r24, 0x00	; 0
    4fc4:	90 40       	sbci	r25, 0x00	; 0
    4fc6:	e1 f7       	brne	.-8      	; 0x4fc0 <__stack+0x4761>
    4fc8:	00 c0       	rjmp	.+0      	; 0x4fca <__stack+0x476b>
    4fca:	00 00       	nop
    4fcc:	8c e0       	ldi	r24, 0x0C	; 12
    4fce:	90 e0       	ldi	r25, 0x00	; 0
				_delay_ms(1000);

				/* Rotate Stepper Motor Anticlockwise with Full step sequence */
				for (int i = 0; i < 12; i++)
				{
					PORTD = 0x09;
    4fd0:	59 e0       	ldi	r21, 0x09	; 9
					_delay_ms(period);
					PORTD = 0x03;
    4fd2:	43 e0       	ldi	r20, 0x03	; 3
					_delay_ms(period);
					PORTD = 0x06;
    4fd4:	36 e0       	ldi	r19, 0x06	; 6
					_delay_ms(period);
					PORTD = 0x0C;
    4fd6:	2c e0       	ldi	r18, 0x0C	; 12
				_delay_ms(1000);

				/* Rotate Stepper Motor Anticlockwise with Full step sequence */
				for (int i = 0; i < 12; i++)
				{
					PORTD = 0x09;
    4fd8:	52 bb       	out	0x12, r21	; 18
    4fda:	af ef       	ldi	r26, 0xFF	; 255
    4fdc:	b1 ee       	ldi	r27, 0xE1	; 225
    4fde:	c4 e0       	ldi	r28, 0x04	; 4
    4fe0:	a1 50       	subi	r26, 0x01	; 1
    4fe2:	b0 40       	sbci	r27, 0x00	; 0
    4fe4:	c0 40       	sbci	r28, 0x00	; 0
    4fe6:	e1 f7       	brne	.-8      	; 0x4fe0 <__stack+0x4781>
    4fe8:	00 c0       	rjmp	.+0      	; 0x4fea <__stack+0x478b>
    4fea:	00 00       	nop
					_delay_ms(period);
					PORTD = 0x03;
    4fec:	42 bb       	out	0x12, r20	; 18
    4fee:	ef ef       	ldi	r30, 0xFF	; 255
    4ff0:	61 ee       	ldi	r22, 0xE1	; 225
    4ff2:	74 e0       	ldi	r23, 0x04	; 4
    4ff4:	e1 50       	subi	r30, 0x01	; 1
    4ff6:	60 40       	sbci	r22, 0x00	; 0
    4ff8:	70 40       	sbci	r23, 0x00	; 0
    4ffa:	e1 f7       	brne	.-8      	; 0x4ff4 <__stack+0x4795>
    4ffc:	00 c0       	rjmp	.+0      	; 0x4ffe <__stack+0x479f>
    4ffe:	00 00       	nop
					_delay_ms(period);
					PORTD = 0x06;
    5000:	32 bb       	out	0x12, r19	; 18
    5002:	af ef       	ldi	r26, 0xFF	; 255
    5004:	b1 ee       	ldi	r27, 0xE1	; 225
    5006:	c4 e0       	ldi	r28, 0x04	; 4
    5008:	a1 50       	subi	r26, 0x01	; 1
    500a:	b0 40       	sbci	r27, 0x00	; 0
    500c:	c0 40       	sbci	r28, 0x00	; 0
    500e:	e1 f7       	brne	.-8      	; 0x5008 <__stack+0x47a9>
    5010:	00 c0       	rjmp	.+0      	; 0x5012 <__stack+0x47b3>
    5012:	00 00       	nop
					_delay_ms(period);
					PORTD = 0x0C;
    5014:	22 bb       	out	0x12, r18	; 18
    5016:	ef ef       	ldi	r30, 0xFF	; 255
    5018:	61 ee       	ldi	r22, 0xE1	; 225
    501a:	74 e0       	ldi	r23, 0x04	; 4
    501c:	e1 50       	subi	r30, 0x01	; 1
    501e:	60 40       	sbci	r22, 0x00	; 0
    5020:	70 40       	sbci	r23, 0x00	; 0
    5022:	e1 f7       	brne	.-8      	; 0x501c <__stack+0x47bd>
    5024:	00 c0       	rjmp	.+0      	; 0x5026 <__stack+0x47c7>
    5026:	00 00       	nop
    5028:	01 97       	sbiw	r24, 0x01	; 1
				PORTD = 0x09; /* Last step to initial position */
				_delay_ms(period);
				_delay_ms(1000);

				/* Rotate Stepper Motor Anticlockwise with Full step sequence */
				for (int i = 0; i < 12; i++)
    502a:	b1 f6       	brne	.-84     	; 0x4fd8 <__stack+0x4779>
					PORTD = 0x06;
					_delay_ms(period);
					PORTD = 0x0C;
					_delay_ms(period);
				}
				PORTD = 0x09;
    502c:	89 e0       	ldi	r24, 0x09	; 9
    502e:	82 bb       	out	0x12, r24	; 18
    5030:	8f ef       	ldi	r24, 0xFF	; 255
    5032:	91 ee       	ldi	r25, 0xE1	; 225
    5034:	a4 e0       	ldi	r26, 0x04	; 4
    5036:	81 50       	subi	r24, 0x01	; 1
    5038:	90 40       	sbci	r25, 0x00	; 0
    503a:	a0 40       	sbci	r26, 0x00	; 0
    503c:	e1 f7       	brne	.-8      	; 0x5036 <__stack+0x47d7>
    503e:	00 c0       	rjmp	.+0      	; 0x5040 <__stack+0x47e1>
    5040:	00 00       	nop
    5042:	bf ef       	ldi	r27, 0xFF	; 255
    5044:	c3 ed       	ldi	r28, 0xD3	; 211
    5046:	e0 e3       	ldi	r30, 0x30	; 48
    5048:	b1 50       	subi	r27, 0x01	; 1
    504a:	c0 40       	sbci	r28, 0x00	; 0
    504c:	e0 40       	sbci	r30, 0x00	; 0
    504e:	e1 f7       	brne	.-8      	; 0x5048 <__stack+0x47e9>
    5050:	00 c0       	rjmp	.+0      	; 0x5052 <__stack+0x47f3>
    5052:	00 00       	nop
    5054:	0c 94 2c 3b 	jmp	0x7658	; 0x7658 <__stack+0x6df9>
				break;
			}
		}
		break;
		case 7:
		switch (personNum)
    5058:	8c e0       	ldi	r24, 0x0C	; 12
    505a:	90 e0       	ldi	r25, 0x00	; 0
			case 2:
			{
				/* Rotate Stepper Motor clockwise with Half step sequence */
				for (int i = 0; i < 12; i++)
				{
					PORTD = 0x09;
    505c:	f9 e0       	ldi	r31, 0x09	; 9
					_delay_ms(period);
					PORTD = 0x08;
    505e:	e8 e0       	ldi	r30, 0x08	; 8
					_delay_ms(period);
					PORTD = 0x0C;
    5060:	7c e0       	ldi	r23, 0x0C	; 12
					_delay_ms(period);
					PORTD = 0x04;
    5062:	64 e0       	ldi	r22, 0x04	; 4
					_delay_ms(period);
					PORTD = 0x06;
    5064:	56 e0       	ldi	r21, 0x06	; 6
					_delay_ms(period);
					PORTD = 0x02;
    5066:	42 e0       	ldi	r20, 0x02	; 2
					_delay_ms(period);
					PORTD = 0x03;
    5068:	33 e0       	ldi	r19, 0x03	; 3
					_delay_ms(period);
					PORTD = 0x01;
    506a:	21 e0       	ldi	r18, 0x01	; 1
			case 2:
			{
				/* Rotate Stepper Motor clockwise with Half step sequence */
				for (int i = 0; i < 12; i++)
				{
					PORTD = 0x09;
    506c:	f2 bb       	out	0x12, r31	; 18
    506e:	af ef       	ldi	r26, 0xFF	; 255
    5070:	b1 ee       	ldi	r27, 0xE1	; 225
    5072:	c4 e0       	ldi	r28, 0x04	; 4
    5074:	a1 50       	subi	r26, 0x01	; 1
    5076:	b0 40       	sbci	r27, 0x00	; 0
    5078:	c0 40       	sbci	r28, 0x00	; 0
    507a:	e1 f7       	brne	.-8      	; 0x5074 <__stack+0x4815>
    507c:	00 c0       	rjmp	.+0      	; 0x507e <__stack+0x481f>
    507e:	00 00       	nop
					_delay_ms(period);
					PORTD = 0x08;
    5080:	e2 bb       	out	0x12, r30	; 18
    5082:	af ef       	ldi	r26, 0xFF	; 255
    5084:	b1 ee       	ldi	r27, 0xE1	; 225
    5086:	c4 e0       	ldi	r28, 0x04	; 4
    5088:	a1 50       	subi	r26, 0x01	; 1
    508a:	b0 40       	sbci	r27, 0x00	; 0
    508c:	c0 40       	sbci	r28, 0x00	; 0
    508e:	e1 f7       	brne	.-8      	; 0x5088 <__stack+0x4829>
    5090:	00 c0       	rjmp	.+0      	; 0x5092 <__stack+0x4833>
    5092:	00 00       	nop
					_delay_ms(period);
					PORTD = 0x0C;
    5094:	72 bb       	out	0x12, r23	; 18
    5096:	af ef       	ldi	r26, 0xFF	; 255
    5098:	b1 ee       	ldi	r27, 0xE1	; 225
    509a:	c4 e0       	ldi	r28, 0x04	; 4
    509c:	a1 50       	subi	r26, 0x01	; 1
    509e:	b0 40       	sbci	r27, 0x00	; 0
    50a0:	c0 40       	sbci	r28, 0x00	; 0
    50a2:	e1 f7       	brne	.-8      	; 0x509c <__stack+0x483d>
    50a4:	00 c0       	rjmp	.+0      	; 0x50a6 <__stack+0x4847>
    50a6:	00 00       	nop
					_delay_ms(period);
					PORTD = 0x04;
    50a8:	62 bb       	out	0x12, r22	; 18
    50aa:	af ef       	ldi	r26, 0xFF	; 255
    50ac:	b1 ee       	ldi	r27, 0xE1	; 225
    50ae:	c4 e0       	ldi	r28, 0x04	; 4
    50b0:	a1 50       	subi	r26, 0x01	; 1
    50b2:	b0 40       	sbci	r27, 0x00	; 0
    50b4:	c0 40       	sbci	r28, 0x00	; 0
    50b6:	e1 f7       	brne	.-8      	; 0x50b0 <__stack+0x4851>
    50b8:	00 c0       	rjmp	.+0      	; 0x50ba <__stack+0x485b>
    50ba:	00 00       	nop
					_delay_ms(period);
					PORTD = 0x06;
    50bc:	52 bb       	out	0x12, r21	; 18
    50be:	af ef       	ldi	r26, 0xFF	; 255
    50c0:	b1 ee       	ldi	r27, 0xE1	; 225
    50c2:	c4 e0       	ldi	r28, 0x04	; 4
    50c4:	a1 50       	subi	r26, 0x01	; 1
    50c6:	b0 40       	sbci	r27, 0x00	; 0
    50c8:	c0 40       	sbci	r28, 0x00	; 0
    50ca:	e1 f7       	brne	.-8      	; 0x50c4 <__stack+0x4865>
    50cc:	00 c0       	rjmp	.+0      	; 0x50ce <__stack+0x486f>
    50ce:	00 00       	nop
					_delay_ms(period);
					PORTD = 0x02;
    50d0:	42 bb       	out	0x12, r20	; 18
    50d2:	af ef       	ldi	r26, 0xFF	; 255
    50d4:	b1 ee       	ldi	r27, 0xE1	; 225
    50d6:	c4 e0       	ldi	r28, 0x04	; 4
    50d8:	a1 50       	subi	r26, 0x01	; 1
    50da:	b0 40       	sbci	r27, 0x00	; 0
    50dc:	c0 40       	sbci	r28, 0x00	; 0
    50de:	e1 f7       	brne	.-8      	; 0x50d8 <__stack+0x4879>
    50e0:	00 c0       	rjmp	.+0      	; 0x50e2 <__stack+0x4883>
    50e2:	00 00       	nop
					_delay_ms(period);
					PORTD = 0x03;
    50e4:	32 bb       	out	0x12, r19	; 18
    50e6:	af ef       	ldi	r26, 0xFF	; 255
    50e8:	b1 ee       	ldi	r27, 0xE1	; 225
    50ea:	c4 e0       	ldi	r28, 0x04	; 4
    50ec:	a1 50       	subi	r26, 0x01	; 1
    50ee:	b0 40       	sbci	r27, 0x00	; 0
    50f0:	c0 40       	sbci	r28, 0x00	; 0
    50f2:	e1 f7       	brne	.-8      	; 0x50ec <__stack+0x488d>
    50f4:	00 c0       	rjmp	.+0      	; 0x50f6 <__stack+0x4897>
    50f6:	00 00       	nop
					_delay_ms(period);
					PORTD = 0x01;
    50f8:	22 bb       	out	0x12, r18	; 18
    50fa:	af ef       	ldi	r26, 0xFF	; 255
    50fc:	b1 ee       	ldi	r27, 0xE1	; 225
    50fe:	c4 e0       	ldi	r28, 0x04	; 4
    5100:	a1 50       	subi	r26, 0x01	; 1
    5102:	b0 40       	sbci	r27, 0x00	; 0
    5104:	c0 40       	sbci	r28, 0x00	; 0
    5106:	e1 f7       	brne	.-8      	; 0x5100 <__stack+0x48a1>
    5108:	00 c0       	rjmp	.+0      	; 0x510a <__stack+0x48ab>
    510a:	00 00       	nop
    510c:	01 97       	sbiw	r24, 0x01	; 1
				break;
			}
			case 2:
			{
				/* Rotate Stepper Motor clockwise with Half step sequence */
				for (int i = 0; i < 12; i++)
    510e:	09 f0       	breq	.+2      	; 0x5112 <__stack+0x48b3>
    5110:	ad cf       	rjmp	.-166    	; 0x506c <__stack+0x480d>
					PORTD = 0x03;
					_delay_ms(period);
					PORTD = 0x01;
					_delay_ms(period);
				}
				PORTD = 0x09; /* Last step to initial position */
    5112:	89 e0       	ldi	r24, 0x09	; 9
    5114:	82 bb       	out	0x12, r24	; 18
    5116:	ef ef       	ldi	r30, 0xFF	; 255
    5118:	21 ee       	ldi	r18, 0xE1	; 225
    511a:	64 e0       	ldi	r22, 0x04	; 4
    511c:	e1 50       	subi	r30, 0x01	; 1
    511e:	20 40       	sbci	r18, 0x00	; 0
    5120:	60 40       	sbci	r22, 0x00	; 0
    5122:	e1 f7       	brne	.-8      	; 0x511c <__stack+0x48bd>
    5124:	00 c0       	rjmp	.+0      	; 0x5126 <__stack+0x48c7>
    5126:	00 00       	nop
    5128:	7f ef       	ldi	r23, 0xFF	; 255
    512a:	83 ed       	ldi	r24, 0xD3	; 211
    512c:	90 e3       	ldi	r25, 0x30	; 48
    512e:	71 50       	subi	r23, 0x01	; 1
    5130:	80 40       	sbci	r24, 0x00	; 0
    5132:	90 40       	sbci	r25, 0x00	; 0
    5134:	e1 f7       	brne	.-8      	; 0x512e <__stack+0x48cf>
    5136:	00 c0       	rjmp	.+0      	; 0x5138 <__stack+0x48d9>
    5138:	00 00       	nop
    513a:	8c e0       	ldi	r24, 0x0C	; 12
    513c:	90 e0       	ldi	r25, 0x00	; 0
				_delay_ms(1000);

				/* Rotate Stepper Motor Anticlockwise with Full step sequence */
				for (int i = 0; i < 12; i++)
				{
					PORTD = 0x09;
    513e:	59 e0       	ldi	r21, 0x09	; 9
					_delay_ms(period);
					PORTD = 0x03;
    5140:	43 e0       	ldi	r20, 0x03	; 3
					_delay_ms(period);
					PORTD = 0x06;
    5142:	36 e0       	ldi	r19, 0x06	; 6
					_delay_ms(period);
					PORTD = 0x0C;
    5144:	2c e0       	ldi	r18, 0x0C	; 12
				_delay_ms(1000);

				/* Rotate Stepper Motor Anticlockwise with Full step sequence */
				for (int i = 0; i < 12; i++)
				{
					PORTD = 0x09;
    5146:	52 bb       	out	0x12, r21	; 18
    5148:	af ef       	ldi	r26, 0xFF	; 255
    514a:	b1 ee       	ldi	r27, 0xE1	; 225
    514c:	c4 e0       	ldi	r28, 0x04	; 4
    514e:	a1 50       	subi	r26, 0x01	; 1
    5150:	b0 40       	sbci	r27, 0x00	; 0
    5152:	c0 40       	sbci	r28, 0x00	; 0
    5154:	e1 f7       	brne	.-8      	; 0x514e <__stack+0x48ef>
    5156:	00 c0       	rjmp	.+0      	; 0x5158 <__stack+0x48f9>
    5158:	00 00       	nop
					_delay_ms(period);
					PORTD = 0x03;
    515a:	42 bb       	out	0x12, r20	; 18
    515c:	ef ef       	ldi	r30, 0xFF	; 255
    515e:	61 ee       	ldi	r22, 0xE1	; 225
    5160:	74 e0       	ldi	r23, 0x04	; 4
    5162:	e1 50       	subi	r30, 0x01	; 1
    5164:	60 40       	sbci	r22, 0x00	; 0
    5166:	70 40       	sbci	r23, 0x00	; 0
    5168:	e1 f7       	brne	.-8      	; 0x5162 <__stack+0x4903>
    516a:	00 c0       	rjmp	.+0      	; 0x516c <__stack+0x490d>
    516c:	00 00       	nop
					_delay_ms(period);
					PORTD = 0x06;
    516e:	32 bb       	out	0x12, r19	; 18
    5170:	af ef       	ldi	r26, 0xFF	; 255
    5172:	b1 ee       	ldi	r27, 0xE1	; 225
    5174:	c4 e0       	ldi	r28, 0x04	; 4
    5176:	a1 50       	subi	r26, 0x01	; 1
    5178:	b0 40       	sbci	r27, 0x00	; 0
    517a:	c0 40       	sbci	r28, 0x00	; 0
    517c:	e1 f7       	brne	.-8      	; 0x5176 <__stack+0x4917>
    517e:	00 c0       	rjmp	.+0      	; 0x5180 <__stack+0x4921>
    5180:	00 00       	nop
					_delay_ms(period);
					PORTD = 0x0C;
    5182:	22 bb       	out	0x12, r18	; 18
    5184:	ef ef       	ldi	r30, 0xFF	; 255
    5186:	61 ee       	ldi	r22, 0xE1	; 225
    5188:	74 e0       	ldi	r23, 0x04	; 4
    518a:	e1 50       	subi	r30, 0x01	; 1
    518c:	60 40       	sbci	r22, 0x00	; 0
    518e:	70 40       	sbci	r23, 0x00	; 0
    5190:	e1 f7       	brne	.-8      	; 0x518a <__stack+0x492b>
    5192:	00 c0       	rjmp	.+0      	; 0x5194 <__stack+0x4935>
    5194:	00 00       	nop
    5196:	01 97       	sbiw	r24, 0x01	; 1
				PORTD = 0x09; /* Last step to initial position */
				_delay_ms(period);
				_delay_ms(1000);

				/* Rotate Stepper Motor Anticlockwise with Full step sequence */
				for (int i = 0; i < 12; i++)
    5198:	b1 f6       	brne	.-84     	; 0x5146 <__stack+0x48e7>
					PORTD = 0x06;
					_delay_ms(period);
					PORTD = 0x0C;
					_delay_ms(period);
				}
				PORTD = 0x09;
    519a:	89 e0       	ldi	r24, 0x09	; 9
    519c:	82 bb       	out	0x12, r24	; 18
    519e:	8f ef       	ldi	r24, 0xFF	; 255
    51a0:	91 ee       	ldi	r25, 0xE1	; 225
    51a2:	a4 e0       	ldi	r26, 0x04	; 4
    51a4:	81 50       	subi	r24, 0x01	; 1
    51a6:	90 40       	sbci	r25, 0x00	; 0
    51a8:	a0 40       	sbci	r26, 0x00	; 0
    51aa:	e1 f7       	brne	.-8      	; 0x51a4 <__stack+0x4945>
    51ac:	00 c0       	rjmp	.+0      	; 0x51ae <__stack+0x494f>
    51ae:	00 00       	nop
    51b0:	bf ef       	ldi	r27, 0xFF	; 255
    51b2:	c3 ed       	ldi	r28, 0xD3	; 211
    51b4:	e0 e3       	ldi	r30, 0x30	; 48
    51b6:	b1 50       	subi	r27, 0x01	; 1
    51b8:	c0 40       	sbci	r28, 0x00	; 0
    51ba:	e0 40       	sbci	r30, 0x00	; 0
    51bc:	e1 f7       	brne	.-8      	; 0x51b6 <__stack+0x4957>
    51be:	00 c0       	rjmp	.+0      	; 0x51c0 <__stack+0x4961>
    51c0:	00 00       	nop
    51c2:	0c 94 2c 3b 	jmp	0x7658	; 0x7658 <__stack+0x6df9>
				break;
			}
		}
		break;
		case 7:
		switch (personNum)
    51c6:	8c e0       	ldi	r24, 0x0C	; 12
    51c8:	90 e0       	ldi	r25, 0x00	; 0
			case 3:
			{
				/* Rotate Stepper Motor clockwise with Half step sequence */
				for (int i = 0; i < 12; i++)
				{
					PORTD = 0x09;
    51ca:	f9 e0       	ldi	r31, 0x09	; 9
					_delay_ms(period);
					PORTD = 0x08;
    51cc:	e8 e0       	ldi	r30, 0x08	; 8
					_delay_ms(period);
					PORTD = 0x0C;
    51ce:	7c e0       	ldi	r23, 0x0C	; 12
					_delay_ms(period);
					PORTD = 0x04;
    51d0:	64 e0       	ldi	r22, 0x04	; 4
					_delay_ms(period);
					PORTD = 0x06;
    51d2:	56 e0       	ldi	r21, 0x06	; 6
					_delay_ms(period);
					PORTD = 0x02;
    51d4:	42 e0       	ldi	r20, 0x02	; 2
					_delay_ms(period);
					PORTD = 0x03;
    51d6:	33 e0       	ldi	r19, 0x03	; 3
					_delay_ms(period);
					PORTD = 0x01;
    51d8:	21 e0       	ldi	r18, 0x01	; 1
			case 3:
			{
				/* Rotate Stepper Motor clockwise with Half step sequence */
				for (int i = 0; i < 12; i++)
				{
					PORTD = 0x09;
    51da:	f2 bb       	out	0x12, r31	; 18
    51dc:	af ef       	ldi	r26, 0xFF	; 255
    51de:	b1 ee       	ldi	r27, 0xE1	; 225
    51e0:	c4 e0       	ldi	r28, 0x04	; 4
    51e2:	a1 50       	subi	r26, 0x01	; 1
    51e4:	b0 40       	sbci	r27, 0x00	; 0
    51e6:	c0 40       	sbci	r28, 0x00	; 0
    51e8:	e1 f7       	brne	.-8      	; 0x51e2 <__stack+0x4983>
    51ea:	00 c0       	rjmp	.+0      	; 0x51ec <__stack+0x498d>
    51ec:	00 00       	nop
					_delay_ms(period);
					PORTD = 0x08;
    51ee:	e2 bb       	out	0x12, r30	; 18
    51f0:	af ef       	ldi	r26, 0xFF	; 255
    51f2:	b1 ee       	ldi	r27, 0xE1	; 225
    51f4:	c4 e0       	ldi	r28, 0x04	; 4
    51f6:	a1 50       	subi	r26, 0x01	; 1
    51f8:	b0 40       	sbci	r27, 0x00	; 0
    51fa:	c0 40       	sbci	r28, 0x00	; 0
    51fc:	e1 f7       	brne	.-8      	; 0x51f6 <__stack+0x4997>
    51fe:	00 c0       	rjmp	.+0      	; 0x5200 <__stack+0x49a1>
    5200:	00 00       	nop
					_delay_ms(period);
					PORTD = 0x0C;
    5202:	72 bb       	out	0x12, r23	; 18
    5204:	af ef       	ldi	r26, 0xFF	; 255
    5206:	b1 ee       	ldi	r27, 0xE1	; 225
    5208:	c4 e0       	ldi	r28, 0x04	; 4
    520a:	a1 50       	subi	r26, 0x01	; 1
    520c:	b0 40       	sbci	r27, 0x00	; 0
    520e:	c0 40       	sbci	r28, 0x00	; 0
    5210:	e1 f7       	brne	.-8      	; 0x520a <__stack+0x49ab>
    5212:	00 c0       	rjmp	.+0      	; 0x5214 <__stack+0x49b5>
    5214:	00 00       	nop
					_delay_ms(period);
					PORTD = 0x04;
    5216:	62 bb       	out	0x12, r22	; 18
    5218:	af ef       	ldi	r26, 0xFF	; 255
    521a:	b1 ee       	ldi	r27, 0xE1	; 225
    521c:	c4 e0       	ldi	r28, 0x04	; 4
    521e:	a1 50       	subi	r26, 0x01	; 1
    5220:	b0 40       	sbci	r27, 0x00	; 0
    5222:	c0 40       	sbci	r28, 0x00	; 0
    5224:	e1 f7       	brne	.-8      	; 0x521e <__stack+0x49bf>
    5226:	00 c0       	rjmp	.+0      	; 0x5228 <__stack+0x49c9>
    5228:	00 00       	nop
					_delay_ms(period);
					PORTD = 0x06;
    522a:	52 bb       	out	0x12, r21	; 18
    522c:	af ef       	ldi	r26, 0xFF	; 255
    522e:	b1 ee       	ldi	r27, 0xE1	; 225
    5230:	c4 e0       	ldi	r28, 0x04	; 4
    5232:	a1 50       	subi	r26, 0x01	; 1
    5234:	b0 40       	sbci	r27, 0x00	; 0
    5236:	c0 40       	sbci	r28, 0x00	; 0
    5238:	e1 f7       	brne	.-8      	; 0x5232 <__stack+0x49d3>
    523a:	00 c0       	rjmp	.+0      	; 0x523c <__stack+0x49dd>
    523c:	00 00       	nop
					_delay_ms(period);
					PORTD = 0x02;
    523e:	42 bb       	out	0x12, r20	; 18
    5240:	af ef       	ldi	r26, 0xFF	; 255
    5242:	b1 ee       	ldi	r27, 0xE1	; 225
    5244:	c4 e0       	ldi	r28, 0x04	; 4
    5246:	a1 50       	subi	r26, 0x01	; 1
    5248:	b0 40       	sbci	r27, 0x00	; 0
    524a:	c0 40       	sbci	r28, 0x00	; 0
    524c:	e1 f7       	brne	.-8      	; 0x5246 <__stack+0x49e7>
    524e:	00 c0       	rjmp	.+0      	; 0x5250 <__stack+0x49f1>
    5250:	00 00       	nop
					_delay_ms(period);
					PORTD = 0x03;
    5252:	32 bb       	out	0x12, r19	; 18
    5254:	af ef       	ldi	r26, 0xFF	; 255
    5256:	b1 ee       	ldi	r27, 0xE1	; 225
    5258:	c4 e0       	ldi	r28, 0x04	; 4
    525a:	a1 50       	subi	r26, 0x01	; 1
    525c:	b0 40       	sbci	r27, 0x00	; 0
    525e:	c0 40       	sbci	r28, 0x00	; 0
    5260:	e1 f7       	brne	.-8      	; 0x525a <__stack+0x49fb>
    5262:	00 c0       	rjmp	.+0      	; 0x5264 <__stack+0x4a05>
    5264:	00 00       	nop
					_delay_ms(period);
					PORTD = 0x01;
    5266:	22 bb       	out	0x12, r18	; 18
    5268:	af ef       	ldi	r26, 0xFF	; 255
    526a:	b1 ee       	ldi	r27, 0xE1	; 225
    526c:	c4 e0       	ldi	r28, 0x04	; 4
    526e:	a1 50       	subi	r26, 0x01	; 1
    5270:	b0 40       	sbci	r27, 0x00	; 0
    5272:	c0 40       	sbci	r28, 0x00	; 0
    5274:	e1 f7       	brne	.-8      	; 0x526e <__stack+0x4a0f>
    5276:	00 c0       	rjmp	.+0      	; 0x5278 <__stack+0x4a19>
    5278:	00 00       	nop
    527a:	01 97       	sbiw	r24, 0x01	; 1
				break;
			}
			case 3:
			{
				/* Rotate Stepper Motor clockwise with Half step sequence */
				for (int i = 0; i < 12; i++)
    527c:	09 f0       	breq	.+2      	; 0x5280 <__stack+0x4a21>
    527e:	ad cf       	rjmp	.-166    	; 0x51da <__stack+0x497b>
					PORTD = 0x03;
					_delay_ms(period);
					PORTD = 0x01;
					_delay_ms(period);
				}
				PORTD = 0x09; /* Last step to initial position */
    5280:	89 e0       	ldi	r24, 0x09	; 9
    5282:	82 bb       	out	0x12, r24	; 18
    5284:	ef ef       	ldi	r30, 0xFF	; 255
    5286:	21 ee       	ldi	r18, 0xE1	; 225
    5288:	64 e0       	ldi	r22, 0x04	; 4
    528a:	e1 50       	subi	r30, 0x01	; 1
    528c:	20 40       	sbci	r18, 0x00	; 0
    528e:	60 40       	sbci	r22, 0x00	; 0
    5290:	e1 f7       	brne	.-8      	; 0x528a <__stack+0x4a2b>
    5292:	00 c0       	rjmp	.+0      	; 0x5294 <__stack+0x4a35>
    5294:	00 00       	nop
    5296:	7f ef       	ldi	r23, 0xFF	; 255
    5298:	83 ed       	ldi	r24, 0xD3	; 211
    529a:	90 e3       	ldi	r25, 0x30	; 48
    529c:	71 50       	subi	r23, 0x01	; 1
    529e:	80 40       	sbci	r24, 0x00	; 0
    52a0:	90 40       	sbci	r25, 0x00	; 0
    52a2:	e1 f7       	brne	.-8      	; 0x529c <__stack+0x4a3d>
    52a4:	00 c0       	rjmp	.+0      	; 0x52a6 <__stack+0x4a47>
    52a6:	00 00       	nop
    52a8:	8c e0       	ldi	r24, 0x0C	; 12
    52aa:	90 e0       	ldi	r25, 0x00	; 0
				_delay_ms(1000);

				/* Rotate Stepper Motor Anticlockwise with Full step sequence */
				for (int i = 0; i < 12; i++)
				{
					PORTD = 0x09;
    52ac:	59 e0       	ldi	r21, 0x09	; 9
					_delay_ms(period);
					PORTD = 0x03;
    52ae:	43 e0       	ldi	r20, 0x03	; 3
					_delay_ms(period);
					PORTD = 0x06;
    52b0:	36 e0       	ldi	r19, 0x06	; 6
					_delay_ms(period);
					PORTD = 0x0C;
    52b2:	2c e0       	ldi	r18, 0x0C	; 12
				_delay_ms(1000);

				/* Rotate Stepper Motor Anticlockwise with Full step sequence */
				for (int i = 0; i < 12; i++)
				{
					PORTD = 0x09;
    52b4:	52 bb       	out	0x12, r21	; 18
    52b6:	af ef       	ldi	r26, 0xFF	; 255
    52b8:	b1 ee       	ldi	r27, 0xE1	; 225
    52ba:	c4 e0       	ldi	r28, 0x04	; 4
    52bc:	a1 50       	subi	r26, 0x01	; 1
    52be:	b0 40       	sbci	r27, 0x00	; 0
    52c0:	c0 40       	sbci	r28, 0x00	; 0
    52c2:	e1 f7       	brne	.-8      	; 0x52bc <__stack+0x4a5d>
    52c4:	00 c0       	rjmp	.+0      	; 0x52c6 <__stack+0x4a67>
    52c6:	00 00       	nop
					_delay_ms(period);
					PORTD = 0x03;
    52c8:	42 bb       	out	0x12, r20	; 18
    52ca:	ef ef       	ldi	r30, 0xFF	; 255
    52cc:	61 ee       	ldi	r22, 0xE1	; 225
    52ce:	74 e0       	ldi	r23, 0x04	; 4
    52d0:	e1 50       	subi	r30, 0x01	; 1
    52d2:	60 40       	sbci	r22, 0x00	; 0
    52d4:	70 40       	sbci	r23, 0x00	; 0
    52d6:	e1 f7       	brne	.-8      	; 0x52d0 <__stack+0x4a71>
    52d8:	00 c0       	rjmp	.+0      	; 0x52da <__stack+0x4a7b>
    52da:	00 00       	nop
					_delay_ms(period);
					PORTD = 0x06;
    52dc:	32 bb       	out	0x12, r19	; 18
    52de:	af ef       	ldi	r26, 0xFF	; 255
    52e0:	b1 ee       	ldi	r27, 0xE1	; 225
    52e2:	c4 e0       	ldi	r28, 0x04	; 4
    52e4:	a1 50       	subi	r26, 0x01	; 1
    52e6:	b0 40       	sbci	r27, 0x00	; 0
    52e8:	c0 40       	sbci	r28, 0x00	; 0
    52ea:	e1 f7       	brne	.-8      	; 0x52e4 <__stack+0x4a85>
    52ec:	00 c0       	rjmp	.+0      	; 0x52ee <__stack+0x4a8f>
    52ee:	00 00       	nop
					_delay_ms(period);
					PORTD = 0x0C;
    52f0:	22 bb       	out	0x12, r18	; 18
    52f2:	ef ef       	ldi	r30, 0xFF	; 255
    52f4:	61 ee       	ldi	r22, 0xE1	; 225
    52f6:	74 e0       	ldi	r23, 0x04	; 4
    52f8:	e1 50       	subi	r30, 0x01	; 1
    52fa:	60 40       	sbci	r22, 0x00	; 0
    52fc:	70 40       	sbci	r23, 0x00	; 0
    52fe:	e1 f7       	brne	.-8      	; 0x52f8 <__stack+0x4a99>
    5300:	00 c0       	rjmp	.+0      	; 0x5302 <__stack+0x4aa3>
    5302:	00 00       	nop
    5304:	01 97       	sbiw	r24, 0x01	; 1
				PORTD = 0x09; /* Last step to initial position */
				_delay_ms(period);
				_delay_ms(1000);

				/* Rotate Stepper Motor Anticlockwise with Full step sequence */
				for (int i = 0; i < 12; i++)
    5306:	b1 f6       	brne	.-84     	; 0x52b4 <__stack+0x4a55>
					PORTD = 0x06;
					_delay_ms(period);
					PORTD = 0x0C;
					_delay_ms(period);
				}
				PORTD = 0x09;
    5308:	89 e0       	ldi	r24, 0x09	; 9
    530a:	82 bb       	out	0x12, r24	; 18
    530c:	8f ef       	ldi	r24, 0xFF	; 255
    530e:	91 ee       	ldi	r25, 0xE1	; 225
    5310:	a4 e0       	ldi	r26, 0x04	; 4
    5312:	81 50       	subi	r24, 0x01	; 1
    5314:	90 40       	sbci	r25, 0x00	; 0
    5316:	a0 40       	sbci	r26, 0x00	; 0
    5318:	e1 f7       	brne	.-8      	; 0x5312 <__stack+0x4ab3>
    531a:	00 c0       	rjmp	.+0      	; 0x531c <__stack+0x4abd>
    531c:	00 00       	nop
    531e:	bf ef       	ldi	r27, 0xFF	; 255
    5320:	c3 ed       	ldi	r28, 0xD3	; 211
    5322:	e0 e3       	ldi	r30, 0x30	; 48
    5324:	b1 50       	subi	r27, 0x01	; 1
    5326:	c0 40       	sbci	r28, 0x00	; 0
    5328:	e0 40       	sbci	r30, 0x00	; 0
    532a:	e1 f7       	brne	.-8      	; 0x5324 <__stack+0x4ac5>
    532c:	00 c0       	rjmp	.+0      	; 0x532e <__stack+0x4acf>
    532e:	00 00       	nop
    5330:	0c 94 2c 3b 	jmp	0x7658	; 0x7658 <__stack+0x6df9>
				break;
			}
		}
		break;
		case 7:
		switch (personNum)
    5334:	8c e0       	ldi	r24, 0x0C	; 12
    5336:	90 e0       	ldi	r25, 0x00	; 0
			case 4:
			{
				/* Rotate Stepper Motor clockwise with Half step sequence */
				for (int i = 0; i < 12; i++)
				{
					PORTD = 0x09;
    5338:	f9 e0       	ldi	r31, 0x09	; 9
					_delay_ms(period);
					PORTD = 0x08;
    533a:	e8 e0       	ldi	r30, 0x08	; 8
					_delay_ms(period);
					PORTD = 0x0C;
    533c:	7c e0       	ldi	r23, 0x0C	; 12
					_delay_ms(period);
					PORTD = 0x04;
    533e:	64 e0       	ldi	r22, 0x04	; 4
					_delay_ms(period);
					PORTD = 0x06;
    5340:	56 e0       	ldi	r21, 0x06	; 6
					_delay_ms(period);
					PORTD = 0x02;
    5342:	42 e0       	ldi	r20, 0x02	; 2
					_delay_ms(period);
					PORTD = 0x03;
    5344:	33 e0       	ldi	r19, 0x03	; 3
					_delay_ms(period);
					PORTD = 0x01;
    5346:	21 e0       	ldi	r18, 0x01	; 1
			case 4:
			{
				/* Rotate Stepper Motor clockwise with Half step sequence */
				for (int i = 0; i < 12; i++)
				{
					PORTD = 0x09;
    5348:	f2 bb       	out	0x12, r31	; 18
    534a:	af ef       	ldi	r26, 0xFF	; 255
    534c:	b1 ee       	ldi	r27, 0xE1	; 225
    534e:	c4 e0       	ldi	r28, 0x04	; 4
    5350:	a1 50       	subi	r26, 0x01	; 1
    5352:	b0 40       	sbci	r27, 0x00	; 0
    5354:	c0 40       	sbci	r28, 0x00	; 0
    5356:	e1 f7       	brne	.-8      	; 0x5350 <__stack+0x4af1>
    5358:	00 c0       	rjmp	.+0      	; 0x535a <__stack+0x4afb>
    535a:	00 00       	nop
					_delay_ms(period);
					PORTD = 0x08;
    535c:	e2 bb       	out	0x12, r30	; 18
    535e:	af ef       	ldi	r26, 0xFF	; 255
    5360:	b1 ee       	ldi	r27, 0xE1	; 225
    5362:	c4 e0       	ldi	r28, 0x04	; 4
    5364:	a1 50       	subi	r26, 0x01	; 1
    5366:	b0 40       	sbci	r27, 0x00	; 0
    5368:	c0 40       	sbci	r28, 0x00	; 0
    536a:	e1 f7       	brne	.-8      	; 0x5364 <__stack+0x4b05>
    536c:	00 c0       	rjmp	.+0      	; 0x536e <__stack+0x4b0f>
    536e:	00 00       	nop
					_delay_ms(period);
					PORTD = 0x0C;
    5370:	72 bb       	out	0x12, r23	; 18
    5372:	af ef       	ldi	r26, 0xFF	; 255
    5374:	b1 ee       	ldi	r27, 0xE1	; 225
    5376:	c4 e0       	ldi	r28, 0x04	; 4
    5378:	a1 50       	subi	r26, 0x01	; 1
    537a:	b0 40       	sbci	r27, 0x00	; 0
    537c:	c0 40       	sbci	r28, 0x00	; 0
    537e:	e1 f7       	brne	.-8      	; 0x5378 <__stack+0x4b19>
    5380:	00 c0       	rjmp	.+0      	; 0x5382 <__stack+0x4b23>
    5382:	00 00       	nop
					_delay_ms(period);
					PORTD = 0x04;
    5384:	62 bb       	out	0x12, r22	; 18
    5386:	af ef       	ldi	r26, 0xFF	; 255
    5388:	b1 ee       	ldi	r27, 0xE1	; 225
    538a:	c4 e0       	ldi	r28, 0x04	; 4
    538c:	a1 50       	subi	r26, 0x01	; 1
    538e:	b0 40       	sbci	r27, 0x00	; 0
    5390:	c0 40       	sbci	r28, 0x00	; 0
    5392:	e1 f7       	brne	.-8      	; 0x538c <__stack+0x4b2d>
    5394:	00 c0       	rjmp	.+0      	; 0x5396 <__stack+0x4b37>
    5396:	00 00       	nop
					_delay_ms(period);
					PORTD = 0x06;
    5398:	52 bb       	out	0x12, r21	; 18
    539a:	af ef       	ldi	r26, 0xFF	; 255
    539c:	b1 ee       	ldi	r27, 0xE1	; 225
    539e:	c4 e0       	ldi	r28, 0x04	; 4
    53a0:	a1 50       	subi	r26, 0x01	; 1
    53a2:	b0 40       	sbci	r27, 0x00	; 0
    53a4:	c0 40       	sbci	r28, 0x00	; 0
    53a6:	e1 f7       	brne	.-8      	; 0x53a0 <__stack+0x4b41>
    53a8:	00 c0       	rjmp	.+0      	; 0x53aa <__stack+0x4b4b>
    53aa:	00 00       	nop
					_delay_ms(period);
					PORTD = 0x02;
    53ac:	42 bb       	out	0x12, r20	; 18
    53ae:	af ef       	ldi	r26, 0xFF	; 255
    53b0:	b1 ee       	ldi	r27, 0xE1	; 225
    53b2:	c4 e0       	ldi	r28, 0x04	; 4
    53b4:	a1 50       	subi	r26, 0x01	; 1
    53b6:	b0 40       	sbci	r27, 0x00	; 0
    53b8:	c0 40       	sbci	r28, 0x00	; 0
    53ba:	e1 f7       	brne	.-8      	; 0x53b4 <__stack+0x4b55>
    53bc:	00 c0       	rjmp	.+0      	; 0x53be <__stack+0x4b5f>
    53be:	00 00       	nop
					_delay_ms(period);
					PORTD = 0x03;
    53c0:	32 bb       	out	0x12, r19	; 18
    53c2:	af ef       	ldi	r26, 0xFF	; 255
    53c4:	b1 ee       	ldi	r27, 0xE1	; 225
    53c6:	c4 e0       	ldi	r28, 0x04	; 4
    53c8:	a1 50       	subi	r26, 0x01	; 1
    53ca:	b0 40       	sbci	r27, 0x00	; 0
    53cc:	c0 40       	sbci	r28, 0x00	; 0
    53ce:	e1 f7       	brne	.-8      	; 0x53c8 <__stack+0x4b69>
    53d0:	00 c0       	rjmp	.+0      	; 0x53d2 <__stack+0x4b73>
    53d2:	00 00       	nop
					_delay_ms(period);
					PORTD = 0x01;
    53d4:	22 bb       	out	0x12, r18	; 18
    53d6:	af ef       	ldi	r26, 0xFF	; 255
    53d8:	b1 ee       	ldi	r27, 0xE1	; 225
    53da:	c4 e0       	ldi	r28, 0x04	; 4
    53dc:	a1 50       	subi	r26, 0x01	; 1
    53de:	b0 40       	sbci	r27, 0x00	; 0
    53e0:	c0 40       	sbci	r28, 0x00	; 0
    53e2:	e1 f7       	brne	.-8      	; 0x53dc <__stack+0x4b7d>
    53e4:	00 c0       	rjmp	.+0      	; 0x53e6 <__stack+0x4b87>
    53e6:	00 00       	nop
    53e8:	01 97       	sbiw	r24, 0x01	; 1
				break;
			}
			case 4:
			{
				/* Rotate Stepper Motor clockwise with Half step sequence */
				for (int i = 0; i < 12; i++)
    53ea:	09 f0       	breq	.+2      	; 0x53ee <__stack+0x4b8f>
    53ec:	ad cf       	rjmp	.-166    	; 0x5348 <__stack+0x4ae9>
					PORTD = 0x03;
					_delay_ms(period);
					PORTD = 0x01;
					_delay_ms(period);
				}
				PORTD = 0x09; /* Last step to initial position */
    53ee:	89 e0       	ldi	r24, 0x09	; 9
    53f0:	82 bb       	out	0x12, r24	; 18
    53f2:	ef ef       	ldi	r30, 0xFF	; 255
    53f4:	21 ee       	ldi	r18, 0xE1	; 225
    53f6:	64 e0       	ldi	r22, 0x04	; 4
    53f8:	e1 50       	subi	r30, 0x01	; 1
    53fa:	20 40       	sbci	r18, 0x00	; 0
    53fc:	60 40       	sbci	r22, 0x00	; 0
    53fe:	e1 f7       	brne	.-8      	; 0x53f8 <__stack+0x4b99>
    5400:	00 c0       	rjmp	.+0      	; 0x5402 <__stack+0x4ba3>
    5402:	00 00       	nop
    5404:	7f ef       	ldi	r23, 0xFF	; 255
    5406:	83 ed       	ldi	r24, 0xD3	; 211
    5408:	90 e3       	ldi	r25, 0x30	; 48
    540a:	71 50       	subi	r23, 0x01	; 1
    540c:	80 40       	sbci	r24, 0x00	; 0
    540e:	90 40       	sbci	r25, 0x00	; 0
    5410:	e1 f7       	brne	.-8      	; 0x540a <__stack+0x4bab>
    5412:	00 c0       	rjmp	.+0      	; 0x5414 <__stack+0x4bb5>
    5414:	00 00       	nop
    5416:	8c e0       	ldi	r24, 0x0C	; 12
    5418:	90 e0       	ldi	r25, 0x00	; 0
				_delay_ms(1000);

				/* Rotate Stepper Motor Anticlockwise with Full step sequence */
				for (int i = 0; i < 12; i++)
				{
					PORTD = 0x09;
    541a:	59 e0       	ldi	r21, 0x09	; 9
					_delay_ms(period);
					PORTD = 0x03;
    541c:	43 e0       	ldi	r20, 0x03	; 3
					_delay_ms(period);
					PORTD = 0x06;
    541e:	36 e0       	ldi	r19, 0x06	; 6
					_delay_ms(period);
					PORTD = 0x0C;
    5420:	2c e0       	ldi	r18, 0x0C	; 12
				_delay_ms(1000);

				/* Rotate Stepper Motor Anticlockwise with Full step sequence */
				for (int i = 0; i < 12; i++)
				{
					PORTD = 0x09;
    5422:	52 bb       	out	0x12, r21	; 18
    5424:	af ef       	ldi	r26, 0xFF	; 255
    5426:	b1 ee       	ldi	r27, 0xE1	; 225
    5428:	c4 e0       	ldi	r28, 0x04	; 4
    542a:	a1 50       	subi	r26, 0x01	; 1
    542c:	b0 40       	sbci	r27, 0x00	; 0
    542e:	c0 40       	sbci	r28, 0x00	; 0
    5430:	e1 f7       	brne	.-8      	; 0x542a <__stack+0x4bcb>
    5432:	00 c0       	rjmp	.+0      	; 0x5434 <__stack+0x4bd5>
    5434:	00 00       	nop
					_delay_ms(period);
					PORTD = 0x03;
    5436:	42 bb       	out	0x12, r20	; 18
    5438:	ef ef       	ldi	r30, 0xFF	; 255
    543a:	61 ee       	ldi	r22, 0xE1	; 225
    543c:	74 e0       	ldi	r23, 0x04	; 4
    543e:	e1 50       	subi	r30, 0x01	; 1
    5440:	60 40       	sbci	r22, 0x00	; 0
    5442:	70 40       	sbci	r23, 0x00	; 0
    5444:	e1 f7       	brne	.-8      	; 0x543e <__stack+0x4bdf>
    5446:	00 c0       	rjmp	.+0      	; 0x5448 <__stack+0x4be9>
    5448:	00 00       	nop
					_delay_ms(period);
					PORTD = 0x06;
    544a:	32 bb       	out	0x12, r19	; 18
    544c:	af ef       	ldi	r26, 0xFF	; 255
    544e:	b1 ee       	ldi	r27, 0xE1	; 225
    5450:	c4 e0       	ldi	r28, 0x04	; 4
    5452:	a1 50       	subi	r26, 0x01	; 1
    5454:	b0 40       	sbci	r27, 0x00	; 0
    5456:	c0 40       	sbci	r28, 0x00	; 0
    5458:	e1 f7       	brne	.-8      	; 0x5452 <__stack+0x4bf3>
    545a:	00 c0       	rjmp	.+0      	; 0x545c <__stack+0x4bfd>
    545c:	00 00       	nop
					_delay_ms(period);
					PORTD = 0x0C;
    545e:	22 bb       	out	0x12, r18	; 18
    5460:	ef ef       	ldi	r30, 0xFF	; 255
    5462:	61 ee       	ldi	r22, 0xE1	; 225
    5464:	74 e0       	ldi	r23, 0x04	; 4
    5466:	e1 50       	subi	r30, 0x01	; 1
    5468:	60 40       	sbci	r22, 0x00	; 0
    546a:	70 40       	sbci	r23, 0x00	; 0
    546c:	e1 f7       	brne	.-8      	; 0x5466 <__stack+0x4c07>
    546e:	00 c0       	rjmp	.+0      	; 0x5470 <__stack+0x4c11>
    5470:	00 00       	nop
    5472:	01 97       	sbiw	r24, 0x01	; 1
				PORTD = 0x09; /* Last step to initial position */
				_delay_ms(period);
				_delay_ms(1000);

				/* Rotate Stepper Motor Anticlockwise with Full step sequence */
				for (int i = 0; i < 12; i++)
    5474:	b1 f6       	brne	.-84     	; 0x5422 <__stack+0x4bc3>
					PORTD = 0x06;
					_delay_ms(period);
					PORTD = 0x0C;
					_delay_ms(period);
				}
				PORTD = 0x09;
    5476:	89 e0       	ldi	r24, 0x09	; 9
    5478:	82 bb       	out	0x12, r24	; 18
    547a:	8f ef       	ldi	r24, 0xFF	; 255
    547c:	91 ee       	ldi	r25, 0xE1	; 225
    547e:	a4 e0       	ldi	r26, 0x04	; 4
    5480:	81 50       	subi	r24, 0x01	; 1
    5482:	90 40       	sbci	r25, 0x00	; 0
    5484:	a0 40       	sbci	r26, 0x00	; 0
    5486:	e1 f7       	brne	.-8      	; 0x5480 <__stack+0x4c21>
    5488:	00 c0       	rjmp	.+0      	; 0x548a <__stack+0x4c2b>
    548a:	00 00       	nop
    548c:	bf ef       	ldi	r27, 0xFF	; 255
    548e:	c3 ed       	ldi	r28, 0xD3	; 211
    5490:	e0 e3       	ldi	r30, 0x30	; 48
    5492:	b1 50       	subi	r27, 0x01	; 1
    5494:	c0 40       	sbci	r28, 0x00	; 0
    5496:	e0 40       	sbci	r30, 0x00	; 0
    5498:	e1 f7       	brne	.-8      	; 0x5492 <__stack+0x4c33>
    549a:	00 c0       	rjmp	.+0      	; 0x549c <__stack+0x4c3d>
    549c:	00 00       	nop
    549e:	0c 94 2c 3b 	jmp	0x7658	; 0x7658 <__stack+0x6df9>
				break;
			}
		}
		break;
		case 7:
		switch (personNum)
    54a2:	8c e0       	ldi	r24, 0x0C	; 12
    54a4:	90 e0       	ldi	r25, 0x00	; 0
			case 5:
			{
				/* Rotate Stepper Motor clockwise with Half step sequence */
				for (int i = 0; i < 12; i++)
				{
					PORTD = 0x09;
    54a6:	f9 e0       	ldi	r31, 0x09	; 9
					_delay_ms(period);
					PORTD = 0x08;
    54a8:	e8 e0       	ldi	r30, 0x08	; 8
					_delay_ms(period);
					PORTD = 0x0C;
    54aa:	7c e0       	ldi	r23, 0x0C	; 12
					_delay_ms(period);
					PORTD = 0x04;
    54ac:	64 e0       	ldi	r22, 0x04	; 4
					_delay_ms(period);
					PORTD = 0x06;
    54ae:	56 e0       	ldi	r21, 0x06	; 6
					_delay_ms(period);
					PORTD = 0x02;
    54b0:	42 e0       	ldi	r20, 0x02	; 2
					_delay_ms(period);
					PORTD = 0x03;
    54b2:	33 e0       	ldi	r19, 0x03	; 3
					_delay_ms(period);
					PORTD = 0x01;
    54b4:	21 e0       	ldi	r18, 0x01	; 1
			case 5:
			{
				/* Rotate Stepper Motor clockwise with Half step sequence */
				for (int i = 0; i < 12; i++)
				{
					PORTD = 0x09;
    54b6:	f2 bb       	out	0x12, r31	; 18
    54b8:	af ef       	ldi	r26, 0xFF	; 255
    54ba:	b1 ee       	ldi	r27, 0xE1	; 225
    54bc:	c4 e0       	ldi	r28, 0x04	; 4
    54be:	a1 50       	subi	r26, 0x01	; 1
    54c0:	b0 40       	sbci	r27, 0x00	; 0
    54c2:	c0 40       	sbci	r28, 0x00	; 0
    54c4:	e1 f7       	brne	.-8      	; 0x54be <__stack+0x4c5f>
    54c6:	00 c0       	rjmp	.+0      	; 0x54c8 <__stack+0x4c69>
    54c8:	00 00       	nop
					_delay_ms(period);
					PORTD = 0x08;
    54ca:	e2 bb       	out	0x12, r30	; 18
    54cc:	af ef       	ldi	r26, 0xFF	; 255
    54ce:	b1 ee       	ldi	r27, 0xE1	; 225
    54d0:	c4 e0       	ldi	r28, 0x04	; 4
    54d2:	a1 50       	subi	r26, 0x01	; 1
    54d4:	b0 40       	sbci	r27, 0x00	; 0
    54d6:	c0 40       	sbci	r28, 0x00	; 0
    54d8:	e1 f7       	brne	.-8      	; 0x54d2 <__stack+0x4c73>
    54da:	00 c0       	rjmp	.+0      	; 0x54dc <__stack+0x4c7d>
    54dc:	00 00       	nop
					_delay_ms(period);
					PORTD = 0x0C;
    54de:	72 bb       	out	0x12, r23	; 18
    54e0:	af ef       	ldi	r26, 0xFF	; 255
    54e2:	b1 ee       	ldi	r27, 0xE1	; 225
    54e4:	c4 e0       	ldi	r28, 0x04	; 4
    54e6:	a1 50       	subi	r26, 0x01	; 1
    54e8:	b0 40       	sbci	r27, 0x00	; 0
    54ea:	c0 40       	sbci	r28, 0x00	; 0
    54ec:	e1 f7       	brne	.-8      	; 0x54e6 <__stack+0x4c87>
    54ee:	00 c0       	rjmp	.+0      	; 0x54f0 <__stack+0x4c91>
    54f0:	00 00       	nop
					_delay_ms(period);
					PORTD = 0x04;
    54f2:	62 bb       	out	0x12, r22	; 18
    54f4:	af ef       	ldi	r26, 0xFF	; 255
    54f6:	b1 ee       	ldi	r27, 0xE1	; 225
    54f8:	c4 e0       	ldi	r28, 0x04	; 4
    54fa:	a1 50       	subi	r26, 0x01	; 1
    54fc:	b0 40       	sbci	r27, 0x00	; 0
    54fe:	c0 40       	sbci	r28, 0x00	; 0
    5500:	e1 f7       	brne	.-8      	; 0x54fa <__stack+0x4c9b>
    5502:	00 c0       	rjmp	.+0      	; 0x5504 <__stack+0x4ca5>
    5504:	00 00       	nop
					_delay_ms(period);
					PORTD = 0x06;
    5506:	52 bb       	out	0x12, r21	; 18
    5508:	af ef       	ldi	r26, 0xFF	; 255
    550a:	b1 ee       	ldi	r27, 0xE1	; 225
    550c:	c4 e0       	ldi	r28, 0x04	; 4
    550e:	a1 50       	subi	r26, 0x01	; 1
    5510:	b0 40       	sbci	r27, 0x00	; 0
    5512:	c0 40       	sbci	r28, 0x00	; 0
    5514:	e1 f7       	brne	.-8      	; 0x550e <__stack+0x4caf>
    5516:	00 c0       	rjmp	.+0      	; 0x5518 <__stack+0x4cb9>
    5518:	00 00       	nop
					_delay_ms(period);
					PORTD = 0x02;
    551a:	42 bb       	out	0x12, r20	; 18
    551c:	af ef       	ldi	r26, 0xFF	; 255
    551e:	b1 ee       	ldi	r27, 0xE1	; 225
    5520:	c4 e0       	ldi	r28, 0x04	; 4
    5522:	a1 50       	subi	r26, 0x01	; 1
    5524:	b0 40       	sbci	r27, 0x00	; 0
    5526:	c0 40       	sbci	r28, 0x00	; 0
    5528:	e1 f7       	brne	.-8      	; 0x5522 <__stack+0x4cc3>
    552a:	00 c0       	rjmp	.+0      	; 0x552c <__stack+0x4ccd>
    552c:	00 00       	nop
					_delay_ms(period);
					PORTD = 0x03;
    552e:	32 bb       	out	0x12, r19	; 18
    5530:	af ef       	ldi	r26, 0xFF	; 255
    5532:	b1 ee       	ldi	r27, 0xE1	; 225
    5534:	c4 e0       	ldi	r28, 0x04	; 4
    5536:	a1 50       	subi	r26, 0x01	; 1
    5538:	b0 40       	sbci	r27, 0x00	; 0
    553a:	c0 40       	sbci	r28, 0x00	; 0
    553c:	e1 f7       	brne	.-8      	; 0x5536 <__stack+0x4cd7>
    553e:	00 c0       	rjmp	.+0      	; 0x5540 <__stack+0x4ce1>
    5540:	00 00       	nop
					_delay_ms(period);
					PORTD = 0x01;
    5542:	22 bb       	out	0x12, r18	; 18
    5544:	af ef       	ldi	r26, 0xFF	; 255
    5546:	b1 ee       	ldi	r27, 0xE1	; 225
    5548:	c4 e0       	ldi	r28, 0x04	; 4
    554a:	a1 50       	subi	r26, 0x01	; 1
    554c:	b0 40       	sbci	r27, 0x00	; 0
    554e:	c0 40       	sbci	r28, 0x00	; 0
    5550:	e1 f7       	brne	.-8      	; 0x554a <__stack+0x4ceb>
    5552:	00 c0       	rjmp	.+0      	; 0x5554 <__stack+0x4cf5>
    5554:	00 00       	nop
    5556:	01 97       	sbiw	r24, 0x01	; 1
				break;
			}
			case 5:
			{
				/* Rotate Stepper Motor clockwise with Half step sequence */
				for (int i = 0; i < 12; i++)
    5558:	09 f0       	breq	.+2      	; 0x555c <__stack+0x4cfd>
    555a:	ad cf       	rjmp	.-166    	; 0x54b6 <__stack+0x4c57>
					PORTD = 0x03;
					_delay_ms(period);
					PORTD = 0x01;
					_delay_ms(period);
				}
				PORTD = 0x09; /* Last step to initial position */
    555c:	89 e0       	ldi	r24, 0x09	; 9
    555e:	82 bb       	out	0x12, r24	; 18
    5560:	ef ef       	ldi	r30, 0xFF	; 255
    5562:	21 ee       	ldi	r18, 0xE1	; 225
    5564:	64 e0       	ldi	r22, 0x04	; 4
    5566:	e1 50       	subi	r30, 0x01	; 1
    5568:	20 40       	sbci	r18, 0x00	; 0
    556a:	60 40       	sbci	r22, 0x00	; 0
    556c:	e1 f7       	brne	.-8      	; 0x5566 <__stack+0x4d07>
    556e:	00 c0       	rjmp	.+0      	; 0x5570 <__stack+0x4d11>
    5570:	00 00       	nop
    5572:	7f ef       	ldi	r23, 0xFF	; 255
    5574:	83 ed       	ldi	r24, 0xD3	; 211
    5576:	90 e3       	ldi	r25, 0x30	; 48
    5578:	71 50       	subi	r23, 0x01	; 1
    557a:	80 40       	sbci	r24, 0x00	; 0
    557c:	90 40       	sbci	r25, 0x00	; 0
    557e:	e1 f7       	brne	.-8      	; 0x5578 <__stack+0x4d19>
    5580:	00 c0       	rjmp	.+0      	; 0x5582 <__stack+0x4d23>
    5582:	00 00       	nop
    5584:	8c e0       	ldi	r24, 0x0C	; 12
    5586:	90 e0       	ldi	r25, 0x00	; 0
				_delay_ms(1000);

				/* Rotate Stepper Motor Anticlockwise with Full step sequence */
				for (int i = 0; i < 12; i++)
				{
					PORTD = 0x09;
    5588:	59 e0       	ldi	r21, 0x09	; 9
					_delay_ms(period);
					PORTD = 0x03;
    558a:	43 e0       	ldi	r20, 0x03	; 3
					_delay_ms(period);
					PORTD = 0x06;
    558c:	36 e0       	ldi	r19, 0x06	; 6
					_delay_ms(period);
					PORTD = 0x0C;
    558e:	2c e0       	ldi	r18, 0x0C	; 12
				_delay_ms(1000);

				/* Rotate Stepper Motor Anticlockwise with Full step sequence */
				for (int i = 0; i < 12; i++)
				{
					PORTD = 0x09;
    5590:	52 bb       	out	0x12, r21	; 18
    5592:	af ef       	ldi	r26, 0xFF	; 255
    5594:	b1 ee       	ldi	r27, 0xE1	; 225
    5596:	c4 e0       	ldi	r28, 0x04	; 4
    5598:	a1 50       	subi	r26, 0x01	; 1
    559a:	b0 40       	sbci	r27, 0x00	; 0
    559c:	c0 40       	sbci	r28, 0x00	; 0
    559e:	e1 f7       	brne	.-8      	; 0x5598 <__stack+0x4d39>
    55a0:	00 c0       	rjmp	.+0      	; 0x55a2 <__stack+0x4d43>
    55a2:	00 00       	nop
					_delay_ms(period);
					PORTD = 0x03;
    55a4:	42 bb       	out	0x12, r20	; 18
    55a6:	ef ef       	ldi	r30, 0xFF	; 255
    55a8:	61 ee       	ldi	r22, 0xE1	; 225
    55aa:	74 e0       	ldi	r23, 0x04	; 4
    55ac:	e1 50       	subi	r30, 0x01	; 1
    55ae:	60 40       	sbci	r22, 0x00	; 0
    55b0:	70 40       	sbci	r23, 0x00	; 0
    55b2:	e1 f7       	brne	.-8      	; 0x55ac <__stack+0x4d4d>
    55b4:	00 c0       	rjmp	.+0      	; 0x55b6 <__stack+0x4d57>
    55b6:	00 00       	nop
					_delay_ms(period);
					PORTD = 0x06;
    55b8:	32 bb       	out	0x12, r19	; 18
    55ba:	af ef       	ldi	r26, 0xFF	; 255
    55bc:	b1 ee       	ldi	r27, 0xE1	; 225
    55be:	c4 e0       	ldi	r28, 0x04	; 4
    55c0:	a1 50       	subi	r26, 0x01	; 1
    55c2:	b0 40       	sbci	r27, 0x00	; 0
    55c4:	c0 40       	sbci	r28, 0x00	; 0
    55c6:	e1 f7       	brne	.-8      	; 0x55c0 <__stack+0x4d61>
    55c8:	00 c0       	rjmp	.+0      	; 0x55ca <__stack+0x4d6b>
    55ca:	00 00       	nop
					_delay_ms(period);
					PORTD = 0x0C;
    55cc:	22 bb       	out	0x12, r18	; 18
    55ce:	ef ef       	ldi	r30, 0xFF	; 255
    55d0:	61 ee       	ldi	r22, 0xE1	; 225
    55d2:	74 e0       	ldi	r23, 0x04	; 4
    55d4:	e1 50       	subi	r30, 0x01	; 1
    55d6:	60 40       	sbci	r22, 0x00	; 0
    55d8:	70 40       	sbci	r23, 0x00	; 0
    55da:	e1 f7       	brne	.-8      	; 0x55d4 <__stack+0x4d75>
    55dc:	00 c0       	rjmp	.+0      	; 0x55de <__stack+0x4d7f>
    55de:	00 00       	nop
    55e0:	01 97       	sbiw	r24, 0x01	; 1
				PORTD = 0x09; /* Last step to initial position */
				_delay_ms(period);
				_delay_ms(1000);

				/* Rotate Stepper Motor Anticlockwise with Full step sequence */
				for (int i = 0; i < 12; i++)
    55e2:	b1 f6       	brne	.-84     	; 0x5590 <__stack+0x4d31>
					PORTD = 0x06;
					_delay_ms(period);
					PORTD = 0x0C;
					_delay_ms(period);
				}
				PORTD = 0x09;
    55e4:	89 e0       	ldi	r24, 0x09	; 9
    55e6:	82 bb       	out	0x12, r24	; 18
    55e8:	8f ef       	ldi	r24, 0xFF	; 255
    55ea:	91 ee       	ldi	r25, 0xE1	; 225
    55ec:	a4 e0       	ldi	r26, 0x04	; 4
    55ee:	81 50       	subi	r24, 0x01	; 1
    55f0:	90 40       	sbci	r25, 0x00	; 0
    55f2:	a0 40       	sbci	r26, 0x00	; 0
    55f4:	e1 f7       	brne	.-8      	; 0x55ee <__stack+0x4d8f>
    55f6:	00 c0       	rjmp	.+0      	; 0x55f8 <__stack+0x4d99>
    55f8:	00 00       	nop
    55fa:	bf ef       	ldi	r27, 0xFF	; 255
    55fc:	c3 ed       	ldi	r28, 0xD3	; 211
    55fe:	e0 e3       	ldi	r30, 0x30	; 48
    5600:	b1 50       	subi	r27, 0x01	; 1
    5602:	c0 40       	sbci	r28, 0x00	; 0
    5604:	e0 40       	sbci	r30, 0x00	; 0
    5606:	e1 f7       	brne	.-8      	; 0x5600 <__stack+0x4da1>
    5608:	00 c0       	rjmp	.+0      	; 0x560a <__stack+0x4dab>
    560a:	00 00       	nop
    560c:	0c 94 2c 3b 	jmp	0x7658	; 0x7658 <__stack+0x6df9>
				break;
			}
		}
		break;
		case 7:
		switch (personNum)
    5610:	8c e0       	ldi	r24, 0x0C	; 12
    5612:	90 e0       	ldi	r25, 0x00	; 0
			case 6:
			{
				/* Rotate Stepper Motor clockwise with Half step sequence */
				for (int i = 0; i < 12; i++)
				{
					PORTD = 0x09;
    5614:	f9 e0       	ldi	r31, 0x09	; 9
					_delay_ms(period);
					PORTD = 0x08;
    5616:	e8 e0       	ldi	r30, 0x08	; 8
					_delay_ms(period);
					PORTD = 0x0C;
    5618:	7c e0       	ldi	r23, 0x0C	; 12
					_delay_ms(period);
					PORTD = 0x04;
    561a:	64 e0       	ldi	r22, 0x04	; 4
					_delay_ms(period);
					PORTD = 0x06;
    561c:	56 e0       	ldi	r21, 0x06	; 6
					_delay_ms(period);
					PORTD = 0x02;
    561e:	42 e0       	ldi	r20, 0x02	; 2
					_delay_ms(period);
					PORTD = 0x03;
    5620:	33 e0       	ldi	r19, 0x03	; 3
					_delay_ms(period);
					PORTD = 0x01;
    5622:	21 e0       	ldi	r18, 0x01	; 1
			case 6:
			{
				/* Rotate Stepper Motor clockwise with Half step sequence */
				for (int i = 0; i < 12; i++)
				{
					PORTD = 0x09;
    5624:	f2 bb       	out	0x12, r31	; 18
    5626:	af ef       	ldi	r26, 0xFF	; 255
    5628:	b1 ee       	ldi	r27, 0xE1	; 225
    562a:	c4 e0       	ldi	r28, 0x04	; 4
    562c:	a1 50       	subi	r26, 0x01	; 1
    562e:	b0 40       	sbci	r27, 0x00	; 0
    5630:	c0 40       	sbci	r28, 0x00	; 0
    5632:	e1 f7       	brne	.-8      	; 0x562c <__stack+0x4dcd>
    5634:	00 c0       	rjmp	.+0      	; 0x5636 <__stack+0x4dd7>
    5636:	00 00       	nop
					_delay_ms(period);
					PORTD = 0x08;
    5638:	e2 bb       	out	0x12, r30	; 18
    563a:	af ef       	ldi	r26, 0xFF	; 255
    563c:	b1 ee       	ldi	r27, 0xE1	; 225
    563e:	c4 e0       	ldi	r28, 0x04	; 4
    5640:	a1 50       	subi	r26, 0x01	; 1
    5642:	b0 40       	sbci	r27, 0x00	; 0
    5644:	c0 40       	sbci	r28, 0x00	; 0
    5646:	e1 f7       	brne	.-8      	; 0x5640 <__stack+0x4de1>
    5648:	00 c0       	rjmp	.+0      	; 0x564a <__stack+0x4deb>
    564a:	00 00       	nop
					_delay_ms(period);
					PORTD = 0x0C;
    564c:	72 bb       	out	0x12, r23	; 18
    564e:	af ef       	ldi	r26, 0xFF	; 255
    5650:	b1 ee       	ldi	r27, 0xE1	; 225
    5652:	c4 e0       	ldi	r28, 0x04	; 4
    5654:	a1 50       	subi	r26, 0x01	; 1
    5656:	b0 40       	sbci	r27, 0x00	; 0
    5658:	c0 40       	sbci	r28, 0x00	; 0
    565a:	e1 f7       	brne	.-8      	; 0x5654 <__stack+0x4df5>
    565c:	00 c0       	rjmp	.+0      	; 0x565e <__stack+0x4dff>
    565e:	00 00       	nop
					_delay_ms(period);
					PORTD = 0x04;
    5660:	62 bb       	out	0x12, r22	; 18
    5662:	af ef       	ldi	r26, 0xFF	; 255
    5664:	b1 ee       	ldi	r27, 0xE1	; 225
    5666:	c4 e0       	ldi	r28, 0x04	; 4
    5668:	a1 50       	subi	r26, 0x01	; 1
    566a:	b0 40       	sbci	r27, 0x00	; 0
    566c:	c0 40       	sbci	r28, 0x00	; 0
    566e:	e1 f7       	brne	.-8      	; 0x5668 <__stack+0x4e09>
    5670:	00 c0       	rjmp	.+0      	; 0x5672 <__stack+0x4e13>
    5672:	00 00       	nop
					_delay_ms(period);
					PORTD = 0x06;
    5674:	52 bb       	out	0x12, r21	; 18
    5676:	af ef       	ldi	r26, 0xFF	; 255
    5678:	b1 ee       	ldi	r27, 0xE1	; 225
    567a:	c4 e0       	ldi	r28, 0x04	; 4
    567c:	a1 50       	subi	r26, 0x01	; 1
    567e:	b0 40       	sbci	r27, 0x00	; 0
    5680:	c0 40       	sbci	r28, 0x00	; 0
    5682:	e1 f7       	brne	.-8      	; 0x567c <__stack+0x4e1d>
    5684:	00 c0       	rjmp	.+0      	; 0x5686 <__stack+0x4e27>
    5686:	00 00       	nop
					_delay_ms(period);
					PORTD = 0x02;
    5688:	42 bb       	out	0x12, r20	; 18
    568a:	af ef       	ldi	r26, 0xFF	; 255
    568c:	b1 ee       	ldi	r27, 0xE1	; 225
    568e:	c4 e0       	ldi	r28, 0x04	; 4
    5690:	a1 50       	subi	r26, 0x01	; 1
    5692:	b0 40       	sbci	r27, 0x00	; 0
    5694:	c0 40       	sbci	r28, 0x00	; 0
    5696:	e1 f7       	brne	.-8      	; 0x5690 <__stack+0x4e31>
    5698:	00 c0       	rjmp	.+0      	; 0x569a <__stack+0x4e3b>
    569a:	00 00       	nop
					_delay_ms(period);
					PORTD = 0x03;
    569c:	32 bb       	out	0x12, r19	; 18
    569e:	af ef       	ldi	r26, 0xFF	; 255
    56a0:	b1 ee       	ldi	r27, 0xE1	; 225
    56a2:	c4 e0       	ldi	r28, 0x04	; 4
    56a4:	a1 50       	subi	r26, 0x01	; 1
    56a6:	b0 40       	sbci	r27, 0x00	; 0
    56a8:	c0 40       	sbci	r28, 0x00	; 0
    56aa:	e1 f7       	brne	.-8      	; 0x56a4 <__stack+0x4e45>
    56ac:	00 c0       	rjmp	.+0      	; 0x56ae <__stack+0x4e4f>
    56ae:	00 00       	nop
					_delay_ms(period);
					PORTD = 0x01;
    56b0:	22 bb       	out	0x12, r18	; 18
    56b2:	af ef       	ldi	r26, 0xFF	; 255
    56b4:	b1 ee       	ldi	r27, 0xE1	; 225
    56b6:	c4 e0       	ldi	r28, 0x04	; 4
    56b8:	a1 50       	subi	r26, 0x01	; 1
    56ba:	b0 40       	sbci	r27, 0x00	; 0
    56bc:	c0 40       	sbci	r28, 0x00	; 0
    56be:	e1 f7       	brne	.-8      	; 0x56b8 <__stack+0x4e59>
    56c0:	00 c0       	rjmp	.+0      	; 0x56c2 <__stack+0x4e63>
    56c2:	00 00       	nop
    56c4:	01 97       	sbiw	r24, 0x01	; 1
				break;
			}
			case 6:
			{
				/* Rotate Stepper Motor clockwise with Half step sequence */
				for (int i = 0; i < 12; i++)
    56c6:	09 f0       	breq	.+2      	; 0x56ca <__stack+0x4e6b>
    56c8:	ad cf       	rjmp	.-166    	; 0x5624 <__stack+0x4dc5>
					PORTD = 0x03;
					_delay_ms(period);
					PORTD = 0x01;
					_delay_ms(period);
				}
				PORTD = 0x09; /* Last step to initial position */
    56ca:	89 e0       	ldi	r24, 0x09	; 9
    56cc:	82 bb       	out	0x12, r24	; 18
    56ce:	ef ef       	ldi	r30, 0xFF	; 255
    56d0:	21 ee       	ldi	r18, 0xE1	; 225
    56d2:	64 e0       	ldi	r22, 0x04	; 4
    56d4:	e1 50       	subi	r30, 0x01	; 1
    56d6:	20 40       	sbci	r18, 0x00	; 0
    56d8:	60 40       	sbci	r22, 0x00	; 0
    56da:	e1 f7       	brne	.-8      	; 0x56d4 <__stack+0x4e75>
    56dc:	00 c0       	rjmp	.+0      	; 0x56de <__stack+0x4e7f>
    56de:	00 00       	nop
    56e0:	7f ef       	ldi	r23, 0xFF	; 255
    56e2:	83 ed       	ldi	r24, 0xD3	; 211
    56e4:	90 e3       	ldi	r25, 0x30	; 48
    56e6:	71 50       	subi	r23, 0x01	; 1
    56e8:	80 40       	sbci	r24, 0x00	; 0
    56ea:	90 40       	sbci	r25, 0x00	; 0
    56ec:	e1 f7       	brne	.-8      	; 0x56e6 <__stack+0x4e87>
    56ee:	00 c0       	rjmp	.+0      	; 0x56f0 <__stack+0x4e91>
    56f0:	00 00       	nop
    56f2:	8c e0       	ldi	r24, 0x0C	; 12
    56f4:	90 e0       	ldi	r25, 0x00	; 0
				_delay_ms(1000);

				/* Rotate Stepper Motor Anticlockwise with Full step sequence */
				for (int i = 0; i < 12; i++)
				{
					PORTD = 0x09;
    56f6:	59 e0       	ldi	r21, 0x09	; 9
					_delay_ms(period);
					PORTD = 0x03;
    56f8:	43 e0       	ldi	r20, 0x03	; 3
					_delay_ms(period);
					PORTD = 0x06;
    56fa:	36 e0       	ldi	r19, 0x06	; 6
					_delay_ms(period);
					PORTD = 0x0C;
    56fc:	2c e0       	ldi	r18, 0x0C	; 12
				_delay_ms(1000);

				/* Rotate Stepper Motor Anticlockwise with Full step sequence */
				for (int i = 0; i < 12; i++)
				{
					PORTD = 0x09;
    56fe:	52 bb       	out	0x12, r21	; 18
    5700:	af ef       	ldi	r26, 0xFF	; 255
    5702:	b1 ee       	ldi	r27, 0xE1	; 225
    5704:	c4 e0       	ldi	r28, 0x04	; 4
    5706:	a1 50       	subi	r26, 0x01	; 1
    5708:	b0 40       	sbci	r27, 0x00	; 0
    570a:	c0 40       	sbci	r28, 0x00	; 0
    570c:	e1 f7       	brne	.-8      	; 0x5706 <__stack+0x4ea7>
    570e:	00 c0       	rjmp	.+0      	; 0x5710 <__stack+0x4eb1>
    5710:	00 00       	nop
					_delay_ms(period);
					PORTD = 0x03;
    5712:	42 bb       	out	0x12, r20	; 18
    5714:	ef ef       	ldi	r30, 0xFF	; 255
    5716:	61 ee       	ldi	r22, 0xE1	; 225
    5718:	74 e0       	ldi	r23, 0x04	; 4
    571a:	e1 50       	subi	r30, 0x01	; 1
    571c:	60 40       	sbci	r22, 0x00	; 0
    571e:	70 40       	sbci	r23, 0x00	; 0
    5720:	e1 f7       	brne	.-8      	; 0x571a <__stack+0x4ebb>
    5722:	00 c0       	rjmp	.+0      	; 0x5724 <__stack+0x4ec5>
    5724:	00 00       	nop
					_delay_ms(period);
					PORTD = 0x06;
    5726:	32 bb       	out	0x12, r19	; 18
    5728:	af ef       	ldi	r26, 0xFF	; 255
    572a:	b1 ee       	ldi	r27, 0xE1	; 225
    572c:	c4 e0       	ldi	r28, 0x04	; 4
    572e:	a1 50       	subi	r26, 0x01	; 1
    5730:	b0 40       	sbci	r27, 0x00	; 0
    5732:	c0 40       	sbci	r28, 0x00	; 0
    5734:	e1 f7       	brne	.-8      	; 0x572e <__stack+0x4ecf>
    5736:	00 c0       	rjmp	.+0      	; 0x5738 <__stack+0x4ed9>
    5738:	00 00       	nop
					_delay_ms(period);
					PORTD = 0x0C;
    573a:	22 bb       	out	0x12, r18	; 18
    573c:	ef ef       	ldi	r30, 0xFF	; 255
    573e:	61 ee       	ldi	r22, 0xE1	; 225
    5740:	74 e0       	ldi	r23, 0x04	; 4
    5742:	e1 50       	subi	r30, 0x01	; 1
    5744:	60 40       	sbci	r22, 0x00	; 0
    5746:	70 40       	sbci	r23, 0x00	; 0
    5748:	e1 f7       	brne	.-8      	; 0x5742 <__stack+0x4ee3>
    574a:	00 c0       	rjmp	.+0      	; 0x574c <__stack+0x4eed>
    574c:	00 00       	nop
    574e:	01 97       	sbiw	r24, 0x01	; 1
				PORTD = 0x09; /* Last step to initial position */
				_delay_ms(period);
				_delay_ms(1000);

				/* Rotate Stepper Motor Anticlockwise with Full step sequence */
				for (int i = 0; i < 12; i++)
    5750:	b1 f6       	brne	.-84     	; 0x56fe <__stack+0x4e9f>
					PORTD = 0x06;
					_delay_ms(period);
					PORTD = 0x0C;
					_delay_ms(period);
				}
				PORTD = 0x09;
    5752:	89 e0       	ldi	r24, 0x09	; 9
    5754:	82 bb       	out	0x12, r24	; 18
    5756:	8f ef       	ldi	r24, 0xFF	; 255
    5758:	91 ee       	ldi	r25, 0xE1	; 225
    575a:	a4 e0       	ldi	r26, 0x04	; 4
    575c:	81 50       	subi	r24, 0x01	; 1
    575e:	90 40       	sbci	r25, 0x00	; 0
    5760:	a0 40       	sbci	r26, 0x00	; 0
    5762:	e1 f7       	brne	.-8      	; 0x575c <__stack+0x4efd>
    5764:	00 c0       	rjmp	.+0      	; 0x5766 <__stack+0x4f07>
    5766:	00 00       	nop
    5768:	bf ef       	ldi	r27, 0xFF	; 255
    576a:	c3 ed       	ldi	r28, 0xD3	; 211
    576c:	e0 e3       	ldi	r30, 0x30	; 48
    576e:	b1 50       	subi	r27, 0x01	; 1
    5770:	c0 40       	sbci	r28, 0x00	; 0
    5772:	e0 40       	sbci	r30, 0x00	; 0
    5774:	e1 f7       	brne	.-8      	; 0x576e <__stack+0x4f0f>
    5776:	00 c0       	rjmp	.+0      	; 0x5778 <__stack+0x4f19>
    5778:	00 00       	nop
    577a:	0c 94 2c 3b 	jmp	0x7658	; 0x7658 <__stack+0x6df9>
				break;
			}
		}
		break;
		case 7:
		switch (personNum)
    577e:	8c e0       	ldi	r24, 0x0C	; 12
    5780:	90 e0       	ldi	r25, 0x00	; 0
			case 7:
			{
				/* Rotate Stepper Motor clockwise with Half step sequence */
				for (int i = 0; i < 12; i++)
				{
					PORTD = 0x09;
    5782:	f9 e0       	ldi	r31, 0x09	; 9
					_delay_ms(period);
					PORTD = 0x08;
    5784:	e8 e0       	ldi	r30, 0x08	; 8
					_delay_ms(period);
					PORTD = 0x0C;
    5786:	7c e0       	ldi	r23, 0x0C	; 12
					_delay_ms(period);
					PORTD = 0x04;
    5788:	64 e0       	ldi	r22, 0x04	; 4
					_delay_ms(period);
					PORTD = 0x06;
    578a:	56 e0       	ldi	r21, 0x06	; 6
					_delay_ms(period);
					PORTD = 0x02;
    578c:	42 e0       	ldi	r20, 0x02	; 2
					_delay_ms(period);
					PORTD = 0x03;
    578e:	33 e0       	ldi	r19, 0x03	; 3
					_delay_ms(period);
					PORTD = 0x01;
    5790:	21 e0       	ldi	r18, 0x01	; 1
			case 7:
			{
				/* Rotate Stepper Motor clockwise with Half step sequence */
				for (int i = 0; i < 12; i++)
				{
					PORTD = 0x09;
    5792:	f2 bb       	out	0x12, r31	; 18
    5794:	af ef       	ldi	r26, 0xFF	; 255
    5796:	b1 ee       	ldi	r27, 0xE1	; 225
    5798:	c4 e0       	ldi	r28, 0x04	; 4
    579a:	a1 50       	subi	r26, 0x01	; 1
    579c:	b0 40       	sbci	r27, 0x00	; 0
    579e:	c0 40       	sbci	r28, 0x00	; 0
    57a0:	e1 f7       	brne	.-8      	; 0x579a <__stack+0x4f3b>
    57a2:	00 c0       	rjmp	.+0      	; 0x57a4 <__stack+0x4f45>
    57a4:	00 00       	nop
					_delay_ms(period);
					PORTD = 0x08;
    57a6:	e2 bb       	out	0x12, r30	; 18
    57a8:	af ef       	ldi	r26, 0xFF	; 255
    57aa:	b1 ee       	ldi	r27, 0xE1	; 225
    57ac:	c4 e0       	ldi	r28, 0x04	; 4
    57ae:	a1 50       	subi	r26, 0x01	; 1
    57b0:	b0 40       	sbci	r27, 0x00	; 0
    57b2:	c0 40       	sbci	r28, 0x00	; 0
    57b4:	e1 f7       	brne	.-8      	; 0x57ae <__stack+0x4f4f>
    57b6:	00 c0       	rjmp	.+0      	; 0x57b8 <__stack+0x4f59>
    57b8:	00 00       	nop
					_delay_ms(period);
					PORTD = 0x0C;
    57ba:	72 bb       	out	0x12, r23	; 18
    57bc:	af ef       	ldi	r26, 0xFF	; 255
    57be:	b1 ee       	ldi	r27, 0xE1	; 225
    57c0:	c4 e0       	ldi	r28, 0x04	; 4
    57c2:	a1 50       	subi	r26, 0x01	; 1
    57c4:	b0 40       	sbci	r27, 0x00	; 0
    57c6:	c0 40       	sbci	r28, 0x00	; 0
    57c8:	e1 f7       	brne	.-8      	; 0x57c2 <__stack+0x4f63>
    57ca:	00 c0       	rjmp	.+0      	; 0x57cc <__stack+0x4f6d>
    57cc:	00 00       	nop
					_delay_ms(period);
					PORTD = 0x04;
    57ce:	62 bb       	out	0x12, r22	; 18
    57d0:	af ef       	ldi	r26, 0xFF	; 255
    57d2:	b1 ee       	ldi	r27, 0xE1	; 225
    57d4:	c4 e0       	ldi	r28, 0x04	; 4
    57d6:	a1 50       	subi	r26, 0x01	; 1
    57d8:	b0 40       	sbci	r27, 0x00	; 0
    57da:	c0 40       	sbci	r28, 0x00	; 0
    57dc:	e1 f7       	brne	.-8      	; 0x57d6 <__stack+0x4f77>
    57de:	00 c0       	rjmp	.+0      	; 0x57e0 <__stack+0x4f81>
    57e0:	00 00       	nop
					_delay_ms(period);
					PORTD = 0x06;
    57e2:	52 bb       	out	0x12, r21	; 18
    57e4:	af ef       	ldi	r26, 0xFF	; 255
    57e6:	b1 ee       	ldi	r27, 0xE1	; 225
    57e8:	c4 e0       	ldi	r28, 0x04	; 4
    57ea:	a1 50       	subi	r26, 0x01	; 1
    57ec:	b0 40       	sbci	r27, 0x00	; 0
    57ee:	c0 40       	sbci	r28, 0x00	; 0
    57f0:	e1 f7       	brne	.-8      	; 0x57ea <__stack+0x4f8b>
    57f2:	00 c0       	rjmp	.+0      	; 0x57f4 <__stack+0x4f95>
    57f4:	00 00       	nop
					_delay_ms(period);
					PORTD = 0x02;
    57f6:	42 bb       	out	0x12, r20	; 18
    57f8:	af ef       	ldi	r26, 0xFF	; 255
    57fa:	b1 ee       	ldi	r27, 0xE1	; 225
    57fc:	c4 e0       	ldi	r28, 0x04	; 4
    57fe:	a1 50       	subi	r26, 0x01	; 1
    5800:	b0 40       	sbci	r27, 0x00	; 0
    5802:	c0 40       	sbci	r28, 0x00	; 0
    5804:	e1 f7       	brne	.-8      	; 0x57fe <__stack+0x4f9f>
    5806:	00 c0       	rjmp	.+0      	; 0x5808 <__stack+0x4fa9>
    5808:	00 00       	nop
					_delay_ms(period);
					PORTD = 0x03;
    580a:	32 bb       	out	0x12, r19	; 18
    580c:	af ef       	ldi	r26, 0xFF	; 255
    580e:	b1 ee       	ldi	r27, 0xE1	; 225
    5810:	c4 e0       	ldi	r28, 0x04	; 4
    5812:	a1 50       	subi	r26, 0x01	; 1
    5814:	b0 40       	sbci	r27, 0x00	; 0
    5816:	c0 40       	sbci	r28, 0x00	; 0
    5818:	e1 f7       	brne	.-8      	; 0x5812 <__stack+0x4fb3>
    581a:	00 c0       	rjmp	.+0      	; 0x581c <__stack+0x4fbd>
    581c:	00 00       	nop
					_delay_ms(period);
					PORTD = 0x01;
    581e:	22 bb       	out	0x12, r18	; 18
    5820:	af ef       	ldi	r26, 0xFF	; 255
    5822:	b1 ee       	ldi	r27, 0xE1	; 225
    5824:	c4 e0       	ldi	r28, 0x04	; 4
    5826:	a1 50       	subi	r26, 0x01	; 1
    5828:	b0 40       	sbci	r27, 0x00	; 0
    582a:	c0 40       	sbci	r28, 0x00	; 0
    582c:	e1 f7       	brne	.-8      	; 0x5826 <__stack+0x4fc7>
    582e:	00 c0       	rjmp	.+0      	; 0x5830 <__stack+0x4fd1>
    5830:	00 00       	nop
    5832:	01 97       	sbiw	r24, 0x01	; 1
				break;
			}
			case 7:
			{
				/* Rotate Stepper Motor clockwise with Half step sequence */
				for (int i = 0; i < 12; i++)
    5834:	09 f0       	breq	.+2      	; 0x5838 <__stack+0x4fd9>
    5836:	ad cf       	rjmp	.-166    	; 0x5792 <__stack+0x4f33>
					PORTD = 0x03;
					_delay_ms(period);
					PORTD = 0x01;
					_delay_ms(period);
				}
				PORTD = 0x09; /* Last step to initial position */
    5838:	89 e0       	ldi	r24, 0x09	; 9
    583a:	82 bb       	out	0x12, r24	; 18
    583c:	ef ef       	ldi	r30, 0xFF	; 255
    583e:	21 ee       	ldi	r18, 0xE1	; 225
    5840:	64 e0       	ldi	r22, 0x04	; 4
    5842:	e1 50       	subi	r30, 0x01	; 1
    5844:	20 40       	sbci	r18, 0x00	; 0
    5846:	60 40       	sbci	r22, 0x00	; 0
    5848:	e1 f7       	brne	.-8      	; 0x5842 <__stack+0x4fe3>
    584a:	00 c0       	rjmp	.+0      	; 0x584c <__stack+0x4fed>
    584c:	00 00       	nop
    584e:	7f ef       	ldi	r23, 0xFF	; 255
    5850:	83 ed       	ldi	r24, 0xD3	; 211
    5852:	90 e3       	ldi	r25, 0x30	; 48
    5854:	71 50       	subi	r23, 0x01	; 1
    5856:	80 40       	sbci	r24, 0x00	; 0
    5858:	90 40       	sbci	r25, 0x00	; 0
    585a:	e1 f7       	brne	.-8      	; 0x5854 <__stack+0x4ff5>
    585c:	00 c0       	rjmp	.+0      	; 0x585e <__stack+0x4fff>
    585e:	00 00       	nop
    5860:	8c e0       	ldi	r24, 0x0C	; 12
    5862:	90 e0       	ldi	r25, 0x00	; 0
				_delay_ms(1000);

				/* Rotate Stepper Motor Anticlockwise with Full step sequence */
				for (int i = 0; i < 12; i++)
				{
					PORTD = 0x09;
    5864:	59 e0       	ldi	r21, 0x09	; 9
					_delay_ms(period);
					PORTD = 0x03;
    5866:	43 e0       	ldi	r20, 0x03	; 3
					_delay_ms(period);
					PORTD = 0x06;
    5868:	36 e0       	ldi	r19, 0x06	; 6
					_delay_ms(period);
					PORTD = 0x0C;
    586a:	2c e0       	ldi	r18, 0x0C	; 12
				_delay_ms(1000);

				/* Rotate Stepper Motor Anticlockwise with Full step sequence */
				for (int i = 0; i < 12; i++)
				{
					PORTD = 0x09;
    586c:	52 bb       	out	0x12, r21	; 18
    586e:	af ef       	ldi	r26, 0xFF	; 255
    5870:	b1 ee       	ldi	r27, 0xE1	; 225
    5872:	c4 e0       	ldi	r28, 0x04	; 4
    5874:	a1 50       	subi	r26, 0x01	; 1
    5876:	b0 40       	sbci	r27, 0x00	; 0
    5878:	c0 40       	sbci	r28, 0x00	; 0
    587a:	e1 f7       	brne	.-8      	; 0x5874 <__stack+0x5015>
    587c:	00 c0       	rjmp	.+0      	; 0x587e <__stack+0x501f>
    587e:	00 00       	nop
					_delay_ms(period);
					PORTD = 0x03;
    5880:	42 bb       	out	0x12, r20	; 18
    5882:	ef ef       	ldi	r30, 0xFF	; 255
    5884:	61 ee       	ldi	r22, 0xE1	; 225
    5886:	74 e0       	ldi	r23, 0x04	; 4
    5888:	e1 50       	subi	r30, 0x01	; 1
    588a:	60 40       	sbci	r22, 0x00	; 0
    588c:	70 40       	sbci	r23, 0x00	; 0
    588e:	e1 f7       	brne	.-8      	; 0x5888 <__stack+0x5029>
    5890:	00 c0       	rjmp	.+0      	; 0x5892 <__stack+0x5033>
    5892:	00 00       	nop
					_delay_ms(period);
					PORTD = 0x06;
    5894:	32 bb       	out	0x12, r19	; 18
    5896:	af ef       	ldi	r26, 0xFF	; 255
    5898:	b1 ee       	ldi	r27, 0xE1	; 225
    589a:	c4 e0       	ldi	r28, 0x04	; 4
    589c:	a1 50       	subi	r26, 0x01	; 1
    589e:	b0 40       	sbci	r27, 0x00	; 0
    58a0:	c0 40       	sbci	r28, 0x00	; 0
    58a2:	e1 f7       	brne	.-8      	; 0x589c <__stack+0x503d>
    58a4:	00 c0       	rjmp	.+0      	; 0x58a6 <__stack+0x5047>
    58a6:	00 00       	nop
					_delay_ms(period);
					PORTD = 0x0C;
    58a8:	22 bb       	out	0x12, r18	; 18
    58aa:	ef ef       	ldi	r30, 0xFF	; 255
    58ac:	61 ee       	ldi	r22, 0xE1	; 225
    58ae:	74 e0       	ldi	r23, 0x04	; 4
    58b0:	e1 50       	subi	r30, 0x01	; 1
    58b2:	60 40       	sbci	r22, 0x00	; 0
    58b4:	70 40       	sbci	r23, 0x00	; 0
    58b6:	e1 f7       	brne	.-8      	; 0x58b0 <__stack+0x5051>
    58b8:	00 c0       	rjmp	.+0      	; 0x58ba <__stack+0x505b>
    58ba:	00 00       	nop
    58bc:	01 97       	sbiw	r24, 0x01	; 1
				PORTD = 0x09; /* Last step to initial position */
				_delay_ms(period);
				_delay_ms(1000);

				/* Rotate Stepper Motor Anticlockwise with Full step sequence */
				for (int i = 0; i < 12; i++)
    58be:	b1 f6       	brne	.-84     	; 0x586c <__stack+0x500d>
					PORTD = 0x06;
					_delay_ms(period);
					PORTD = 0x0C;
					_delay_ms(period);
				}
				PORTD = 0x09;
    58c0:	89 e0       	ldi	r24, 0x09	; 9
    58c2:	82 bb       	out	0x12, r24	; 18
    58c4:	8f ef       	ldi	r24, 0xFF	; 255
    58c6:	91 ee       	ldi	r25, 0xE1	; 225
    58c8:	a4 e0       	ldi	r26, 0x04	; 4
    58ca:	81 50       	subi	r24, 0x01	; 1
    58cc:	90 40       	sbci	r25, 0x00	; 0
    58ce:	a0 40       	sbci	r26, 0x00	; 0
    58d0:	e1 f7       	brne	.-8      	; 0x58ca <__stack+0x506b>
    58d2:	00 c0       	rjmp	.+0      	; 0x58d4 <__stack+0x5075>
    58d4:	00 00       	nop
    58d6:	bf ef       	ldi	r27, 0xFF	; 255
    58d8:	c3 ed       	ldi	r28, 0xD3	; 211
    58da:	e0 e3       	ldi	r30, 0x30	; 48
    58dc:	b1 50       	subi	r27, 0x01	; 1
    58de:	c0 40       	sbci	r28, 0x00	; 0
    58e0:	e0 40       	sbci	r30, 0x00	; 0
    58e2:	e1 f7       	brne	.-8      	; 0x58dc <__stack+0x507d>
    58e4:	00 c0       	rjmp	.+0      	; 0x58e6 <__stack+0x5087>
    58e6:	00 00       	nop
    58e8:	0c 94 2c 3b 	jmp	0x7658	; 0x7658 <__stack+0x6df9>
				break;
			}
		}
		break;
		case 7:
		switch (personNum)
    58ec:	8c e0       	ldi	r24, 0x0C	; 12
    58ee:	90 e0       	ldi	r25, 0x00	; 0
			case 8:
			{
				/* Rotate Stepper Motor clockwise with Half step sequence */
				for (int i = 0; i < 12; i++)
				{
					PORTD = 0x09;
    58f0:	f9 e0       	ldi	r31, 0x09	; 9
					_delay_ms(period);
					PORTD = 0x08;
    58f2:	e8 e0       	ldi	r30, 0x08	; 8
					_delay_ms(period);
					PORTD = 0x0C;
    58f4:	7c e0       	ldi	r23, 0x0C	; 12
					_delay_ms(period);
					PORTD = 0x04;
    58f6:	64 e0       	ldi	r22, 0x04	; 4
					_delay_ms(period);
					PORTD = 0x06;
    58f8:	56 e0       	ldi	r21, 0x06	; 6
					_delay_ms(period);
					PORTD = 0x02;
    58fa:	42 e0       	ldi	r20, 0x02	; 2
					_delay_ms(period);
					PORTD = 0x03;
    58fc:	33 e0       	ldi	r19, 0x03	; 3
					_delay_ms(period);
					PORTD = 0x01;
    58fe:	21 e0       	ldi	r18, 0x01	; 1
			case 8:
			{
				/* Rotate Stepper Motor clockwise with Half step sequence */
				for (int i = 0; i < 12; i++)
				{
					PORTD = 0x09;
    5900:	f2 bb       	out	0x12, r31	; 18
    5902:	af ef       	ldi	r26, 0xFF	; 255
    5904:	b1 ee       	ldi	r27, 0xE1	; 225
    5906:	c4 e0       	ldi	r28, 0x04	; 4
    5908:	a1 50       	subi	r26, 0x01	; 1
    590a:	b0 40       	sbci	r27, 0x00	; 0
    590c:	c0 40       	sbci	r28, 0x00	; 0
    590e:	e1 f7       	brne	.-8      	; 0x5908 <__stack+0x50a9>
    5910:	00 c0       	rjmp	.+0      	; 0x5912 <__stack+0x50b3>
    5912:	00 00       	nop
					_delay_ms(period);
					PORTD = 0x08;
    5914:	e2 bb       	out	0x12, r30	; 18
    5916:	af ef       	ldi	r26, 0xFF	; 255
    5918:	b1 ee       	ldi	r27, 0xE1	; 225
    591a:	c4 e0       	ldi	r28, 0x04	; 4
    591c:	a1 50       	subi	r26, 0x01	; 1
    591e:	b0 40       	sbci	r27, 0x00	; 0
    5920:	c0 40       	sbci	r28, 0x00	; 0
    5922:	e1 f7       	brne	.-8      	; 0x591c <__stack+0x50bd>
    5924:	00 c0       	rjmp	.+0      	; 0x5926 <__stack+0x50c7>
    5926:	00 00       	nop
					_delay_ms(period);
					PORTD = 0x0C;
    5928:	72 bb       	out	0x12, r23	; 18
    592a:	af ef       	ldi	r26, 0xFF	; 255
    592c:	b1 ee       	ldi	r27, 0xE1	; 225
    592e:	c4 e0       	ldi	r28, 0x04	; 4
    5930:	a1 50       	subi	r26, 0x01	; 1
    5932:	b0 40       	sbci	r27, 0x00	; 0
    5934:	c0 40       	sbci	r28, 0x00	; 0
    5936:	e1 f7       	brne	.-8      	; 0x5930 <__stack+0x50d1>
    5938:	00 c0       	rjmp	.+0      	; 0x593a <__stack+0x50db>
    593a:	00 00       	nop
					_delay_ms(period);
					PORTD = 0x04;
    593c:	62 bb       	out	0x12, r22	; 18
    593e:	af ef       	ldi	r26, 0xFF	; 255
    5940:	b1 ee       	ldi	r27, 0xE1	; 225
    5942:	c4 e0       	ldi	r28, 0x04	; 4
    5944:	a1 50       	subi	r26, 0x01	; 1
    5946:	b0 40       	sbci	r27, 0x00	; 0
    5948:	c0 40       	sbci	r28, 0x00	; 0
    594a:	e1 f7       	brne	.-8      	; 0x5944 <__stack+0x50e5>
    594c:	00 c0       	rjmp	.+0      	; 0x594e <__stack+0x50ef>
    594e:	00 00       	nop
					_delay_ms(period);
					PORTD = 0x06;
    5950:	52 bb       	out	0x12, r21	; 18
    5952:	af ef       	ldi	r26, 0xFF	; 255
    5954:	b1 ee       	ldi	r27, 0xE1	; 225
    5956:	c4 e0       	ldi	r28, 0x04	; 4
    5958:	a1 50       	subi	r26, 0x01	; 1
    595a:	b0 40       	sbci	r27, 0x00	; 0
    595c:	c0 40       	sbci	r28, 0x00	; 0
    595e:	e1 f7       	brne	.-8      	; 0x5958 <__stack+0x50f9>
    5960:	00 c0       	rjmp	.+0      	; 0x5962 <__stack+0x5103>
    5962:	00 00       	nop
					_delay_ms(period);
					PORTD = 0x02;
    5964:	42 bb       	out	0x12, r20	; 18
    5966:	af ef       	ldi	r26, 0xFF	; 255
    5968:	b1 ee       	ldi	r27, 0xE1	; 225
    596a:	c4 e0       	ldi	r28, 0x04	; 4
    596c:	a1 50       	subi	r26, 0x01	; 1
    596e:	b0 40       	sbci	r27, 0x00	; 0
    5970:	c0 40       	sbci	r28, 0x00	; 0
    5972:	e1 f7       	brne	.-8      	; 0x596c <__stack+0x510d>
    5974:	00 c0       	rjmp	.+0      	; 0x5976 <__stack+0x5117>
    5976:	00 00       	nop
					_delay_ms(period);
					PORTD = 0x03;
    5978:	32 bb       	out	0x12, r19	; 18
    597a:	af ef       	ldi	r26, 0xFF	; 255
    597c:	b1 ee       	ldi	r27, 0xE1	; 225
    597e:	c4 e0       	ldi	r28, 0x04	; 4
    5980:	a1 50       	subi	r26, 0x01	; 1
    5982:	b0 40       	sbci	r27, 0x00	; 0
    5984:	c0 40       	sbci	r28, 0x00	; 0
    5986:	e1 f7       	brne	.-8      	; 0x5980 <__stack+0x5121>
    5988:	00 c0       	rjmp	.+0      	; 0x598a <__stack+0x512b>
    598a:	00 00       	nop
					_delay_ms(period);
					PORTD = 0x01;
    598c:	22 bb       	out	0x12, r18	; 18
    598e:	af ef       	ldi	r26, 0xFF	; 255
    5990:	b1 ee       	ldi	r27, 0xE1	; 225
    5992:	c4 e0       	ldi	r28, 0x04	; 4
    5994:	a1 50       	subi	r26, 0x01	; 1
    5996:	b0 40       	sbci	r27, 0x00	; 0
    5998:	c0 40       	sbci	r28, 0x00	; 0
    599a:	e1 f7       	brne	.-8      	; 0x5994 <__stack+0x5135>
    599c:	00 c0       	rjmp	.+0      	; 0x599e <__stack+0x513f>
    599e:	00 00       	nop
    59a0:	01 97       	sbiw	r24, 0x01	; 1
				break;
			}
			case 8:
			{
				/* Rotate Stepper Motor clockwise with Half step sequence */
				for (int i = 0; i < 12; i++)
    59a2:	09 f0       	breq	.+2      	; 0x59a6 <__stack+0x5147>
    59a4:	ad cf       	rjmp	.-166    	; 0x5900 <__stack+0x50a1>
					PORTD = 0x03;
					_delay_ms(period);
					PORTD = 0x01;
					_delay_ms(period);
				}
				PORTD = 0x09; /* Last step to initial position */
    59a6:	89 e0       	ldi	r24, 0x09	; 9
    59a8:	82 bb       	out	0x12, r24	; 18
    59aa:	ef ef       	ldi	r30, 0xFF	; 255
    59ac:	21 ee       	ldi	r18, 0xE1	; 225
    59ae:	64 e0       	ldi	r22, 0x04	; 4
    59b0:	e1 50       	subi	r30, 0x01	; 1
    59b2:	20 40       	sbci	r18, 0x00	; 0
    59b4:	60 40       	sbci	r22, 0x00	; 0
    59b6:	e1 f7       	brne	.-8      	; 0x59b0 <__stack+0x5151>
    59b8:	00 c0       	rjmp	.+0      	; 0x59ba <__stack+0x515b>
    59ba:	00 00       	nop
    59bc:	7f ef       	ldi	r23, 0xFF	; 255
    59be:	83 ed       	ldi	r24, 0xD3	; 211
    59c0:	90 e3       	ldi	r25, 0x30	; 48
    59c2:	71 50       	subi	r23, 0x01	; 1
    59c4:	80 40       	sbci	r24, 0x00	; 0
    59c6:	90 40       	sbci	r25, 0x00	; 0
    59c8:	e1 f7       	brne	.-8      	; 0x59c2 <__stack+0x5163>
    59ca:	00 c0       	rjmp	.+0      	; 0x59cc <__stack+0x516d>
    59cc:	00 00       	nop
    59ce:	8c e0       	ldi	r24, 0x0C	; 12
    59d0:	90 e0       	ldi	r25, 0x00	; 0
				_delay_ms(1000);

				/* Rotate Stepper Motor Anticlockwise with Full step sequence */
				for (int i = 0; i < 12; i++)
				{
					PORTD = 0x09;
    59d2:	59 e0       	ldi	r21, 0x09	; 9
					_delay_ms(period);
					PORTD = 0x03;
    59d4:	43 e0       	ldi	r20, 0x03	; 3
					_delay_ms(period);
					PORTD = 0x06;
    59d6:	36 e0       	ldi	r19, 0x06	; 6
					_delay_ms(period);
					PORTD = 0x0C;
    59d8:	2c e0       	ldi	r18, 0x0C	; 12
				_delay_ms(1000);

				/* Rotate Stepper Motor Anticlockwise with Full step sequence */
				for (int i = 0; i < 12; i++)
				{
					PORTD = 0x09;
    59da:	52 bb       	out	0x12, r21	; 18
    59dc:	af ef       	ldi	r26, 0xFF	; 255
    59de:	b1 ee       	ldi	r27, 0xE1	; 225
    59e0:	c4 e0       	ldi	r28, 0x04	; 4
    59e2:	a1 50       	subi	r26, 0x01	; 1
    59e4:	b0 40       	sbci	r27, 0x00	; 0
    59e6:	c0 40       	sbci	r28, 0x00	; 0
    59e8:	e1 f7       	brne	.-8      	; 0x59e2 <__stack+0x5183>
    59ea:	00 c0       	rjmp	.+0      	; 0x59ec <__stack+0x518d>
    59ec:	00 00       	nop
					_delay_ms(period);
					PORTD = 0x03;
    59ee:	42 bb       	out	0x12, r20	; 18
    59f0:	ef ef       	ldi	r30, 0xFF	; 255
    59f2:	61 ee       	ldi	r22, 0xE1	; 225
    59f4:	74 e0       	ldi	r23, 0x04	; 4
    59f6:	e1 50       	subi	r30, 0x01	; 1
    59f8:	60 40       	sbci	r22, 0x00	; 0
    59fa:	70 40       	sbci	r23, 0x00	; 0
    59fc:	e1 f7       	brne	.-8      	; 0x59f6 <__stack+0x5197>
    59fe:	00 c0       	rjmp	.+0      	; 0x5a00 <__stack+0x51a1>
    5a00:	00 00       	nop
					_delay_ms(period);
					PORTD = 0x06;
    5a02:	32 bb       	out	0x12, r19	; 18
    5a04:	af ef       	ldi	r26, 0xFF	; 255
    5a06:	b1 ee       	ldi	r27, 0xE1	; 225
    5a08:	c4 e0       	ldi	r28, 0x04	; 4
    5a0a:	a1 50       	subi	r26, 0x01	; 1
    5a0c:	b0 40       	sbci	r27, 0x00	; 0
    5a0e:	c0 40       	sbci	r28, 0x00	; 0
    5a10:	e1 f7       	brne	.-8      	; 0x5a0a <__stack+0x51ab>
    5a12:	00 c0       	rjmp	.+0      	; 0x5a14 <__stack+0x51b5>
    5a14:	00 00       	nop
					_delay_ms(period);
					PORTD = 0x0C;
    5a16:	22 bb       	out	0x12, r18	; 18
    5a18:	ef ef       	ldi	r30, 0xFF	; 255
    5a1a:	61 ee       	ldi	r22, 0xE1	; 225
    5a1c:	74 e0       	ldi	r23, 0x04	; 4
    5a1e:	e1 50       	subi	r30, 0x01	; 1
    5a20:	60 40       	sbci	r22, 0x00	; 0
    5a22:	70 40       	sbci	r23, 0x00	; 0
    5a24:	e1 f7       	brne	.-8      	; 0x5a1e <__stack+0x51bf>
    5a26:	00 c0       	rjmp	.+0      	; 0x5a28 <__stack+0x51c9>
    5a28:	00 00       	nop
    5a2a:	01 97       	sbiw	r24, 0x01	; 1
				PORTD = 0x09; /* Last step to initial position */
				_delay_ms(period);
				_delay_ms(1000);

				/* Rotate Stepper Motor Anticlockwise with Full step sequence */
				for (int i = 0; i < 12; i++)
    5a2c:	b1 f6       	brne	.-84     	; 0x59da <__stack+0x517b>
					PORTD = 0x06;
					_delay_ms(period);
					PORTD = 0x0C;
					_delay_ms(period);
				}
				PORTD = 0x09;
    5a2e:	89 e0       	ldi	r24, 0x09	; 9
    5a30:	82 bb       	out	0x12, r24	; 18
    5a32:	8f ef       	ldi	r24, 0xFF	; 255
    5a34:	91 ee       	ldi	r25, 0xE1	; 225
    5a36:	a4 e0       	ldi	r26, 0x04	; 4
    5a38:	81 50       	subi	r24, 0x01	; 1
    5a3a:	90 40       	sbci	r25, 0x00	; 0
    5a3c:	a0 40       	sbci	r26, 0x00	; 0
    5a3e:	e1 f7       	brne	.-8      	; 0x5a38 <__stack+0x51d9>
    5a40:	00 c0       	rjmp	.+0      	; 0x5a42 <__stack+0x51e3>
    5a42:	00 00       	nop
    5a44:	bf ef       	ldi	r27, 0xFF	; 255
    5a46:	c3 ed       	ldi	r28, 0xD3	; 211
    5a48:	e0 e3       	ldi	r30, 0x30	; 48
    5a4a:	b1 50       	subi	r27, 0x01	; 1
    5a4c:	c0 40       	sbci	r28, 0x00	; 0
    5a4e:	e0 40       	sbci	r30, 0x00	; 0
    5a50:	e1 f7       	brne	.-8      	; 0x5a4a <__stack+0x51eb>
    5a52:	00 c0       	rjmp	.+0      	; 0x5a54 <__stack+0x51f5>
    5a54:	00 00       	nop
    5a56:	0c 94 2c 3b 	jmp	0x7658	; 0x7658 <__stack+0x6df9>
				break;
			}
		}
		break;
		case 7:
		switch (personNum)
    5a5a:	8c e0       	ldi	r24, 0x0C	; 12
    5a5c:	90 e0       	ldi	r25, 0x00	; 0
			case 9:
			{
				/* Rotate Stepper Motor clockwise with Half step sequence */
				for (int i = 0; i < 12; i++)
				{
					PORTD = 0x09;
    5a5e:	f9 e0       	ldi	r31, 0x09	; 9
					_delay_ms(period);
					PORTD = 0x08;
    5a60:	e8 e0       	ldi	r30, 0x08	; 8
					_delay_ms(period);
					PORTD = 0x0C;
    5a62:	7c e0       	ldi	r23, 0x0C	; 12
					_delay_ms(period);
					PORTD = 0x04;
    5a64:	64 e0       	ldi	r22, 0x04	; 4
					_delay_ms(period);
					PORTD = 0x06;
    5a66:	56 e0       	ldi	r21, 0x06	; 6
					_delay_ms(period);
					PORTD = 0x02;
    5a68:	42 e0       	ldi	r20, 0x02	; 2
					_delay_ms(period);
					PORTD = 0x03;
    5a6a:	33 e0       	ldi	r19, 0x03	; 3
					_delay_ms(period);
					PORTD = 0x01;
    5a6c:	21 e0       	ldi	r18, 0x01	; 1
			case 9:
			{
				/* Rotate Stepper Motor clockwise with Half step sequence */
				for (int i = 0; i < 12; i++)
				{
					PORTD = 0x09;
    5a6e:	f2 bb       	out	0x12, r31	; 18
    5a70:	af ef       	ldi	r26, 0xFF	; 255
    5a72:	b1 ee       	ldi	r27, 0xE1	; 225
    5a74:	c4 e0       	ldi	r28, 0x04	; 4
    5a76:	a1 50       	subi	r26, 0x01	; 1
    5a78:	b0 40       	sbci	r27, 0x00	; 0
    5a7a:	c0 40       	sbci	r28, 0x00	; 0
    5a7c:	e1 f7       	brne	.-8      	; 0x5a76 <__stack+0x5217>
    5a7e:	00 c0       	rjmp	.+0      	; 0x5a80 <__stack+0x5221>
    5a80:	00 00       	nop
					_delay_ms(period);
					PORTD = 0x08;
    5a82:	e2 bb       	out	0x12, r30	; 18
    5a84:	af ef       	ldi	r26, 0xFF	; 255
    5a86:	b1 ee       	ldi	r27, 0xE1	; 225
    5a88:	c4 e0       	ldi	r28, 0x04	; 4
    5a8a:	a1 50       	subi	r26, 0x01	; 1
    5a8c:	b0 40       	sbci	r27, 0x00	; 0
    5a8e:	c0 40       	sbci	r28, 0x00	; 0
    5a90:	e1 f7       	brne	.-8      	; 0x5a8a <__stack+0x522b>
    5a92:	00 c0       	rjmp	.+0      	; 0x5a94 <__stack+0x5235>
    5a94:	00 00       	nop
					_delay_ms(period);
					PORTD = 0x0C;
    5a96:	72 bb       	out	0x12, r23	; 18
    5a98:	af ef       	ldi	r26, 0xFF	; 255
    5a9a:	b1 ee       	ldi	r27, 0xE1	; 225
    5a9c:	c4 e0       	ldi	r28, 0x04	; 4
    5a9e:	a1 50       	subi	r26, 0x01	; 1
    5aa0:	b0 40       	sbci	r27, 0x00	; 0
    5aa2:	c0 40       	sbci	r28, 0x00	; 0
    5aa4:	e1 f7       	brne	.-8      	; 0x5a9e <__stack+0x523f>
    5aa6:	00 c0       	rjmp	.+0      	; 0x5aa8 <__stack+0x5249>
    5aa8:	00 00       	nop
					_delay_ms(period);
					PORTD = 0x04;
    5aaa:	62 bb       	out	0x12, r22	; 18
    5aac:	af ef       	ldi	r26, 0xFF	; 255
    5aae:	b1 ee       	ldi	r27, 0xE1	; 225
    5ab0:	c4 e0       	ldi	r28, 0x04	; 4
    5ab2:	a1 50       	subi	r26, 0x01	; 1
    5ab4:	b0 40       	sbci	r27, 0x00	; 0
    5ab6:	c0 40       	sbci	r28, 0x00	; 0
    5ab8:	e1 f7       	brne	.-8      	; 0x5ab2 <__stack+0x5253>
    5aba:	00 c0       	rjmp	.+0      	; 0x5abc <__stack+0x525d>
    5abc:	00 00       	nop
					_delay_ms(period);
					PORTD = 0x06;
    5abe:	52 bb       	out	0x12, r21	; 18
    5ac0:	af ef       	ldi	r26, 0xFF	; 255
    5ac2:	b1 ee       	ldi	r27, 0xE1	; 225
    5ac4:	c4 e0       	ldi	r28, 0x04	; 4
    5ac6:	a1 50       	subi	r26, 0x01	; 1
    5ac8:	b0 40       	sbci	r27, 0x00	; 0
    5aca:	c0 40       	sbci	r28, 0x00	; 0
    5acc:	e1 f7       	brne	.-8      	; 0x5ac6 <__stack+0x5267>
    5ace:	00 c0       	rjmp	.+0      	; 0x5ad0 <__stack+0x5271>
    5ad0:	00 00       	nop
					_delay_ms(period);
					PORTD = 0x02;
    5ad2:	42 bb       	out	0x12, r20	; 18
    5ad4:	af ef       	ldi	r26, 0xFF	; 255
    5ad6:	b1 ee       	ldi	r27, 0xE1	; 225
    5ad8:	c4 e0       	ldi	r28, 0x04	; 4
    5ada:	a1 50       	subi	r26, 0x01	; 1
    5adc:	b0 40       	sbci	r27, 0x00	; 0
    5ade:	c0 40       	sbci	r28, 0x00	; 0
    5ae0:	e1 f7       	brne	.-8      	; 0x5ada <__stack+0x527b>
    5ae2:	00 c0       	rjmp	.+0      	; 0x5ae4 <__stack+0x5285>
    5ae4:	00 00       	nop
					_delay_ms(period);
					PORTD = 0x03;
    5ae6:	32 bb       	out	0x12, r19	; 18
    5ae8:	af ef       	ldi	r26, 0xFF	; 255
    5aea:	b1 ee       	ldi	r27, 0xE1	; 225
    5aec:	c4 e0       	ldi	r28, 0x04	; 4
    5aee:	a1 50       	subi	r26, 0x01	; 1
    5af0:	b0 40       	sbci	r27, 0x00	; 0
    5af2:	c0 40       	sbci	r28, 0x00	; 0
    5af4:	e1 f7       	brne	.-8      	; 0x5aee <__stack+0x528f>
    5af6:	00 c0       	rjmp	.+0      	; 0x5af8 <__stack+0x5299>
    5af8:	00 00       	nop
					_delay_ms(period);
					PORTD = 0x01;
    5afa:	22 bb       	out	0x12, r18	; 18
    5afc:	af ef       	ldi	r26, 0xFF	; 255
    5afe:	b1 ee       	ldi	r27, 0xE1	; 225
    5b00:	c4 e0       	ldi	r28, 0x04	; 4
    5b02:	a1 50       	subi	r26, 0x01	; 1
    5b04:	b0 40       	sbci	r27, 0x00	; 0
    5b06:	c0 40       	sbci	r28, 0x00	; 0
    5b08:	e1 f7       	brne	.-8      	; 0x5b02 <__stack+0x52a3>
    5b0a:	00 c0       	rjmp	.+0      	; 0x5b0c <__stack+0x52ad>
    5b0c:	00 00       	nop
    5b0e:	01 97       	sbiw	r24, 0x01	; 1
				break;
			}
			case 9:
			{
				/* Rotate Stepper Motor clockwise with Half step sequence */
				for (int i = 0; i < 12; i++)
    5b10:	09 f0       	breq	.+2      	; 0x5b14 <__stack+0x52b5>
    5b12:	ad cf       	rjmp	.-166    	; 0x5a6e <__stack+0x520f>
					PORTD = 0x03;
					_delay_ms(period);
					PORTD = 0x01;
					_delay_ms(period);
				}
				PORTD = 0x09; /* Last step to initial position */
    5b14:	89 e0       	ldi	r24, 0x09	; 9
    5b16:	82 bb       	out	0x12, r24	; 18
    5b18:	ef ef       	ldi	r30, 0xFF	; 255
    5b1a:	21 ee       	ldi	r18, 0xE1	; 225
    5b1c:	64 e0       	ldi	r22, 0x04	; 4
    5b1e:	e1 50       	subi	r30, 0x01	; 1
    5b20:	20 40       	sbci	r18, 0x00	; 0
    5b22:	60 40       	sbci	r22, 0x00	; 0
    5b24:	e1 f7       	brne	.-8      	; 0x5b1e <__stack+0x52bf>
    5b26:	00 c0       	rjmp	.+0      	; 0x5b28 <__stack+0x52c9>
    5b28:	00 00       	nop
    5b2a:	7f ef       	ldi	r23, 0xFF	; 255
    5b2c:	83 ed       	ldi	r24, 0xD3	; 211
    5b2e:	90 e3       	ldi	r25, 0x30	; 48
    5b30:	71 50       	subi	r23, 0x01	; 1
    5b32:	80 40       	sbci	r24, 0x00	; 0
    5b34:	90 40       	sbci	r25, 0x00	; 0
    5b36:	e1 f7       	brne	.-8      	; 0x5b30 <__stack+0x52d1>
    5b38:	00 c0       	rjmp	.+0      	; 0x5b3a <__stack+0x52db>
    5b3a:	00 00       	nop
    5b3c:	8c e0       	ldi	r24, 0x0C	; 12
    5b3e:	90 e0       	ldi	r25, 0x00	; 0
				_delay_ms(1000);

				/* Rotate Stepper Motor Anticlockwise with Full step sequence */
				for (int i = 0; i < 12; i++)
				{
					PORTD = 0x09;
    5b40:	59 e0       	ldi	r21, 0x09	; 9
					_delay_ms(period);
					PORTD = 0x03;
    5b42:	43 e0       	ldi	r20, 0x03	; 3
					_delay_ms(period);
					PORTD = 0x06;
    5b44:	36 e0       	ldi	r19, 0x06	; 6
					_delay_ms(period);
					PORTD = 0x0C;
    5b46:	2c e0       	ldi	r18, 0x0C	; 12
				_delay_ms(1000);

				/* Rotate Stepper Motor Anticlockwise with Full step sequence */
				for (int i = 0; i < 12; i++)
				{
					PORTD = 0x09;
    5b48:	52 bb       	out	0x12, r21	; 18
    5b4a:	af ef       	ldi	r26, 0xFF	; 255
    5b4c:	b1 ee       	ldi	r27, 0xE1	; 225
    5b4e:	c4 e0       	ldi	r28, 0x04	; 4
    5b50:	a1 50       	subi	r26, 0x01	; 1
    5b52:	b0 40       	sbci	r27, 0x00	; 0
    5b54:	c0 40       	sbci	r28, 0x00	; 0
    5b56:	e1 f7       	brne	.-8      	; 0x5b50 <__stack+0x52f1>
    5b58:	00 c0       	rjmp	.+0      	; 0x5b5a <__stack+0x52fb>
    5b5a:	00 00       	nop
					_delay_ms(period);
					PORTD = 0x03;
    5b5c:	42 bb       	out	0x12, r20	; 18
    5b5e:	ef ef       	ldi	r30, 0xFF	; 255
    5b60:	61 ee       	ldi	r22, 0xE1	; 225
    5b62:	74 e0       	ldi	r23, 0x04	; 4
    5b64:	e1 50       	subi	r30, 0x01	; 1
    5b66:	60 40       	sbci	r22, 0x00	; 0
    5b68:	70 40       	sbci	r23, 0x00	; 0
    5b6a:	e1 f7       	brne	.-8      	; 0x5b64 <__stack+0x5305>
    5b6c:	00 c0       	rjmp	.+0      	; 0x5b6e <__stack+0x530f>
    5b6e:	00 00       	nop
					_delay_ms(period);
					PORTD = 0x06;
    5b70:	32 bb       	out	0x12, r19	; 18
    5b72:	af ef       	ldi	r26, 0xFF	; 255
    5b74:	b1 ee       	ldi	r27, 0xE1	; 225
    5b76:	c4 e0       	ldi	r28, 0x04	; 4
    5b78:	a1 50       	subi	r26, 0x01	; 1
    5b7a:	b0 40       	sbci	r27, 0x00	; 0
    5b7c:	c0 40       	sbci	r28, 0x00	; 0
    5b7e:	e1 f7       	brne	.-8      	; 0x5b78 <__stack+0x5319>
    5b80:	00 c0       	rjmp	.+0      	; 0x5b82 <__stack+0x5323>
    5b82:	00 00       	nop
					_delay_ms(period);
					PORTD = 0x0C;
    5b84:	22 bb       	out	0x12, r18	; 18
    5b86:	ef ef       	ldi	r30, 0xFF	; 255
    5b88:	61 ee       	ldi	r22, 0xE1	; 225
    5b8a:	74 e0       	ldi	r23, 0x04	; 4
    5b8c:	e1 50       	subi	r30, 0x01	; 1
    5b8e:	60 40       	sbci	r22, 0x00	; 0
    5b90:	70 40       	sbci	r23, 0x00	; 0
    5b92:	e1 f7       	brne	.-8      	; 0x5b8c <__stack+0x532d>
    5b94:	00 c0       	rjmp	.+0      	; 0x5b96 <__stack+0x5337>
    5b96:	00 00       	nop
    5b98:	01 97       	sbiw	r24, 0x01	; 1
				PORTD = 0x09; /* Last step to initial position */
				_delay_ms(period);
				_delay_ms(1000);

				/* Rotate Stepper Motor Anticlockwise with Full step sequence */
				for (int i = 0; i < 12; i++)
    5b9a:	b1 f6       	brne	.-84     	; 0x5b48 <__stack+0x52e9>
					PORTD = 0x06;
					_delay_ms(period);
					PORTD = 0x0C;
					_delay_ms(period);
				}
				PORTD = 0x09;
    5b9c:	89 e0       	ldi	r24, 0x09	; 9
    5b9e:	82 bb       	out	0x12, r24	; 18
    5ba0:	8f ef       	ldi	r24, 0xFF	; 255
    5ba2:	91 ee       	ldi	r25, 0xE1	; 225
    5ba4:	a4 e0       	ldi	r26, 0x04	; 4
    5ba6:	81 50       	subi	r24, 0x01	; 1
    5ba8:	90 40       	sbci	r25, 0x00	; 0
    5baa:	a0 40       	sbci	r26, 0x00	; 0
    5bac:	e1 f7       	brne	.-8      	; 0x5ba6 <__stack+0x5347>
    5bae:	00 c0       	rjmp	.+0      	; 0x5bb0 <__stack+0x5351>
    5bb0:	00 00       	nop
    5bb2:	bf ef       	ldi	r27, 0xFF	; 255
    5bb4:	c3 ed       	ldi	r28, 0xD3	; 211
    5bb6:	e0 e3       	ldi	r30, 0x30	; 48
    5bb8:	b1 50       	subi	r27, 0x01	; 1
    5bba:	c0 40       	sbci	r28, 0x00	; 0
    5bbc:	e0 40       	sbci	r30, 0x00	; 0
    5bbe:	e1 f7       	brne	.-8      	; 0x5bb8 <__stack+0x5359>
    5bc0:	00 c0       	rjmp	.+0      	; 0x5bc2 <__stack+0x5363>
    5bc2:	00 00       	nop
    5bc4:	0c 94 2c 3b 	jmp	0x7658	; 0x7658 <__stack+0x6df9>
				break;
			}
		}
		break;
		case 8:
		switch (personNum)
    5bc8:	8c e0       	ldi	r24, 0x0C	; 12
    5bca:	90 e0       	ldi	r25, 0x00	; 0
			case 1:
			{
				/* Rotate Stepper Motor clockwise with Half step sequence */
				for (int i = 0; i < 12; i++)
				{
					PORTD = 0x09;
    5bcc:	f9 e0       	ldi	r31, 0x09	; 9
					_delay_ms(period);
					PORTD = 0x08;
    5bce:	e8 e0       	ldi	r30, 0x08	; 8
					_delay_ms(period);
					PORTD = 0x0C;
    5bd0:	7c e0       	ldi	r23, 0x0C	; 12
					_delay_ms(period);
					PORTD = 0x04;
    5bd2:	64 e0       	ldi	r22, 0x04	; 4
					_delay_ms(period);
					PORTD = 0x06;
    5bd4:	56 e0       	ldi	r21, 0x06	; 6
					_delay_ms(period);
					PORTD = 0x02;
    5bd6:	42 e0       	ldi	r20, 0x02	; 2
					_delay_ms(period);
					PORTD = 0x03;
    5bd8:	33 e0       	ldi	r19, 0x03	; 3
					_delay_ms(period);
					PORTD = 0x01;
    5bda:	21 e0       	ldi	r18, 0x01	; 1
			case 1:
			{
				/* Rotate Stepper Motor clockwise with Half step sequence */
				for (int i = 0; i < 12; i++)
				{
					PORTD = 0x09;
    5bdc:	f2 bb       	out	0x12, r31	; 18
    5bde:	af ef       	ldi	r26, 0xFF	; 255
    5be0:	b1 ee       	ldi	r27, 0xE1	; 225
    5be2:	c4 e0       	ldi	r28, 0x04	; 4
    5be4:	a1 50       	subi	r26, 0x01	; 1
    5be6:	b0 40       	sbci	r27, 0x00	; 0
    5be8:	c0 40       	sbci	r28, 0x00	; 0
    5bea:	e1 f7       	brne	.-8      	; 0x5be4 <__stack+0x5385>
    5bec:	00 c0       	rjmp	.+0      	; 0x5bee <__stack+0x538f>
    5bee:	00 00       	nop
					_delay_ms(period);
					PORTD = 0x08;
    5bf0:	e2 bb       	out	0x12, r30	; 18
    5bf2:	af ef       	ldi	r26, 0xFF	; 255
    5bf4:	b1 ee       	ldi	r27, 0xE1	; 225
    5bf6:	c4 e0       	ldi	r28, 0x04	; 4
    5bf8:	a1 50       	subi	r26, 0x01	; 1
    5bfa:	b0 40       	sbci	r27, 0x00	; 0
    5bfc:	c0 40       	sbci	r28, 0x00	; 0
    5bfe:	e1 f7       	brne	.-8      	; 0x5bf8 <__stack+0x5399>
    5c00:	00 c0       	rjmp	.+0      	; 0x5c02 <__stack+0x53a3>
    5c02:	00 00       	nop
					_delay_ms(period);
					PORTD = 0x0C;
    5c04:	72 bb       	out	0x12, r23	; 18
    5c06:	af ef       	ldi	r26, 0xFF	; 255
    5c08:	b1 ee       	ldi	r27, 0xE1	; 225
    5c0a:	c4 e0       	ldi	r28, 0x04	; 4
    5c0c:	a1 50       	subi	r26, 0x01	; 1
    5c0e:	b0 40       	sbci	r27, 0x00	; 0
    5c10:	c0 40       	sbci	r28, 0x00	; 0
    5c12:	e1 f7       	brne	.-8      	; 0x5c0c <__stack+0x53ad>
    5c14:	00 c0       	rjmp	.+0      	; 0x5c16 <__stack+0x53b7>
    5c16:	00 00       	nop
					_delay_ms(period);
					PORTD = 0x04;
    5c18:	62 bb       	out	0x12, r22	; 18
    5c1a:	af ef       	ldi	r26, 0xFF	; 255
    5c1c:	b1 ee       	ldi	r27, 0xE1	; 225
    5c1e:	c4 e0       	ldi	r28, 0x04	; 4
    5c20:	a1 50       	subi	r26, 0x01	; 1
    5c22:	b0 40       	sbci	r27, 0x00	; 0
    5c24:	c0 40       	sbci	r28, 0x00	; 0
    5c26:	e1 f7       	brne	.-8      	; 0x5c20 <__stack+0x53c1>
    5c28:	00 c0       	rjmp	.+0      	; 0x5c2a <__stack+0x53cb>
    5c2a:	00 00       	nop
					_delay_ms(period);
					PORTD = 0x06;
    5c2c:	52 bb       	out	0x12, r21	; 18
    5c2e:	af ef       	ldi	r26, 0xFF	; 255
    5c30:	b1 ee       	ldi	r27, 0xE1	; 225
    5c32:	c4 e0       	ldi	r28, 0x04	; 4
    5c34:	a1 50       	subi	r26, 0x01	; 1
    5c36:	b0 40       	sbci	r27, 0x00	; 0
    5c38:	c0 40       	sbci	r28, 0x00	; 0
    5c3a:	e1 f7       	brne	.-8      	; 0x5c34 <__stack+0x53d5>
    5c3c:	00 c0       	rjmp	.+0      	; 0x5c3e <__stack+0x53df>
    5c3e:	00 00       	nop
					_delay_ms(period);
					PORTD = 0x02;
    5c40:	42 bb       	out	0x12, r20	; 18
    5c42:	af ef       	ldi	r26, 0xFF	; 255
    5c44:	b1 ee       	ldi	r27, 0xE1	; 225
    5c46:	c4 e0       	ldi	r28, 0x04	; 4
    5c48:	a1 50       	subi	r26, 0x01	; 1
    5c4a:	b0 40       	sbci	r27, 0x00	; 0
    5c4c:	c0 40       	sbci	r28, 0x00	; 0
    5c4e:	e1 f7       	brne	.-8      	; 0x5c48 <__stack+0x53e9>
    5c50:	00 c0       	rjmp	.+0      	; 0x5c52 <__stack+0x53f3>
    5c52:	00 00       	nop
					_delay_ms(period);
					PORTD = 0x03;
    5c54:	32 bb       	out	0x12, r19	; 18
    5c56:	af ef       	ldi	r26, 0xFF	; 255
    5c58:	b1 ee       	ldi	r27, 0xE1	; 225
    5c5a:	c4 e0       	ldi	r28, 0x04	; 4
    5c5c:	a1 50       	subi	r26, 0x01	; 1
    5c5e:	b0 40       	sbci	r27, 0x00	; 0
    5c60:	c0 40       	sbci	r28, 0x00	; 0
    5c62:	e1 f7       	brne	.-8      	; 0x5c5c <__stack+0x53fd>
    5c64:	00 c0       	rjmp	.+0      	; 0x5c66 <__stack+0x5407>
    5c66:	00 00       	nop
					_delay_ms(period);
					PORTD = 0x01;
    5c68:	22 bb       	out	0x12, r18	; 18
    5c6a:	af ef       	ldi	r26, 0xFF	; 255
    5c6c:	b1 ee       	ldi	r27, 0xE1	; 225
    5c6e:	c4 e0       	ldi	r28, 0x04	; 4
    5c70:	a1 50       	subi	r26, 0x01	; 1
    5c72:	b0 40       	sbci	r27, 0x00	; 0
    5c74:	c0 40       	sbci	r28, 0x00	; 0
    5c76:	e1 f7       	brne	.-8      	; 0x5c70 <__stack+0x5411>
    5c78:	00 c0       	rjmp	.+0      	; 0x5c7a <__stack+0x541b>
    5c7a:	00 00       	nop
    5c7c:	01 97       	sbiw	r24, 0x01	; 1
		switch (personNum)
		{
			case 1:
			{
				/* Rotate Stepper Motor clockwise with Half step sequence */
				for (int i = 0; i < 12; i++)
    5c7e:	09 f0       	breq	.+2      	; 0x5c82 <__stack+0x5423>
    5c80:	ad cf       	rjmp	.-166    	; 0x5bdc <__stack+0x537d>
					PORTD = 0x03;
					_delay_ms(period);
					PORTD = 0x01;
					_delay_ms(period);
				}
				PORTD = 0x09; /* Last step to initial position */
    5c82:	89 e0       	ldi	r24, 0x09	; 9
    5c84:	82 bb       	out	0x12, r24	; 18
    5c86:	ef ef       	ldi	r30, 0xFF	; 255
    5c88:	21 ee       	ldi	r18, 0xE1	; 225
    5c8a:	64 e0       	ldi	r22, 0x04	; 4
    5c8c:	e1 50       	subi	r30, 0x01	; 1
    5c8e:	20 40       	sbci	r18, 0x00	; 0
    5c90:	60 40       	sbci	r22, 0x00	; 0
    5c92:	e1 f7       	brne	.-8      	; 0x5c8c <__stack+0x542d>
    5c94:	00 c0       	rjmp	.+0      	; 0x5c96 <__stack+0x5437>
    5c96:	00 00       	nop
    5c98:	7f ef       	ldi	r23, 0xFF	; 255
    5c9a:	83 ed       	ldi	r24, 0xD3	; 211
    5c9c:	90 e3       	ldi	r25, 0x30	; 48
    5c9e:	71 50       	subi	r23, 0x01	; 1
    5ca0:	80 40       	sbci	r24, 0x00	; 0
    5ca2:	90 40       	sbci	r25, 0x00	; 0
    5ca4:	e1 f7       	brne	.-8      	; 0x5c9e <__stack+0x543f>
    5ca6:	00 c0       	rjmp	.+0      	; 0x5ca8 <__stack+0x5449>
    5ca8:	00 00       	nop
    5caa:	8c e0       	ldi	r24, 0x0C	; 12
    5cac:	90 e0       	ldi	r25, 0x00	; 0
				_delay_ms(1000);

				/* Rotate Stepper Motor Anticlockwise with Full step sequence */
				for (int i = 0; i < 12; i++)
				{
					PORTD = 0x09;
    5cae:	59 e0       	ldi	r21, 0x09	; 9
					_delay_ms(period);
					PORTD = 0x03;
    5cb0:	43 e0       	ldi	r20, 0x03	; 3
					_delay_ms(period);
					PORTD = 0x06;
    5cb2:	36 e0       	ldi	r19, 0x06	; 6
					_delay_ms(period);
					PORTD = 0x0C;
    5cb4:	2c e0       	ldi	r18, 0x0C	; 12
				_delay_ms(1000);

				/* Rotate Stepper Motor Anticlockwise with Full step sequence */
				for (int i = 0; i < 12; i++)
				{
					PORTD = 0x09;
    5cb6:	52 bb       	out	0x12, r21	; 18
    5cb8:	af ef       	ldi	r26, 0xFF	; 255
    5cba:	b1 ee       	ldi	r27, 0xE1	; 225
    5cbc:	c4 e0       	ldi	r28, 0x04	; 4
    5cbe:	a1 50       	subi	r26, 0x01	; 1
    5cc0:	b0 40       	sbci	r27, 0x00	; 0
    5cc2:	c0 40       	sbci	r28, 0x00	; 0
    5cc4:	e1 f7       	brne	.-8      	; 0x5cbe <__stack+0x545f>
    5cc6:	00 c0       	rjmp	.+0      	; 0x5cc8 <__stack+0x5469>
    5cc8:	00 00       	nop
					_delay_ms(period);
					PORTD = 0x03;
    5cca:	42 bb       	out	0x12, r20	; 18
    5ccc:	ef ef       	ldi	r30, 0xFF	; 255
    5cce:	61 ee       	ldi	r22, 0xE1	; 225
    5cd0:	74 e0       	ldi	r23, 0x04	; 4
    5cd2:	e1 50       	subi	r30, 0x01	; 1
    5cd4:	60 40       	sbci	r22, 0x00	; 0
    5cd6:	70 40       	sbci	r23, 0x00	; 0
    5cd8:	e1 f7       	brne	.-8      	; 0x5cd2 <__stack+0x5473>
    5cda:	00 c0       	rjmp	.+0      	; 0x5cdc <__stack+0x547d>
    5cdc:	00 00       	nop
					_delay_ms(period);
					PORTD = 0x06;
    5cde:	32 bb       	out	0x12, r19	; 18
    5ce0:	af ef       	ldi	r26, 0xFF	; 255
    5ce2:	b1 ee       	ldi	r27, 0xE1	; 225
    5ce4:	c4 e0       	ldi	r28, 0x04	; 4
    5ce6:	a1 50       	subi	r26, 0x01	; 1
    5ce8:	b0 40       	sbci	r27, 0x00	; 0
    5cea:	c0 40       	sbci	r28, 0x00	; 0
    5cec:	e1 f7       	brne	.-8      	; 0x5ce6 <__stack+0x5487>
    5cee:	00 c0       	rjmp	.+0      	; 0x5cf0 <__stack+0x5491>
    5cf0:	00 00       	nop
					_delay_ms(period);
					PORTD = 0x0C;
    5cf2:	22 bb       	out	0x12, r18	; 18
    5cf4:	ef ef       	ldi	r30, 0xFF	; 255
    5cf6:	61 ee       	ldi	r22, 0xE1	; 225
    5cf8:	74 e0       	ldi	r23, 0x04	; 4
    5cfa:	e1 50       	subi	r30, 0x01	; 1
    5cfc:	60 40       	sbci	r22, 0x00	; 0
    5cfe:	70 40       	sbci	r23, 0x00	; 0
    5d00:	e1 f7       	brne	.-8      	; 0x5cfa <__stack+0x549b>
    5d02:	00 c0       	rjmp	.+0      	; 0x5d04 <__stack+0x54a5>
    5d04:	00 00       	nop
    5d06:	01 97       	sbiw	r24, 0x01	; 1
				PORTD = 0x09; /* Last step to initial position */
				_delay_ms(period);
				_delay_ms(1000);

				/* Rotate Stepper Motor Anticlockwise with Full step sequence */
				for (int i = 0; i < 12; i++)
    5d08:	b1 f6       	brne	.-84     	; 0x5cb6 <__stack+0x5457>
					PORTD = 0x06;
					_delay_ms(period);
					PORTD = 0x0C;
					_delay_ms(period);
				}
				PORTD = 0x09;
    5d0a:	89 e0       	ldi	r24, 0x09	; 9
    5d0c:	82 bb       	out	0x12, r24	; 18
    5d0e:	8f ef       	ldi	r24, 0xFF	; 255
    5d10:	91 ee       	ldi	r25, 0xE1	; 225
    5d12:	a4 e0       	ldi	r26, 0x04	; 4
    5d14:	81 50       	subi	r24, 0x01	; 1
    5d16:	90 40       	sbci	r25, 0x00	; 0
    5d18:	a0 40       	sbci	r26, 0x00	; 0
    5d1a:	e1 f7       	brne	.-8      	; 0x5d14 <__stack+0x54b5>
    5d1c:	00 c0       	rjmp	.+0      	; 0x5d1e <__stack+0x54bf>
    5d1e:	00 00       	nop
    5d20:	bf ef       	ldi	r27, 0xFF	; 255
    5d22:	c3 ed       	ldi	r28, 0xD3	; 211
    5d24:	e0 e3       	ldi	r30, 0x30	; 48
    5d26:	b1 50       	subi	r27, 0x01	; 1
    5d28:	c0 40       	sbci	r28, 0x00	; 0
    5d2a:	e0 40       	sbci	r30, 0x00	; 0
    5d2c:	e1 f7       	brne	.-8      	; 0x5d26 <__stack+0x54c7>
    5d2e:	00 c0       	rjmp	.+0      	; 0x5d30 <__stack+0x54d1>
    5d30:	00 00       	nop
    5d32:	0c 94 2c 3b 	jmp	0x7658	; 0x7658 <__stack+0x6df9>
				break;
			}
		}
		break;
		case 8:
		switch (personNum)
    5d36:	8c e0       	ldi	r24, 0x0C	; 12
    5d38:	90 e0       	ldi	r25, 0x00	; 0
			case 2:
			{
				/* Rotate Stepper Motor clockwise with Half step sequence */
				for (int i = 0; i < 12; i++)
				{
					PORTD = 0x09;
    5d3a:	f9 e0       	ldi	r31, 0x09	; 9
					_delay_ms(period);
					PORTD = 0x08;
    5d3c:	e8 e0       	ldi	r30, 0x08	; 8
					_delay_ms(period);
					PORTD = 0x0C;
    5d3e:	7c e0       	ldi	r23, 0x0C	; 12
					_delay_ms(period);
					PORTD = 0x04;
    5d40:	64 e0       	ldi	r22, 0x04	; 4
					_delay_ms(period);
					PORTD = 0x06;
    5d42:	56 e0       	ldi	r21, 0x06	; 6
					_delay_ms(period);
					PORTD = 0x02;
    5d44:	42 e0       	ldi	r20, 0x02	; 2
					_delay_ms(period);
					PORTD = 0x03;
    5d46:	33 e0       	ldi	r19, 0x03	; 3
					_delay_ms(period);
					PORTD = 0x01;
    5d48:	21 e0       	ldi	r18, 0x01	; 1
			case 2:
			{
				/* Rotate Stepper Motor clockwise with Half step sequence */
				for (int i = 0; i < 12; i++)
				{
					PORTD = 0x09;
    5d4a:	f2 bb       	out	0x12, r31	; 18
    5d4c:	af ef       	ldi	r26, 0xFF	; 255
    5d4e:	b1 ee       	ldi	r27, 0xE1	; 225
    5d50:	c4 e0       	ldi	r28, 0x04	; 4
    5d52:	a1 50       	subi	r26, 0x01	; 1
    5d54:	b0 40       	sbci	r27, 0x00	; 0
    5d56:	c0 40       	sbci	r28, 0x00	; 0
    5d58:	e1 f7       	brne	.-8      	; 0x5d52 <__stack+0x54f3>
    5d5a:	00 c0       	rjmp	.+0      	; 0x5d5c <__stack+0x54fd>
    5d5c:	00 00       	nop
					_delay_ms(period);
					PORTD = 0x08;
    5d5e:	e2 bb       	out	0x12, r30	; 18
    5d60:	af ef       	ldi	r26, 0xFF	; 255
    5d62:	b1 ee       	ldi	r27, 0xE1	; 225
    5d64:	c4 e0       	ldi	r28, 0x04	; 4
    5d66:	a1 50       	subi	r26, 0x01	; 1
    5d68:	b0 40       	sbci	r27, 0x00	; 0
    5d6a:	c0 40       	sbci	r28, 0x00	; 0
    5d6c:	e1 f7       	brne	.-8      	; 0x5d66 <__stack+0x5507>
    5d6e:	00 c0       	rjmp	.+0      	; 0x5d70 <__stack+0x5511>
    5d70:	00 00       	nop
					_delay_ms(period);
					PORTD = 0x0C;
    5d72:	72 bb       	out	0x12, r23	; 18
    5d74:	af ef       	ldi	r26, 0xFF	; 255
    5d76:	b1 ee       	ldi	r27, 0xE1	; 225
    5d78:	c4 e0       	ldi	r28, 0x04	; 4
    5d7a:	a1 50       	subi	r26, 0x01	; 1
    5d7c:	b0 40       	sbci	r27, 0x00	; 0
    5d7e:	c0 40       	sbci	r28, 0x00	; 0
    5d80:	e1 f7       	brne	.-8      	; 0x5d7a <__stack+0x551b>
    5d82:	00 c0       	rjmp	.+0      	; 0x5d84 <__stack+0x5525>
    5d84:	00 00       	nop
					_delay_ms(period);
					PORTD = 0x04;
    5d86:	62 bb       	out	0x12, r22	; 18
    5d88:	af ef       	ldi	r26, 0xFF	; 255
    5d8a:	b1 ee       	ldi	r27, 0xE1	; 225
    5d8c:	c4 e0       	ldi	r28, 0x04	; 4
    5d8e:	a1 50       	subi	r26, 0x01	; 1
    5d90:	b0 40       	sbci	r27, 0x00	; 0
    5d92:	c0 40       	sbci	r28, 0x00	; 0
    5d94:	e1 f7       	brne	.-8      	; 0x5d8e <__stack+0x552f>
    5d96:	00 c0       	rjmp	.+0      	; 0x5d98 <__stack+0x5539>
    5d98:	00 00       	nop
					_delay_ms(period);
					PORTD = 0x06;
    5d9a:	52 bb       	out	0x12, r21	; 18
    5d9c:	af ef       	ldi	r26, 0xFF	; 255
    5d9e:	b1 ee       	ldi	r27, 0xE1	; 225
    5da0:	c4 e0       	ldi	r28, 0x04	; 4
    5da2:	a1 50       	subi	r26, 0x01	; 1
    5da4:	b0 40       	sbci	r27, 0x00	; 0
    5da6:	c0 40       	sbci	r28, 0x00	; 0
    5da8:	e1 f7       	brne	.-8      	; 0x5da2 <__stack+0x5543>
    5daa:	00 c0       	rjmp	.+0      	; 0x5dac <__stack+0x554d>
    5dac:	00 00       	nop
					_delay_ms(period);
					PORTD = 0x02;
    5dae:	42 bb       	out	0x12, r20	; 18
    5db0:	af ef       	ldi	r26, 0xFF	; 255
    5db2:	b1 ee       	ldi	r27, 0xE1	; 225
    5db4:	c4 e0       	ldi	r28, 0x04	; 4
    5db6:	a1 50       	subi	r26, 0x01	; 1
    5db8:	b0 40       	sbci	r27, 0x00	; 0
    5dba:	c0 40       	sbci	r28, 0x00	; 0
    5dbc:	e1 f7       	brne	.-8      	; 0x5db6 <__stack+0x5557>
    5dbe:	00 c0       	rjmp	.+0      	; 0x5dc0 <__stack+0x5561>
    5dc0:	00 00       	nop
					_delay_ms(period);
					PORTD = 0x03;
    5dc2:	32 bb       	out	0x12, r19	; 18
    5dc4:	af ef       	ldi	r26, 0xFF	; 255
    5dc6:	b1 ee       	ldi	r27, 0xE1	; 225
    5dc8:	c4 e0       	ldi	r28, 0x04	; 4
    5dca:	a1 50       	subi	r26, 0x01	; 1
    5dcc:	b0 40       	sbci	r27, 0x00	; 0
    5dce:	c0 40       	sbci	r28, 0x00	; 0
    5dd0:	e1 f7       	brne	.-8      	; 0x5dca <__stack+0x556b>
    5dd2:	00 c0       	rjmp	.+0      	; 0x5dd4 <__stack+0x5575>
    5dd4:	00 00       	nop
					_delay_ms(period);
					PORTD = 0x01;
    5dd6:	22 bb       	out	0x12, r18	; 18
    5dd8:	af ef       	ldi	r26, 0xFF	; 255
    5dda:	b1 ee       	ldi	r27, 0xE1	; 225
    5ddc:	c4 e0       	ldi	r28, 0x04	; 4
    5dde:	a1 50       	subi	r26, 0x01	; 1
    5de0:	b0 40       	sbci	r27, 0x00	; 0
    5de2:	c0 40       	sbci	r28, 0x00	; 0
    5de4:	e1 f7       	brne	.-8      	; 0x5dde <__stack+0x557f>
    5de6:	00 c0       	rjmp	.+0      	; 0x5de8 <__stack+0x5589>
    5de8:	00 00       	nop
    5dea:	01 97       	sbiw	r24, 0x01	; 1
				break;
			}
			case 2:
			{
				/* Rotate Stepper Motor clockwise with Half step sequence */
				for (int i = 0; i < 12; i++)
    5dec:	09 f0       	breq	.+2      	; 0x5df0 <__stack+0x5591>
    5dee:	ad cf       	rjmp	.-166    	; 0x5d4a <__stack+0x54eb>
					PORTD = 0x03;
					_delay_ms(period);
					PORTD = 0x01;
					_delay_ms(period);
				}
				PORTD = 0x09; /* Last step to initial position */
    5df0:	89 e0       	ldi	r24, 0x09	; 9
    5df2:	82 bb       	out	0x12, r24	; 18
    5df4:	ef ef       	ldi	r30, 0xFF	; 255
    5df6:	21 ee       	ldi	r18, 0xE1	; 225
    5df8:	64 e0       	ldi	r22, 0x04	; 4
    5dfa:	e1 50       	subi	r30, 0x01	; 1
    5dfc:	20 40       	sbci	r18, 0x00	; 0
    5dfe:	60 40       	sbci	r22, 0x00	; 0
    5e00:	e1 f7       	brne	.-8      	; 0x5dfa <__stack+0x559b>
    5e02:	00 c0       	rjmp	.+0      	; 0x5e04 <__stack+0x55a5>
    5e04:	00 00       	nop
    5e06:	7f ef       	ldi	r23, 0xFF	; 255
    5e08:	83 ed       	ldi	r24, 0xD3	; 211
    5e0a:	90 e3       	ldi	r25, 0x30	; 48
    5e0c:	71 50       	subi	r23, 0x01	; 1
    5e0e:	80 40       	sbci	r24, 0x00	; 0
    5e10:	90 40       	sbci	r25, 0x00	; 0
    5e12:	e1 f7       	brne	.-8      	; 0x5e0c <__stack+0x55ad>
    5e14:	00 c0       	rjmp	.+0      	; 0x5e16 <__stack+0x55b7>
    5e16:	00 00       	nop
    5e18:	8c e0       	ldi	r24, 0x0C	; 12
    5e1a:	90 e0       	ldi	r25, 0x00	; 0
				_delay_ms(1000);

				/* Rotate Stepper Motor Anticlockwise with Full step sequence */
				for (int i = 0; i < 12; i++)
				{
					PORTD = 0x09;
    5e1c:	59 e0       	ldi	r21, 0x09	; 9
					_delay_ms(period);
					PORTD = 0x03;
    5e1e:	43 e0       	ldi	r20, 0x03	; 3
					_delay_ms(period);
					PORTD = 0x06;
    5e20:	36 e0       	ldi	r19, 0x06	; 6
					_delay_ms(period);
					PORTD = 0x0C;
    5e22:	2c e0       	ldi	r18, 0x0C	; 12
				_delay_ms(1000);

				/* Rotate Stepper Motor Anticlockwise with Full step sequence */
				for (int i = 0; i < 12; i++)
				{
					PORTD = 0x09;
    5e24:	52 bb       	out	0x12, r21	; 18
    5e26:	af ef       	ldi	r26, 0xFF	; 255
    5e28:	b1 ee       	ldi	r27, 0xE1	; 225
    5e2a:	c4 e0       	ldi	r28, 0x04	; 4
    5e2c:	a1 50       	subi	r26, 0x01	; 1
    5e2e:	b0 40       	sbci	r27, 0x00	; 0
    5e30:	c0 40       	sbci	r28, 0x00	; 0
    5e32:	e1 f7       	brne	.-8      	; 0x5e2c <__stack+0x55cd>
    5e34:	00 c0       	rjmp	.+0      	; 0x5e36 <__stack+0x55d7>
    5e36:	00 00       	nop
					_delay_ms(period);
					PORTD = 0x03;
    5e38:	42 bb       	out	0x12, r20	; 18
    5e3a:	ef ef       	ldi	r30, 0xFF	; 255
    5e3c:	61 ee       	ldi	r22, 0xE1	; 225
    5e3e:	74 e0       	ldi	r23, 0x04	; 4
    5e40:	e1 50       	subi	r30, 0x01	; 1
    5e42:	60 40       	sbci	r22, 0x00	; 0
    5e44:	70 40       	sbci	r23, 0x00	; 0
    5e46:	e1 f7       	brne	.-8      	; 0x5e40 <__stack+0x55e1>
    5e48:	00 c0       	rjmp	.+0      	; 0x5e4a <__stack+0x55eb>
    5e4a:	00 00       	nop
					_delay_ms(period);
					PORTD = 0x06;
    5e4c:	32 bb       	out	0x12, r19	; 18
    5e4e:	af ef       	ldi	r26, 0xFF	; 255
    5e50:	b1 ee       	ldi	r27, 0xE1	; 225
    5e52:	c4 e0       	ldi	r28, 0x04	; 4
    5e54:	a1 50       	subi	r26, 0x01	; 1
    5e56:	b0 40       	sbci	r27, 0x00	; 0
    5e58:	c0 40       	sbci	r28, 0x00	; 0
    5e5a:	e1 f7       	brne	.-8      	; 0x5e54 <__stack+0x55f5>
    5e5c:	00 c0       	rjmp	.+0      	; 0x5e5e <__stack+0x55ff>
    5e5e:	00 00       	nop
					_delay_ms(period);
					PORTD = 0x0C;
    5e60:	22 bb       	out	0x12, r18	; 18
    5e62:	ef ef       	ldi	r30, 0xFF	; 255
    5e64:	61 ee       	ldi	r22, 0xE1	; 225
    5e66:	74 e0       	ldi	r23, 0x04	; 4
    5e68:	e1 50       	subi	r30, 0x01	; 1
    5e6a:	60 40       	sbci	r22, 0x00	; 0
    5e6c:	70 40       	sbci	r23, 0x00	; 0
    5e6e:	e1 f7       	brne	.-8      	; 0x5e68 <__stack+0x5609>
    5e70:	00 c0       	rjmp	.+0      	; 0x5e72 <__stack+0x5613>
    5e72:	00 00       	nop
    5e74:	01 97       	sbiw	r24, 0x01	; 1
				PORTD = 0x09; /* Last step to initial position */
				_delay_ms(period);
				_delay_ms(1000);

				/* Rotate Stepper Motor Anticlockwise with Full step sequence */
				for (int i = 0; i < 12; i++)
    5e76:	b1 f6       	brne	.-84     	; 0x5e24 <__stack+0x55c5>
					PORTD = 0x06;
					_delay_ms(period);
					PORTD = 0x0C;
					_delay_ms(period);
				}
				PORTD = 0x09;
    5e78:	89 e0       	ldi	r24, 0x09	; 9
    5e7a:	82 bb       	out	0x12, r24	; 18
    5e7c:	8f ef       	ldi	r24, 0xFF	; 255
    5e7e:	91 ee       	ldi	r25, 0xE1	; 225
    5e80:	a4 e0       	ldi	r26, 0x04	; 4
    5e82:	81 50       	subi	r24, 0x01	; 1
    5e84:	90 40       	sbci	r25, 0x00	; 0
    5e86:	a0 40       	sbci	r26, 0x00	; 0
    5e88:	e1 f7       	brne	.-8      	; 0x5e82 <__stack+0x5623>
    5e8a:	00 c0       	rjmp	.+0      	; 0x5e8c <__stack+0x562d>
    5e8c:	00 00       	nop
    5e8e:	bf ef       	ldi	r27, 0xFF	; 255
    5e90:	c3 ed       	ldi	r28, 0xD3	; 211
    5e92:	e0 e3       	ldi	r30, 0x30	; 48
    5e94:	b1 50       	subi	r27, 0x01	; 1
    5e96:	c0 40       	sbci	r28, 0x00	; 0
    5e98:	e0 40       	sbci	r30, 0x00	; 0
    5e9a:	e1 f7       	brne	.-8      	; 0x5e94 <__stack+0x5635>
    5e9c:	00 c0       	rjmp	.+0      	; 0x5e9e <__stack+0x563f>
    5e9e:	00 00       	nop
    5ea0:	0c 94 2c 3b 	jmp	0x7658	; 0x7658 <__stack+0x6df9>
				break;
			}
		}
		break;
		case 8:
		switch (personNum)
    5ea4:	8c e0       	ldi	r24, 0x0C	; 12
    5ea6:	90 e0       	ldi	r25, 0x00	; 0
			case 3:
			{
				/* Rotate Stepper Motor clockwise with Half step sequence */
				for (int i = 0; i < 12; i++)
				{
					PORTD = 0x09;
    5ea8:	f9 e0       	ldi	r31, 0x09	; 9
					_delay_ms(period);
					PORTD = 0x08;
    5eaa:	e8 e0       	ldi	r30, 0x08	; 8
					_delay_ms(period);
					PORTD = 0x0C;
    5eac:	7c e0       	ldi	r23, 0x0C	; 12
					_delay_ms(period);
					PORTD = 0x04;
    5eae:	64 e0       	ldi	r22, 0x04	; 4
					_delay_ms(period);
					PORTD = 0x06;
    5eb0:	56 e0       	ldi	r21, 0x06	; 6
					_delay_ms(period);
					PORTD = 0x02;
    5eb2:	42 e0       	ldi	r20, 0x02	; 2
					_delay_ms(period);
					PORTD = 0x03;
    5eb4:	33 e0       	ldi	r19, 0x03	; 3
					_delay_ms(period);
					PORTD = 0x01;
    5eb6:	21 e0       	ldi	r18, 0x01	; 1
			case 3:
			{
				/* Rotate Stepper Motor clockwise with Half step sequence */
				for (int i = 0; i < 12; i++)
				{
					PORTD = 0x09;
    5eb8:	f2 bb       	out	0x12, r31	; 18
    5eba:	af ef       	ldi	r26, 0xFF	; 255
    5ebc:	b1 ee       	ldi	r27, 0xE1	; 225
    5ebe:	c4 e0       	ldi	r28, 0x04	; 4
    5ec0:	a1 50       	subi	r26, 0x01	; 1
    5ec2:	b0 40       	sbci	r27, 0x00	; 0
    5ec4:	c0 40       	sbci	r28, 0x00	; 0
    5ec6:	e1 f7       	brne	.-8      	; 0x5ec0 <__stack+0x5661>
    5ec8:	00 c0       	rjmp	.+0      	; 0x5eca <__stack+0x566b>
    5eca:	00 00       	nop
					_delay_ms(period);
					PORTD = 0x08;
    5ecc:	e2 bb       	out	0x12, r30	; 18
    5ece:	af ef       	ldi	r26, 0xFF	; 255
    5ed0:	b1 ee       	ldi	r27, 0xE1	; 225
    5ed2:	c4 e0       	ldi	r28, 0x04	; 4
    5ed4:	a1 50       	subi	r26, 0x01	; 1
    5ed6:	b0 40       	sbci	r27, 0x00	; 0
    5ed8:	c0 40       	sbci	r28, 0x00	; 0
    5eda:	e1 f7       	brne	.-8      	; 0x5ed4 <__stack+0x5675>
    5edc:	00 c0       	rjmp	.+0      	; 0x5ede <__stack+0x567f>
    5ede:	00 00       	nop
					_delay_ms(period);
					PORTD = 0x0C;
    5ee0:	72 bb       	out	0x12, r23	; 18
    5ee2:	af ef       	ldi	r26, 0xFF	; 255
    5ee4:	b1 ee       	ldi	r27, 0xE1	; 225
    5ee6:	c4 e0       	ldi	r28, 0x04	; 4
    5ee8:	a1 50       	subi	r26, 0x01	; 1
    5eea:	b0 40       	sbci	r27, 0x00	; 0
    5eec:	c0 40       	sbci	r28, 0x00	; 0
    5eee:	e1 f7       	brne	.-8      	; 0x5ee8 <__stack+0x5689>
    5ef0:	00 c0       	rjmp	.+0      	; 0x5ef2 <__stack+0x5693>
    5ef2:	00 00       	nop
					_delay_ms(period);
					PORTD = 0x04;
    5ef4:	62 bb       	out	0x12, r22	; 18
    5ef6:	af ef       	ldi	r26, 0xFF	; 255
    5ef8:	b1 ee       	ldi	r27, 0xE1	; 225
    5efa:	c4 e0       	ldi	r28, 0x04	; 4
    5efc:	a1 50       	subi	r26, 0x01	; 1
    5efe:	b0 40       	sbci	r27, 0x00	; 0
    5f00:	c0 40       	sbci	r28, 0x00	; 0
    5f02:	e1 f7       	brne	.-8      	; 0x5efc <__stack+0x569d>
    5f04:	00 c0       	rjmp	.+0      	; 0x5f06 <__stack+0x56a7>
    5f06:	00 00       	nop
					_delay_ms(period);
					PORTD = 0x06;
    5f08:	52 bb       	out	0x12, r21	; 18
    5f0a:	af ef       	ldi	r26, 0xFF	; 255
    5f0c:	b1 ee       	ldi	r27, 0xE1	; 225
    5f0e:	c4 e0       	ldi	r28, 0x04	; 4
    5f10:	a1 50       	subi	r26, 0x01	; 1
    5f12:	b0 40       	sbci	r27, 0x00	; 0
    5f14:	c0 40       	sbci	r28, 0x00	; 0
    5f16:	e1 f7       	brne	.-8      	; 0x5f10 <__stack+0x56b1>
    5f18:	00 c0       	rjmp	.+0      	; 0x5f1a <__stack+0x56bb>
    5f1a:	00 00       	nop
					_delay_ms(period);
					PORTD = 0x02;
    5f1c:	42 bb       	out	0x12, r20	; 18
    5f1e:	af ef       	ldi	r26, 0xFF	; 255
    5f20:	b1 ee       	ldi	r27, 0xE1	; 225
    5f22:	c4 e0       	ldi	r28, 0x04	; 4
    5f24:	a1 50       	subi	r26, 0x01	; 1
    5f26:	b0 40       	sbci	r27, 0x00	; 0
    5f28:	c0 40       	sbci	r28, 0x00	; 0
    5f2a:	e1 f7       	brne	.-8      	; 0x5f24 <__stack+0x56c5>
    5f2c:	00 c0       	rjmp	.+0      	; 0x5f2e <__stack+0x56cf>
    5f2e:	00 00       	nop
					_delay_ms(period);
					PORTD = 0x03;
    5f30:	32 bb       	out	0x12, r19	; 18
    5f32:	af ef       	ldi	r26, 0xFF	; 255
    5f34:	b1 ee       	ldi	r27, 0xE1	; 225
    5f36:	c4 e0       	ldi	r28, 0x04	; 4
    5f38:	a1 50       	subi	r26, 0x01	; 1
    5f3a:	b0 40       	sbci	r27, 0x00	; 0
    5f3c:	c0 40       	sbci	r28, 0x00	; 0
    5f3e:	e1 f7       	brne	.-8      	; 0x5f38 <__stack+0x56d9>
    5f40:	00 c0       	rjmp	.+0      	; 0x5f42 <__stack+0x56e3>
    5f42:	00 00       	nop
					_delay_ms(period);
					PORTD = 0x01;
    5f44:	22 bb       	out	0x12, r18	; 18
    5f46:	af ef       	ldi	r26, 0xFF	; 255
    5f48:	b1 ee       	ldi	r27, 0xE1	; 225
    5f4a:	c4 e0       	ldi	r28, 0x04	; 4
    5f4c:	a1 50       	subi	r26, 0x01	; 1
    5f4e:	b0 40       	sbci	r27, 0x00	; 0
    5f50:	c0 40       	sbci	r28, 0x00	; 0
    5f52:	e1 f7       	brne	.-8      	; 0x5f4c <__stack+0x56ed>
    5f54:	00 c0       	rjmp	.+0      	; 0x5f56 <__stack+0x56f7>
    5f56:	00 00       	nop
    5f58:	01 97       	sbiw	r24, 0x01	; 1
				break;
			}
			case 3:
			{
				/* Rotate Stepper Motor clockwise with Half step sequence */
				for (int i = 0; i < 12; i++)
    5f5a:	09 f0       	breq	.+2      	; 0x5f5e <__stack+0x56ff>
    5f5c:	ad cf       	rjmp	.-166    	; 0x5eb8 <__stack+0x5659>
					PORTD = 0x03;
					_delay_ms(period);
					PORTD = 0x01;
					_delay_ms(period);
				}
				PORTD = 0x09; /* Last step to initial position */
    5f5e:	89 e0       	ldi	r24, 0x09	; 9
    5f60:	82 bb       	out	0x12, r24	; 18
    5f62:	ef ef       	ldi	r30, 0xFF	; 255
    5f64:	21 ee       	ldi	r18, 0xE1	; 225
    5f66:	64 e0       	ldi	r22, 0x04	; 4
    5f68:	e1 50       	subi	r30, 0x01	; 1
    5f6a:	20 40       	sbci	r18, 0x00	; 0
    5f6c:	60 40       	sbci	r22, 0x00	; 0
    5f6e:	e1 f7       	brne	.-8      	; 0x5f68 <__stack+0x5709>
    5f70:	00 c0       	rjmp	.+0      	; 0x5f72 <__stack+0x5713>
    5f72:	00 00       	nop
    5f74:	7f ef       	ldi	r23, 0xFF	; 255
    5f76:	83 ed       	ldi	r24, 0xD3	; 211
    5f78:	90 e3       	ldi	r25, 0x30	; 48
    5f7a:	71 50       	subi	r23, 0x01	; 1
    5f7c:	80 40       	sbci	r24, 0x00	; 0
    5f7e:	90 40       	sbci	r25, 0x00	; 0
    5f80:	e1 f7       	brne	.-8      	; 0x5f7a <__stack+0x571b>
    5f82:	00 c0       	rjmp	.+0      	; 0x5f84 <__stack+0x5725>
    5f84:	00 00       	nop
    5f86:	8c e0       	ldi	r24, 0x0C	; 12
    5f88:	90 e0       	ldi	r25, 0x00	; 0
				_delay_ms(1000);

				/* Rotate Stepper Motor Anticlockwise with Full step sequence */
				for (int i = 0; i < 12; i++)
				{
					PORTD = 0x09;
    5f8a:	59 e0       	ldi	r21, 0x09	; 9
					_delay_ms(period);
					PORTD = 0x03;
    5f8c:	43 e0       	ldi	r20, 0x03	; 3
					_delay_ms(period);
					PORTD = 0x06;
    5f8e:	36 e0       	ldi	r19, 0x06	; 6
					_delay_ms(period);
					PORTD = 0x0C;
    5f90:	2c e0       	ldi	r18, 0x0C	; 12
				_delay_ms(1000);

				/* Rotate Stepper Motor Anticlockwise with Full step sequence */
				for (int i = 0; i < 12; i++)
				{
					PORTD = 0x09;
    5f92:	52 bb       	out	0x12, r21	; 18
    5f94:	af ef       	ldi	r26, 0xFF	; 255
    5f96:	b1 ee       	ldi	r27, 0xE1	; 225
    5f98:	c4 e0       	ldi	r28, 0x04	; 4
    5f9a:	a1 50       	subi	r26, 0x01	; 1
    5f9c:	b0 40       	sbci	r27, 0x00	; 0
    5f9e:	c0 40       	sbci	r28, 0x00	; 0
    5fa0:	e1 f7       	brne	.-8      	; 0x5f9a <__stack+0x573b>
    5fa2:	00 c0       	rjmp	.+0      	; 0x5fa4 <__stack+0x5745>
    5fa4:	00 00       	nop
					_delay_ms(period);
					PORTD = 0x03;
    5fa6:	42 bb       	out	0x12, r20	; 18
    5fa8:	ef ef       	ldi	r30, 0xFF	; 255
    5faa:	61 ee       	ldi	r22, 0xE1	; 225
    5fac:	74 e0       	ldi	r23, 0x04	; 4
    5fae:	e1 50       	subi	r30, 0x01	; 1
    5fb0:	60 40       	sbci	r22, 0x00	; 0
    5fb2:	70 40       	sbci	r23, 0x00	; 0
    5fb4:	e1 f7       	brne	.-8      	; 0x5fae <__stack+0x574f>
    5fb6:	00 c0       	rjmp	.+0      	; 0x5fb8 <__stack+0x5759>
    5fb8:	00 00       	nop
					_delay_ms(period);
					PORTD = 0x06;
    5fba:	32 bb       	out	0x12, r19	; 18
    5fbc:	af ef       	ldi	r26, 0xFF	; 255
    5fbe:	b1 ee       	ldi	r27, 0xE1	; 225
    5fc0:	c4 e0       	ldi	r28, 0x04	; 4
    5fc2:	a1 50       	subi	r26, 0x01	; 1
    5fc4:	b0 40       	sbci	r27, 0x00	; 0
    5fc6:	c0 40       	sbci	r28, 0x00	; 0
    5fc8:	e1 f7       	brne	.-8      	; 0x5fc2 <__stack+0x5763>
    5fca:	00 c0       	rjmp	.+0      	; 0x5fcc <__stack+0x576d>
    5fcc:	00 00       	nop
					_delay_ms(period);
					PORTD = 0x0C;
    5fce:	22 bb       	out	0x12, r18	; 18
    5fd0:	ef ef       	ldi	r30, 0xFF	; 255
    5fd2:	61 ee       	ldi	r22, 0xE1	; 225
    5fd4:	74 e0       	ldi	r23, 0x04	; 4
    5fd6:	e1 50       	subi	r30, 0x01	; 1
    5fd8:	60 40       	sbci	r22, 0x00	; 0
    5fda:	70 40       	sbci	r23, 0x00	; 0
    5fdc:	e1 f7       	brne	.-8      	; 0x5fd6 <__stack+0x5777>
    5fde:	00 c0       	rjmp	.+0      	; 0x5fe0 <__stack+0x5781>
    5fe0:	00 00       	nop
    5fe2:	01 97       	sbiw	r24, 0x01	; 1
				PORTD = 0x09; /* Last step to initial position */
				_delay_ms(period);
				_delay_ms(1000);

				/* Rotate Stepper Motor Anticlockwise with Full step sequence */
				for (int i = 0; i < 12; i++)
    5fe4:	b1 f6       	brne	.-84     	; 0x5f92 <__stack+0x5733>
					PORTD = 0x06;
					_delay_ms(period);
					PORTD = 0x0C;
					_delay_ms(period);
				}
				PORTD = 0x09;
    5fe6:	89 e0       	ldi	r24, 0x09	; 9
    5fe8:	82 bb       	out	0x12, r24	; 18
    5fea:	8f ef       	ldi	r24, 0xFF	; 255
    5fec:	91 ee       	ldi	r25, 0xE1	; 225
    5fee:	a4 e0       	ldi	r26, 0x04	; 4
    5ff0:	81 50       	subi	r24, 0x01	; 1
    5ff2:	90 40       	sbci	r25, 0x00	; 0
    5ff4:	a0 40       	sbci	r26, 0x00	; 0
    5ff6:	e1 f7       	brne	.-8      	; 0x5ff0 <__stack+0x5791>
    5ff8:	00 c0       	rjmp	.+0      	; 0x5ffa <__stack+0x579b>
    5ffa:	00 00       	nop
    5ffc:	bf ef       	ldi	r27, 0xFF	; 255
    5ffe:	c3 ed       	ldi	r28, 0xD3	; 211
    6000:	e0 e3       	ldi	r30, 0x30	; 48
    6002:	b1 50       	subi	r27, 0x01	; 1
    6004:	c0 40       	sbci	r28, 0x00	; 0
    6006:	e0 40       	sbci	r30, 0x00	; 0
    6008:	e1 f7       	brne	.-8      	; 0x6002 <__stack+0x57a3>
    600a:	00 c0       	rjmp	.+0      	; 0x600c <__stack+0x57ad>
    600c:	00 00       	nop
    600e:	0c 94 2c 3b 	jmp	0x7658	; 0x7658 <__stack+0x6df9>
				break;
			}
		}
		break;
		case 8:
		switch (personNum)
    6012:	8c e0       	ldi	r24, 0x0C	; 12
    6014:	90 e0       	ldi	r25, 0x00	; 0
			case 4:
			{
				/* Rotate Stepper Motor clockwise with Half step sequence */
				for (int i = 0; i < 12; i++)
				{
					PORTD = 0x09;
    6016:	f9 e0       	ldi	r31, 0x09	; 9
					_delay_ms(period);
					PORTD = 0x08;
    6018:	e8 e0       	ldi	r30, 0x08	; 8
					_delay_ms(period);
					PORTD = 0x0C;
    601a:	7c e0       	ldi	r23, 0x0C	; 12
					_delay_ms(period);
					PORTD = 0x04;
    601c:	64 e0       	ldi	r22, 0x04	; 4
					_delay_ms(period);
					PORTD = 0x06;
    601e:	56 e0       	ldi	r21, 0x06	; 6
					_delay_ms(period);
					PORTD = 0x02;
    6020:	42 e0       	ldi	r20, 0x02	; 2
					_delay_ms(period);
					PORTD = 0x03;
    6022:	33 e0       	ldi	r19, 0x03	; 3
					_delay_ms(period);
					PORTD = 0x01;
    6024:	21 e0       	ldi	r18, 0x01	; 1
			case 4:
			{
				/* Rotate Stepper Motor clockwise with Half step sequence */
				for (int i = 0; i < 12; i++)
				{
					PORTD = 0x09;
    6026:	f2 bb       	out	0x12, r31	; 18
    6028:	af ef       	ldi	r26, 0xFF	; 255
    602a:	b1 ee       	ldi	r27, 0xE1	; 225
    602c:	c4 e0       	ldi	r28, 0x04	; 4
    602e:	a1 50       	subi	r26, 0x01	; 1
    6030:	b0 40       	sbci	r27, 0x00	; 0
    6032:	c0 40       	sbci	r28, 0x00	; 0
    6034:	e1 f7       	brne	.-8      	; 0x602e <__stack+0x57cf>
    6036:	00 c0       	rjmp	.+0      	; 0x6038 <__stack+0x57d9>
    6038:	00 00       	nop
					_delay_ms(period);
					PORTD = 0x08;
    603a:	e2 bb       	out	0x12, r30	; 18
    603c:	af ef       	ldi	r26, 0xFF	; 255
    603e:	b1 ee       	ldi	r27, 0xE1	; 225
    6040:	c4 e0       	ldi	r28, 0x04	; 4
    6042:	a1 50       	subi	r26, 0x01	; 1
    6044:	b0 40       	sbci	r27, 0x00	; 0
    6046:	c0 40       	sbci	r28, 0x00	; 0
    6048:	e1 f7       	brne	.-8      	; 0x6042 <__stack+0x57e3>
    604a:	00 c0       	rjmp	.+0      	; 0x604c <__stack+0x57ed>
    604c:	00 00       	nop
					_delay_ms(period);
					PORTD = 0x0C;
    604e:	72 bb       	out	0x12, r23	; 18
    6050:	af ef       	ldi	r26, 0xFF	; 255
    6052:	b1 ee       	ldi	r27, 0xE1	; 225
    6054:	c4 e0       	ldi	r28, 0x04	; 4
    6056:	a1 50       	subi	r26, 0x01	; 1
    6058:	b0 40       	sbci	r27, 0x00	; 0
    605a:	c0 40       	sbci	r28, 0x00	; 0
    605c:	e1 f7       	brne	.-8      	; 0x6056 <__stack+0x57f7>
    605e:	00 c0       	rjmp	.+0      	; 0x6060 <__stack+0x5801>
    6060:	00 00       	nop
					_delay_ms(period);
					PORTD = 0x04;
    6062:	62 bb       	out	0x12, r22	; 18
    6064:	af ef       	ldi	r26, 0xFF	; 255
    6066:	b1 ee       	ldi	r27, 0xE1	; 225
    6068:	c4 e0       	ldi	r28, 0x04	; 4
    606a:	a1 50       	subi	r26, 0x01	; 1
    606c:	b0 40       	sbci	r27, 0x00	; 0
    606e:	c0 40       	sbci	r28, 0x00	; 0
    6070:	e1 f7       	brne	.-8      	; 0x606a <__stack+0x580b>
    6072:	00 c0       	rjmp	.+0      	; 0x6074 <__stack+0x5815>
    6074:	00 00       	nop
					_delay_ms(period);
					PORTD = 0x06;
    6076:	52 bb       	out	0x12, r21	; 18
    6078:	af ef       	ldi	r26, 0xFF	; 255
    607a:	b1 ee       	ldi	r27, 0xE1	; 225
    607c:	c4 e0       	ldi	r28, 0x04	; 4
    607e:	a1 50       	subi	r26, 0x01	; 1
    6080:	b0 40       	sbci	r27, 0x00	; 0
    6082:	c0 40       	sbci	r28, 0x00	; 0
    6084:	e1 f7       	brne	.-8      	; 0x607e <__stack+0x581f>
    6086:	00 c0       	rjmp	.+0      	; 0x6088 <__stack+0x5829>
    6088:	00 00       	nop
					_delay_ms(period);
					PORTD = 0x02;
    608a:	42 bb       	out	0x12, r20	; 18
    608c:	af ef       	ldi	r26, 0xFF	; 255
    608e:	b1 ee       	ldi	r27, 0xE1	; 225
    6090:	c4 e0       	ldi	r28, 0x04	; 4
    6092:	a1 50       	subi	r26, 0x01	; 1
    6094:	b0 40       	sbci	r27, 0x00	; 0
    6096:	c0 40       	sbci	r28, 0x00	; 0
    6098:	e1 f7       	brne	.-8      	; 0x6092 <__stack+0x5833>
    609a:	00 c0       	rjmp	.+0      	; 0x609c <__stack+0x583d>
    609c:	00 00       	nop
					_delay_ms(period);
					PORTD = 0x03;
    609e:	32 bb       	out	0x12, r19	; 18
    60a0:	af ef       	ldi	r26, 0xFF	; 255
    60a2:	b1 ee       	ldi	r27, 0xE1	; 225
    60a4:	c4 e0       	ldi	r28, 0x04	; 4
    60a6:	a1 50       	subi	r26, 0x01	; 1
    60a8:	b0 40       	sbci	r27, 0x00	; 0
    60aa:	c0 40       	sbci	r28, 0x00	; 0
    60ac:	e1 f7       	brne	.-8      	; 0x60a6 <__stack+0x5847>
    60ae:	00 c0       	rjmp	.+0      	; 0x60b0 <__stack+0x5851>
    60b0:	00 00       	nop
					_delay_ms(period);
					PORTD = 0x01;
    60b2:	22 bb       	out	0x12, r18	; 18
    60b4:	af ef       	ldi	r26, 0xFF	; 255
    60b6:	b1 ee       	ldi	r27, 0xE1	; 225
    60b8:	c4 e0       	ldi	r28, 0x04	; 4
    60ba:	a1 50       	subi	r26, 0x01	; 1
    60bc:	b0 40       	sbci	r27, 0x00	; 0
    60be:	c0 40       	sbci	r28, 0x00	; 0
    60c0:	e1 f7       	brne	.-8      	; 0x60ba <__stack+0x585b>
    60c2:	00 c0       	rjmp	.+0      	; 0x60c4 <__stack+0x5865>
    60c4:	00 00       	nop
    60c6:	01 97       	sbiw	r24, 0x01	; 1
				break;
			}
			case 4:
			{
				/* Rotate Stepper Motor clockwise with Half step sequence */
				for (int i = 0; i < 12; i++)
    60c8:	09 f0       	breq	.+2      	; 0x60cc <__stack+0x586d>
    60ca:	ad cf       	rjmp	.-166    	; 0x6026 <__stack+0x57c7>
					PORTD = 0x03;
					_delay_ms(period);
					PORTD = 0x01;
					_delay_ms(period);
				}
				PORTD = 0x09; /* Last step to initial position */
    60cc:	89 e0       	ldi	r24, 0x09	; 9
    60ce:	82 bb       	out	0x12, r24	; 18
    60d0:	ef ef       	ldi	r30, 0xFF	; 255
    60d2:	21 ee       	ldi	r18, 0xE1	; 225
    60d4:	64 e0       	ldi	r22, 0x04	; 4
    60d6:	e1 50       	subi	r30, 0x01	; 1
    60d8:	20 40       	sbci	r18, 0x00	; 0
    60da:	60 40       	sbci	r22, 0x00	; 0
    60dc:	e1 f7       	brne	.-8      	; 0x60d6 <__stack+0x5877>
    60de:	00 c0       	rjmp	.+0      	; 0x60e0 <__stack+0x5881>
    60e0:	00 00       	nop
    60e2:	7f ef       	ldi	r23, 0xFF	; 255
    60e4:	83 ed       	ldi	r24, 0xD3	; 211
    60e6:	90 e3       	ldi	r25, 0x30	; 48
    60e8:	71 50       	subi	r23, 0x01	; 1
    60ea:	80 40       	sbci	r24, 0x00	; 0
    60ec:	90 40       	sbci	r25, 0x00	; 0
    60ee:	e1 f7       	brne	.-8      	; 0x60e8 <__stack+0x5889>
    60f0:	00 c0       	rjmp	.+0      	; 0x60f2 <__stack+0x5893>
    60f2:	00 00       	nop
    60f4:	8c e0       	ldi	r24, 0x0C	; 12
    60f6:	90 e0       	ldi	r25, 0x00	; 0
				_delay_ms(1000);

				/* Rotate Stepper Motor Anticlockwise with Full step sequence */
				for (int i = 0; i < 12; i++)
				{
					PORTD = 0x09;
    60f8:	59 e0       	ldi	r21, 0x09	; 9
					_delay_ms(period);
					PORTD = 0x03;
    60fa:	43 e0       	ldi	r20, 0x03	; 3
					_delay_ms(period);
					PORTD = 0x06;
    60fc:	36 e0       	ldi	r19, 0x06	; 6
					_delay_ms(period);
					PORTD = 0x0C;
    60fe:	2c e0       	ldi	r18, 0x0C	; 12
				_delay_ms(1000);

				/* Rotate Stepper Motor Anticlockwise with Full step sequence */
				for (int i = 0; i < 12; i++)
				{
					PORTD = 0x09;
    6100:	52 bb       	out	0x12, r21	; 18
    6102:	af ef       	ldi	r26, 0xFF	; 255
    6104:	b1 ee       	ldi	r27, 0xE1	; 225
    6106:	c4 e0       	ldi	r28, 0x04	; 4
    6108:	a1 50       	subi	r26, 0x01	; 1
    610a:	b0 40       	sbci	r27, 0x00	; 0
    610c:	c0 40       	sbci	r28, 0x00	; 0
    610e:	e1 f7       	brne	.-8      	; 0x6108 <__stack+0x58a9>
    6110:	00 c0       	rjmp	.+0      	; 0x6112 <__stack+0x58b3>
    6112:	00 00       	nop
					_delay_ms(period);
					PORTD = 0x03;
    6114:	42 bb       	out	0x12, r20	; 18
    6116:	ef ef       	ldi	r30, 0xFF	; 255
    6118:	61 ee       	ldi	r22, 0xE1	; 225
    611a:	74 e0       	ldi	r23, 0x04	; 4
    611c:	e1 50       	subi	r30, 0x01	; 1
    611e:	60 40       	sbci	r22, 0x00	; 0
    6120:	70 40       	sbci	r23, 0x00	; 0
    6122:	e1 f7       	brne	.-8      	; 0x611c <__stack+0x58bd>
    6124:	00 c0       	rjmp	.+0      	; 0x6126 <__stack+0x58c7>
    6126:	00 00       	nop
					_delay_ms(period);
					PORTD = 0x06;
    6128:	32 bb       	out	0x12, r19	; 18
    612a:	af ef       	ldi	r26, 0xFF	; 255
    612c:	b1 ee       	ldi	r27, 0xE1	; 225
    612e:	c4 e0       	ldi	r28, 0x04	; 4
    6130:	a1 50       	subi	r26, 0x01	; 1
    6132:	b0 40       	sbci	r27, 0x00	; 0
    6134:	c0 40       	sbci	r28, 0x00	; 0
    6136:	e1 f7       	brne	.-8      	; 0x6130 <__stack+0x58d1>
    6138:	00 c0       	rjmp	.+0      	; 0x613a <__stack+0x58db>
    613a:	00 00       	nop
					_delay_ms(period);
					PORTD = 0x0C;
    613c:	22 bb       	out	0x12, r18	; 18
    613e:	ef ef       	ldi	r30, 0xFF	; 255
    6140:	61 ee       	ldi	r22, 0xE1	; 225
    6142:	74 e0       	ldi	r23, 0x04	; 4
    6144:	e1 50       	subi	r30, 0x01	; 1
    6146:	60 40       	sbci	r22, 0x00	; 0
    6148:	70 40       	sbci	r23, 0x00	; 0
    614a:	e1 f7       	brne	.-8      	; 0x6144 <__stack+0x58e5>
    614c:	00 c0       	rjmp	.+0      	; 0x614e <__stack+0x58ef>
    614e:	00 00       	nop
    6150:	01 97       	sbiw	r24, 0x01	; 1
				PORTD = 0x09; /* Last step to initial position */
				_delay_ms(period);
				_delay_ms(1000);

				/* Rotate Stepper Motor Anticlockwise with Full step sequence */
				for (int i = 0; i < 12; i++)
    6152:	b1 f6       	brne	.-84     	; 0x6100 <__stack+0x58a1>
					PORTD = 0x06;
					_delay_ms(period);
					PORTD = 0x0C;
					_delay_ms(period);
				}
				PORTD = 0x09;
    6154:	89 e0       	ldi	r24, 0x09	; 9
    6156:	82 bb       	out	0x12, r24	; 18
    6158:	8f ef       	ldi	r24, 0xFF	; 255
    615a:	91 ee       	ldi	r25, 0xE1	; 225
    615c:	a4 e0       	ldi	r26, 0x04	; 4
    615e:	81 50       	subi	r24, 0x01	; 1
    6160:	90 40       	sbci	r25, 0x00	; 0
    6162:	a0 40       	sbci	r26, 0x00	; 0
    6164:	e1 f7       	brne	.-8      	; 0x615e <__stack+0x58ff>
    6166:	00 c0       	rjmp	.+0      	; 0x6168 <__stack+0x5909>
    6168:	00 00       	nop
    616a:	bf ef       	ldi	r27, 0xFF	; 255
    616c:	c3 ed       	ldi	r28, 0xD3	; 211
    616e:	e0 e3       	ldi	r30, 0x30	; 48
    6170:	b1 50       	subi	r27, 0x01	; 1
    6172:	c0 40       	sbci	r28, 0x00	; 0
    6174:	e0 40       	sbci	r30, 0x00	; 0
    6176:	e1 f7       	brne	.-8      	; 0x6170 <__stack+0x5911>
    6178:	00 c0       	rjmp	.+0      	; 0x617a <__stack+0x591b>
    617a:	00 00       	nop
    617c:	0c 94 2c 3b 	jmp	0x7658	; 0x7658 <__stack+0x6df9>
				break;
			}
		}
		break;
		case 8:
		switch (personNum)
    6180:	8c e0       	ldi	r24, 0x0C	; 12
    6182:	90 e0       	ldi	r25, 0x00	; 0
			case 5:
			{
				/* Rotate Stepper Motor clockwise with Half step sequence */
				for (int i = 0; i < 12; i++)
				{
					PORTD = 0x09;
    6184:	f9 e0       	ldi	r31, 0x09	; 9
					_delay_ms(period);
					PORTD = 0x08;
    6186:	e8 e0       	ldi	r30, 0x08	; 8
					_delay_ms(period);
					PORTD = 0x0C;
    6188:	7c e0       	ldi	r23, 0x0C	; 12
					_delay_ms(period);
					PORTD = 0x04;
    618a:	64 e0       	ldi	r22, 0x04	; 4
					_delay_ms(period);
					PORTD = 0x06;
    618c:	56 e0       	ldi	r21, 0x06	; 6
					_delay_ms(period);
					PORTD = 0x02;
    618e:	42 e0       	ldi	r20, 0x02	; 2
					_delay_ms(period);
					PORTD = 0x03;
    6190:	33 e0       	ldi	r19, 0x03	; 3
					_delay_ms(period);
					PORTD = 0x01;
    6192:	21 e0       	ldi	r18, 0x01	; 1
			case 5:
			{
				/* Rotate Stepper Motor clockwise with Half step sequence */
				for (int i = 0; i < 12; i++)
				{
					PORTD = 0x09;
    6194:	f2 bb       	out	0x12, r31	; 18
    6196:	af ef       	ldi	r26, 0xFF	; 255
    6198:	b1 ee       	ldi	r27, 0xE1	; 225
    619a:	c4 e0       	ldi	r28, 0x04	; 4
    619c:	a1 50       	subi	r26, 0x01	; 1
    619e:	b0 40       	sbci	r27, 0x00	; 0
    61a0:	c0 40       	sbci	r28, 0x00	; 0
    61a2:	e1 f7       	brne	.-8      	; 0x619c <__stack+0x593d>
    61a4:	00 c0       	rjmp	.+0      	; 0x61a6 <__stack+0x5947>
    61a6:	00 00       	nop
					_delay_ms(period);
					PORTD = 0x08;
    61a8:	e2 bb       	out	0x12, r30	; 18
    61aa:	af ef       	ldi	r26, 0xFF	; 255
    61ac:	b1 ee       	ldi	r27, 0xE1	; 225
    61ae:	c4 e0       	ldi	r28, 0x04	; 4
    61b0:	a1 50       	subi	r26, 0x01	; 1
    61b2:	b0 40       	sbci	r27, 0x00	; 0
    61b4:	c0 40       	sbci	r28, 0x00	; 0
    61b6:	e1 f7       	brne	.-8      	; 0x61b0 <__stack+0x5951>
    61b8:	00 c0       	rjmp	.+0      	; 0x61ba <__stack+0x595b>
    61ba:	00 00       	nop
					_delay_ms(period);
					PORTD = 0x0C;
    61bc:	72 bb       	out	0x12, r23	; 18
    61be:	af ef       	ldi	r26, 0xFF	; 255
    61c0:	b1 ee       	ldi	r27, 0xE1	; 225
    61c2:	c4 e0       	ldi	r28, 0x04	; 4
    61c4:	a1 50       	subi	r26, 0x01	; 1
    61c6:	b0 40       	sbci	r27, 0x00	; 0
    61c8:	c0 40       	sbci	r28, 0x00	; 0
    61ca:	e1 f7       	brne	.-8      	; 0x61c4 <__stack+0x5965>
    61cc:	00 c0       	rjmp	.+0      	; 0x61ce <__stack+0x596f>
    61ce:	00 00       	nop
					_delay_ms(period);
					PORTD = 0x04;
    61d0:	62 bb       	out	0x12, r22	; 18
    61d2:	af ef       	ldi	r26, 0xFF	; 255
    61d4:	b1 ee       	ldi	r27, 0xE1	; 225
    61d6:	c4 e0       	ldi	r28, 0x04	; 4
    61d8:	a1 50       	subi	r26, 0x01	; 1
    61da:	b0 40       	sbci	r27, 0x00	; 0
    61dc:	c0 40       	sbci	r28, 0x00	; 0
    61de:	e1 f7       	brne	.-8      	; 0x61d8 <__stack+0x5979>
    61e0:	00 c0       	rjmp	.+0      	; 0x61e2 <__stack+0x5983>
    61e2:	00 00       	nop
					_delay_ms(period);
					PORTD = 0x06;
    61e4:	52 bb       	out	0x12, r21	; 18
    61e6:	af ef       	ldi	r26, 0xFF	; 255
    61e8:	b1 ee       	ldi	r27, 0xE1	; 225
    61ea:	c4 e0       	ldi	r28, 0x04	; 4
    61ec:	a1 50       	subi	r26, 0x01	; 1
    61ee:	b0 40       	sbci	r27, 0x00	; 0
    61f0:	c0 40       	sbci	r28, 0x00	; 0
    61f2:	e1 f7       	brne	.-8      	; 0x61ec <__stack+0x598d>
    61f4:	00 c0       	rjmp	.+0      	; 0x61f6 <__stack+0x5997>
    61f6:	00 00       	nop
					_delay_ms(period);
					PORTD = 0x02;
    61f8:	42 bb       	out	0x12, r20	; 18
    61fa:	af ef       	ldi	r26, 0xFF	; 255
    61fc:	b1 ee       	ldi	r27, 0xE1	; 225
    61fe:	c4 e0       	ldi	r28, 0x04	; 4
    6200:	a1 50       	subi	r26, 0x01	; 1
    6202:	b0 40       	sbci	r27, 0x00	; 0
    6204:	c0 40       	sbci	r28, 0x00	; 0
    6206:	e1 f7       	brne	.-8      	; 0x6200 <__stack+0x59a1>
    6208:	00 c0       	rjmp	.+0      	; 0x620a <__stack+0x59ab>
    620a:	00 00       	nop
					_delay_ms(period);
					PORTD = 0x03;
    620c:	32 bb       	out	0x12, r19	; 18
    620e:	af ef       	ldi	r26, 0xFF	; 255
    6210:	b1 ee       	ldi	r27, 0xE1	; 225
    6212:	c4 e0       	ldi	r28, 0x04	; 4
    6214:	a1 50       	subi	r26, 0x01	; 1
    6216:	b0 40       	sbci	r27, 0x00	; 0
    6218:	c0 40       	sbci	r28, 0x00	; 0
    621a:	e1 f7       	brne	.-8      	; 0x6214 <__stack+0x59b5>
    621c:	00 c0       	rjmp	.+0      	; 0x621e <__stack+0x59bf>
    621e:	00 00       	nop
					_delay_ms(period);
					PORTD = 0x01;
    6220:	22 bb       	out	0x12, r18	; 18
    6222:	af ef       	ldi	r26, 0xFF	; 255
    6224:	b1 ee       	ldi	r27, 0xE1	; 225
    6226:	c4 e0       	ldi	r28, 0x04	; 4
    6228:	a1 50       	subi	r26, 0x01	; 1
    622a:	b0 40       	sbci	r27, 0x00	; 0
    622c:	c0 40       	sbci	r28, 0x00	; 0
    622e:	e1 f7       	brne	.-8      	; 0x6228 <__stack+0x59c9>
    6230:	00 c0       	rjmp	.+0      	; 0x6232 <__stack+0x59d3>
    6232:	00 00       	nop
    6234:	01 97       	sbiw	r24, 0x01	; 1
				break;
			}
			case 5:
			{
				/* Rotate Stepper Motor clockwise with Half step sequence */
				for (int i = 0; i < 12; i++)
    6236:	09 f0       	breq	.+2      	; 0x623a <__stack+0x59db>
    6238:	ad cf       	rjmp	.-166    	; 0x6194 <__stack+0x5935>
					PORTD = 0x03;
					_delay_ms(period);
					PORTD = 0x01;
					_delay_ms(period);
				}
				PORTD = 0x09; /* Last step to initial position */
    623a:	89 e0       	ldi	r24, 0x09	; 9
    623c:	82 bb       	out	0x12, r24	; 18
    623e:	ef ef       	ldi	r30, 0xFF	; 255
    6240:	21 ee       	ldi	r18, 0xE1	; 225
    6242:	64 e0       	ldi	r22, 0x04	; 4
    6244:	e1 50       	subi	r30, 0x01	; 1
    6246:	20 40       	sbci	r18, 0x00	; 0
    6248:	60 40       	sbci	r22, 0x00	; 0
    624a:	e1 f7       	brne	.-8      	; 0x6244 <__stack+0x59e5>
    624c:	00 c0       	rjmp	.+0      	; 0x624e <__stack+0x59ef>
    624e:	00 00       	nop
    6250:	7f ef       	ldi	r23, 0xFF	; 255
    6252:	83 ed       	ldi	r24, 0xD3	; 211
    6254:	90 e3       	ldi	r25, 0x30	; 48
    6256:	71 50       	subi	r23, 0x01	; 1
    6258:	80 40       	sbci	r24, 0x00	; 0
    625a:	90 40       	sbci	r25, 0x00	; 0
    625c:	e1 f7       	brne	.-8      	; 0x6256 <__stack+0x59f7>
    625e:	00 c0       	rjmp	.+0      	; 0x6260 <__stack+0x5a01>
    6260:	00 00       	nop
    6262:	8c e0       	ldi	r24, 0x0C	; 12
    6264:	90 e0       	ldi	r25, 0x00	; 0
				_delay_ms(1000);

				/* Rotate Stepper Motor Anticlockwise with Full step sequence */
				for (int i = 0; i < 12; i++)
				{
					PORTD = 0x09;
    6266:	59 e0       	ldi	r21, 0x09	; 9
					_delay_ms(period);
					PORTD = 0x03;
    6268:	43 e0       	ldi	r20, 0x03	; 3
					_delay_ms(period);
					PORTD = 0x06;
    626a:	36 e0       	ldi	r19, 0x06	; 6
					_delay_ms(period);
					PORTD = 0x0C;
    626c:	2c e0       	ldi	r18, 0x0C	; 12
				_delay_ms(1000);

				/* Rotate Stepper Motor Anticlockwise with Full step sequence */
				for (int i = 0; i < 12; i++)
				{
					PORTD = 0x09;
    626e:	52 bb       	out	0x12, r21	; 18
    6270:	af ef       	ldi	r26, 0xFF	; 255
    6272:	b1 ee       	ldi	r27, 0xE1	; 225
    6274:	c4 e0       	ldi	r28, 0x04	; 4
    6276:	a1 50       	subi	r26, 0x01	; 1
    6278:	b0 40       	sbci	r27, 0x00	; 0
    627a:	c0 40       	sbci	r28, 0x00	; 0
    627c:	e1 f7       	brne	.-8      	; 0x6276 <__stack+0x5a17>
    627e:	00 c0       	rjmp	.+0      	; 0x6280 <__stack+0x5a21>
    6280:	00 00       	nop
					_delay_ms(period);
					PORTD = 0x03;
    6282:	42 bb       	out	0x12, r20	; 18
    6284:	ef ef       	ldi	r30, 0xFF	; 255
    6286:	61 ee       	ldi	r22, 0xE1	; 225
    6288:	74 e0       	ldi	r23, 0x04	; 4
    628a:	e1 50       	subi	r30, 0x01	; 1
    628c:	60 40       	sbci	r22, 0x00	; 0
    628e:	70 40       	sbci	r23, 0x00	; 0
    6290:	e1 f7       	brne	.-8      	; 0x628a <__stack+0x5a2b>
    6292:	00 c0       	rjmp	.+0      	; 0x6294 <__stack+0x5a35>
    6294:	00 00       	nop
					_delay_ms(period);
					PORTD = 0x06;
    6296:	32 bb       	out	0x12, r19	; 18
    6298:	af ef       	ldi	r26, 0xFF	; 255
    629a:	b1 ee       	ldi	r27, 0xE1	; 225
    629c:	c4 e0       	ldi	r28, 0x04	; 4
    629e:	a1 50       	subi	r26, 0x01	; 1
    62a0:	b0 40       	sbci	r27, 0x00	; 0
    62a2:	c0 40       	sbci	r28, 0x00	; 0
    62a4:	e1 f7       	brne	.-8      	; 0x629e <__stack+0x5a3f>
    62a6:	00 c0       	rjmp	.+0      	; 0x62a8 <__stack+0x5a49>
    62a8:	00 00       	nop
					_delay_ms(period);
					PORTD = 0x0C;
    62aa:	22 bb       	out	0x12, r18	; 18
    62ac:	ef ef       	ldi	r30, 0xFF	; 255
    62ae:	61 ee       	ldi	r22, 0xE1	; 225
    62b0:	74 e0       	ldi	r23, 0x04	; 4
    62b2:	e1 50       	subi	r30, 0x01	; 1
    62b4:	60 40       	sbci	r22, 0x00	; 0
    62b6:	70 40       	sbci	r23, 0x00	; 0
    62b8:	e1 f7       	brne	.-8      	; 0x62b2 <__stack+0x5a53>
    62ba:	00 c0       	rjmp	.+0      	; 0x62bc <__stack+0x5a5d>
    62bc:	00 00       	nop
    62be:	01 97       	sbiw	r24, 0x01	; 1
				PORTD = 0x09; /* Last step to initial position */
				_delay_ms(period);
				_delay_ms(1000);

				/* Rotate Stepper Motor Anticlockwise with Full step sequence */
				for (int i = 0; i < 12; i++)
    62c0:	b1 f6       	brne	.-84     	; 0x626e <__stack+0x5a0f>
					PORTD = 0x06;
					_delay_ms(period);
					PORTD = 0x0C;
					_delay_ms(period);
				}
				PORTD = 0x09;
    62c2:	89 e0       	ldi	r24, 0x09	; 9
    62c4:	82 bb       	out	0x12, r24	; 18
    62c6:	8f ef       	ldi	r24, 0xFF	; 255
    62c8:	91 ee       	ldi	r25, 0xE1	; 225
    62ca:	a4 e0       	ldi	r26, 0x04	; 4
    62cc:	81 50       	subi	r24, 0x01	; 1
    62ce:	90 40       	sbci	r25, 0x00	; 0
    62d0:	a0 40       	sbci	r26, 0x00	; 0
    62d2:	e1 f7       	brne	.-8      	; 0x62cc <__stack+0x5a6d>
    62d4:	00 c0       	rjmp	.+0      	; 0x62d6 <__stack+0x5a77>
    62d6:	00 00       	nop
    62d8:	bf ef       	ldi	r27, 0xFF	; 255
    62da:	c3 ed       	ldi	r28, 0xD3	; 211
    62dc:	e0 e3       	ldi	r30, 0x30	; 48
    62de:	b1 50       	subi	r27, 0x01	; 1
    62e0:	c0 40       	sbci	r28, 0x00	; 0
    62e2:	e0 40       	sbci	r30, 0x00	; 0
    62e4:	e1 f7       	brne	.-8      	; 0x62de <__stack+0x5a7f>
    62e6:	00 c0       	rjmp	.+0      	; 0x62e8 <__stack+0x5a89>
    62e8:	00 00       	nop
    62ea:	0c 94 2c 3b 	jmp	0x7658	; 0x7658 <__stack+0x6df9>
				break;
			}
		}
		break;
		case 8:
		switch (personNum)
    62ee:	8c e0       	ldi	r24, 0x0C	; 12
    62f0:	90 e0       	ldi	r25, 0x00	; 0
			case 6:
			{
				/* Rotate Stepper Motor clockwise with Half step sequence */
				for (int i = 0; i < 12; i++)
				{
					PORTD = 0x09;
    62f2:	f9 e0       	ldi	r31, 0x09	; 9
					_delay_ms(period);
					PORTD = 0x08;
    62f4:	e8 e0       	ldi	r30, 0x08	; 8
					_delay_ms(period);
					PORTD = 0x0C;
    62f6:	7c e0       	ldi	r23, 0x0C	; 12
					_delay_ms(period);
					PORTD = 0x04;
    62f8:	64 e0       	ldi	r22, 0x04	; 4
					_delay_ms(period);
					PORTD = 0x06;
    62fa:	56 e0       	ldi	r21, 0x06	; 6
					_delay_ms(period);
					PORTD = 0x02;
    62fc:	42 e0       	ldi	r20, 0x02	; 2
					_delay_ms(period);
					PORTD = 0x03;
    62fe:	33 e0       	ldi	r19, 0x03	; 3
					_delay_ms(period);
					PORTD = 0x01;
    6300:	21 e0       	ldi	r18, 0x01	; 1
			case 6:
			{
				/* Rotate Stepper Motor clockwise with Half step sequence */
				for (int i = 0; i < 12; i++)
				{
					PORTD = 0x09;
    6302:	f2 bb       	out	0x12, r31	; 18
    6304:	af ef       	ldi	r26, 0xFF	; 255
    6306:	b1 ee       	ldi	r27, 0xE1	; 225
    6308:	c4 e0       	ldi	r28, 0x04	; 4
    630a:	a1 50       	subi	r26, 0x01	; 1
    630c:	b0 40       	sbci	r27, 0x00	; 0
    630e:	c0 40       	sbci	r28, 0x00	; 0
    6310:	e1 f7       	brne	.-8      	; 0x630a <__stack+0x5aab>
    6312:	00 c0       	rjmp	.+0      	; 0x6314 <__stack+0x5ab5>
    6314:	00 00       	nop
					_delay_ms(period);
					PORTD = 0x08;
    6316:	e2 bb       	out	0x12, r30	; 18
    6318:	af ef       	ldi	r26, 0xFF	; 255
    631a:	b1 ee       	ldi	r27, 0xE1	; 225
    631c:	c4 e0       	ldi	r28, 0x04	; 4
    631e:	a1 50       	subi	r26, 0x01	; 1
    6320:	b0 40       	sbci	r27, 0x00	; 0
    6322:	c0 40       	sbci	r28, 0x00	; 0
    6324:	e1 f7       	brne	.-8      	; 0x631e <__stack+0x5abf>
    6326:	00 c0       	rjmp	.+0      	; 0x6328 <__stack+0x5ac9>
    6328:	00 00       	nop
					_delay_ms(period);
					PORTD = 0x0C;
    632a:	72 bb       	out	0x12, r23	; 18
    632c:	af ef       	ldi	r26, 0xFF	; 255
    632e:	b1 ee       	ldi	r27, 0xE1	; 225
    6330:	c4 e0       	ldi	r28, 0x04	; 4
    6332:	a1 50       	subi	r26, 0x01	; 1
    6334:	b0 40       	sbci	r27, 0x00	; 0
    6336:	c0 40       	sbci	r28, 0x00	; 0
    6338:	e1 f7       	brne	.-8      	; 0x6332 <__stack+0x5ad3>
    633a:	00 c0       	rjmp	.+0      	; 0x633c <__stack+0x5add>
    633c:	00 00       	nop
					_delay_ms(period);
					PORTD = 0x04;
    633e:	62 bb       	out	0x12, r22	; 18
    6340:	af ef       	ldi	r26, 0xFF	; 255
    6342:	b1 ee       	ldi	r27, 0xE1	; 225
    6344:	c4 e0       	ldi	r28, 0x04	; 4
    6346:	a1 50       	subi	r26, 0x01	; 1
    6348:	b0 40       	sbci	r27, 0x00	; 0
    634a:	c0 40       	sbci	r28, 0x00	; 0
    634c:	e1 f7       	brne	.-8      	; 0x6346 <__stack+0x5ae7>
    634e:	00 c0       	rjmp	.+0      	; 0x6350 <__stack+0x5af1>
    6350:	00 00       	nop
					_delay_ms(period);
					PORTD = 0x06;
    6352:	52 bb       	out	0x12, r21	; 18
    6354:	af ef       	ldi	r26, 0xFF	; 255
    6356:	b1 ee       	ldi	r27, 0xE1	; 225
    6358:	c4 e0       	ldi	r28, 0x04	; 4
    635a:	a1 50       	subi	r26, 0x01	; 1
    635c:	b0 40       	sbci	r27, 0x00	; 0
    635e:	c0 40       	sbci	r28, 0x00	; 0
    6360:	e1 f7       	brne	.-8      	; 0x635a <__stack+0x5afb>
    6362:	00 c0       	rjmp	.+0      	; 0x6364 <__stack+0x5b05>
    6364:	00 00       	nop
					_delay_ms(period);
					PORTD = 0x02;
    6366:	42 bb       	out	0x12, r20	; 18
    6368:	af ef       	ldi	r26, 0xFF	; 255
    636a:	b1 ee       	ldi	r27, 0xE1	; 225
    636c:	c4 e0       	ldi	r28, 0x04	; 4
    636e:	a1 50       	subi	r26, 0x01	; 1
    6370:	b0 40       	sbci	r27, 0x00	; 0
    6372:	c0 40       	sbci	r28, 0x00	; 0
    6374:	e1 f7       	brne	.-8      	; 0x636e <__stack+0x5b0f>
    6376:	00 c0       	rjmp	.+0      	; 0x6378 <__stack+0x5b19>
    6378:	00 00       	nop
					_delay_ms(period);
					PORTD = 0x03;
    637a:	32 bb       	out	0x12, r19	; 18
    637c:	af ef       	ldi	r26, 0xFF	; 255
    637e:	b1 ee       	ldi	r27, 0xE1	; 225
    6380:	c4 e0       	ldi	r28, 0x04	; 4
    6382:	a1 50       	subi	r26, 0x01	; 1
    6384:	b0 40       	sbci	r27, 0x00	; 0
    6386:	c0 40       	sbci	r28, 0x00	; 0
    6388:	e1 f7       	brne	.-8      	; 0x6382 <__stack+0x5b23>
    638a:	00 c0       	rjmp	.+0      	; 0x638c <__stack+0x5b2d>
    638c:	00 00       	nop
					_delay_ms(period);
					PORTD = 0x01;
    638e:	22 bb       	out	0x12, r18	; 18
    6390:	af ef       	ldi	r26, 0xFF	; 255
    6392:	b1 ee       	ldi	r27, 0xE1	; 225
    6394:	c4 e0       	ldi	r28, 0x04	; 4
    6396:	a1 50       	subi	r26, 0x01	; 1
    6398:	b0 40       	sbci	r27, 0x00	; 0
    639a:	c0 40       	sbci	r28, 0x00	; 0
    639c:	e1 f7       	brne	.-8      	; 0x6396 <__stack+0x5b37>
    639e:	00 c0       	rjmp	.+0      	; 0x63a0 <__stack+0x5b41>
    63a0:	00 00       	nop
    63a2:	01 97       	sbiw	r24, 0x01	; 1
				break;
			}
			case 6:
			{
				/* Rotate Stepper Motor clockwise with Half step sequence */
				for (int i = 0; i < 12; i++)
    63a4:	09 f0       	breq	.+2      	; 0x63a8 <__stack+0x5b49>
    63a6:	ad cf       	rjmp	.-166    	; 0x6302 <__stack+0x5aa3>
					PORTD = 0x03;
					_delay_ms(period);
					PORTD = 0x01;
					_delay_ms(period);
				}
				PORTD = 0x09; /* Last step to initial position */
    63a8:	89 e0       	ldi	r24, 0x09	; 9
    63aa:	82 bb       	out	0x12, r24	; 18
    63ac:	ef ef       	ldi	r30, 0xFF	; 255
    63ae:	21 ee       	ldi	r18, 0xE1	; 225
    63b0:	64 e0       	ldi	r22, 0x04	; 4
    63b2:	e1 50       	subi	r30, 0x01	; 1
    63b4:	20 40       	sbci	r18, 0x00	; 0
    63b6:	60 40       	sbci	r22, 0x00	; 0
    63b8:	e1 f7       	brne	.-8      	; 0x63b2 <__stack+0x5b53>
    63ba:	00 c0       	rjmp	.+0      	; 0x63bc <__stack+0x5b5d>
    63bc:	00 00       	nop
    63be:	7f ef       	ldi	r23, 0xFF	; 255
    63c0:	83 ed       	ldi	r24, 0xD3	; 211
    63c2:	90 e3       	ldi	r25, 0x30	; 48
    63c4:	71 50       	subi	r23, 0x01	; 1
    63c6:	80 40       	sbci	r24, 0x00	; 0
    63c8:	90 40       	sbci	r25, 0x00	; 0
    63ca:	e1 f7       	brne	.-8      	; 0x63c4 <__stack+0x5b65>
    63cc:	00 c0       	rjmp	.+0      	; 0x63ce <__stack+0x5b6f>
    63ce:	00 00       	nop
    63d0:	8c e0       	ldi	r24, 0x0C	; 12
    63d2:	90 e0       	ldi	r25, 0x00	; 0
				_delay_ms(1000);

				/* Rotate Stepper Motor Anticlockwise with Full step sequence */
				for (int i = 0; i < 12; i++)
				{
					PORTD = 0x09;
    63d4:	59 e0       	ldi	r21, 0x09	; 9
					_delay_ms(period);
					PORTD = 0x03;
    63d6:	43 e0       	ldi	r20, 0x03	; 3
					_delay_ms(period);
					PORTD = 0x06;
    63d8:	36 e0       	ldi	r19, 0x06	; 6
					_delay_ms(period);
					PORTD = 0x0C;
    63da:	2c e0       	ldi	r18, 0x0C	; 12
				_delay_ms(1000);

				/* Rotate Stepper Motor Anticlockwise with Full step sequence */
				for (int i = 0; i < 12; i++)
				{
					PORTD = 0x09;
    63dc:	52 bb       	out	0x12, r21	; 18
    63de:	af ef       	ldi	r26, 0xFF	; 255
    63e0:	b1 ee       	ldi	r27, 0xE1	; 225
    63e2:	c4 e0       	ldi	r28, 0x04	; 4
    63e4:	a1 50       	subi	r26, 0x01	; 1
    63e6:	b0 40       	sbci	r27, 0x00	; 0
    63e8:	c0 40       	sbci	r28, 0x00	; 0
    63ea:	e1 f7       	brne	.-8      	; 0x63e4 <__stack+0x5b85>
    63ec:	00 c0       	rjmp	.+0      	; 0x63ee <__stack+0x5b8f>
    63ee:	00 00       	nop
					_delay_ms(period);
					PORTD = 0x03;
    63f0:	42 bb       	out	0x12, r20	; 18
    63f2:	ef ef       	ldi	r30, 0xFF	; 255
    63f4:	61 ee       	ldi	r22, 0xE1	; 225
    63f6:	74 e0       	ldi	r23, 0x04	; 4
    63f8:	e1 50       	subi	r30, 0x01	; 1
    63fa:	60 40       	sbci	r22, 0x00	; 0
    63fc:	70 40       	sbci	r23, 0x00	; 0
    63fe:	e1 f7       	brne	.-8      	; 0x63f8 <__stack+0x5b99>
    6400:	00 c0       	rjmp	.+0      	; 0x6402 <__stack+0x5ba3>
    6402:	00 00       	nop
					_delay_ms(period);
					PORTD = 0x06;
    6404:	32 bb       	out	0x12, r19	; 18
    6406:	af ef       	ldi	r26, 0xFF	; 255
    6408:	b1 ee       	ldi	r27, 0xE1	; 225
    640a:	c4 e0       	ldi	r28, 0x04	; 4
    640c:	a1 50       	subi	r26, 0x01	; 1
    640e:	b0 40       	sbci	r27, 0x00	; 0
    6410:	c0 40       	sbci	r28, 0x00	; 0
    6412:	e1 f7       	brne	.-8      	; 0x640c <__stack+0x5bad>
    6414:	00 c0       	rjmp	.+0      	; 0x6416 <__stack+0x5bb7>
    6416:	00 00       	nop
					_delay_ms(period);
					PORTD = 0x0C;
    6418:	22 bb       	out	0x12, r18	; 18
    641a:	ef ef       	ldi	r30, 0xFF	; 255
    641c:	61 ee       	ldi	r22, 0xE1	; 225
    641e:	74 e0       	ldi	r23, 0x04	; 4
    6420:	e1 50       	subi	r30, 0x01	; 1
    6422:	60 40       	sbci	r22, 0x00	; 0
    6424:	70 40       	sbci	r23, 0x00	; 0
    6426:	e1 f7       	brne	.-8      	; 0x6420 <__stack+0x5bc1>
    6428:	00 c0       	rjmp	.+0      	; 0x642a <__stack+0x5bcb>
    642a:	00 00       	nop
    642c:	01 97       	sbiw	r24, 0x01	; 1
				PORTD = 0x09; /* Last step to initial position */
				_delay_ms(period);
				_delay_ms(1000);

				/* Rotate Stepper Motor Anticlockwise with Full step sequence */
				for (int i = 0; i < 12; i++)
    642e:	b1 f6       	brne	.-84     	; 0x63dc <__stack+0x5b7d>
					PORTD = 0x06;
					_delay_ms(period);
					PORTD = 0x0C;
					_delay_ms(period);
				}
				PORTD = 0x09;
    6430:	89 e0       	ldi	r24, 0x09	; 9
    6432:	82 bb       	out	0x12, r24	; 18
    6434:	8f ef       	ldi	r24, 0xFF	; 255
    6436:	91 ee       	ldi	r25, 0xE1	; 225
    6438:	a4 e0       	ldi	r26, 0x04	; 4
    643a:	81 50       	subi	r24, 0x01	; 1
    643c:	90 40       	sbci	r25, 0x00	; 0
    643e:	a0 40       	sbci	r26, 0x00	; 0
    6440:	e1 f7       	brne	.-8      	; 0x643a <__stack+0x5bdb>
    6442:	00 c0       	rjmp	.+0      	; 0x6444 <__stack+0x5be5>
    6444:	00 00       	nop
    6446:	bf ef       	ldi	r27, 0xFF	; 255
    6448:	c3 ed       	ldi	r28, 0xD3	; 211
    644a:	e0 e3       	ldi	r30, 0x30	; 48
    644c:	b1 50       	subi	r27, 0x01	; 1
    644e:	c0 40       	sbci	r28, 0x00	; 0
    6450:	e0 40       	sbci	r30, 0x00	; 0
    6452:	e1 f7       	brne	.-8      	; 0x644c <__stack+0x5bed>
    6454:	00 c0       	rjmp	.+0      	; 0x6456 <__stack+0x5bf7>
    6456:	00 00       	nop
    6458:	0c 94 2c 3b 	jmp	0x7658	; 0x7658 <__stack+0x6df9>
				break;
			}
		}
		break;
		case 8:
		switch (personNum)
    645c:	8c e0       	ldi	r24, 0x0C	; 12
    645e:	90 e0       	ldi	r25, 0x00	; 0
			case 7:
			{
				/* Rotate Stepper Motor clockwise with Half step sequence */
				for (int i = 0; i < 12; i++)
				{
					PORTD = 0x09;
    6460:	f9 e0       	ldi	r31, 0x09	; 9
					_delay_ms(period);
					PORTD = 0x08;
    6462:	e8 e0       	ldi	r30, 0x08	; 8
					_delay_ms(period);
					PORTD = 0x0C;
    6464:	7c e0       	ldi	r23, 0x0C	; 12
					_delay_ms(period);
					PORTD = 0x04;
    6466:	64 e0       	ldi	r22, 0x04	; 4
					_delay_ms(period);
					PORTD = 0x06;
    6468:	56 e0       	ldi	r21, 0x06	; 6
					_delay_ms(period);
					PORTD = 0x02;
    646a:	42 e0       	ldi	r20, 0x02	; 2
					_delay_ms(period);
					PORTD = 0x03;
    646c:	33 e0       	ldi	r19, 0x03	; 3
					_delay_ms(period);
					PORTD = 0x01;
    646e:	21 e0       	ldi	r18, 0x01	; 1
			case 7:
			{
				/* Rotate Stepper Motor clockwise with Half step sequence */
				for (int i = 0; i < 12; i++)
				{
					PORTD = 0x09;
    6470:	f2 bb       	out	0x12, r31	; 18
    6472:	af ef       	ldi	r26, 0xFF	; 255
    6474:	b1 ee       	ldi	r27, 0xE1	; 225
    6476:	c4 e0       	ldi	r28, 0x04	; 4
    6478:	a1 50       	subi	r26, 0x01	; 1
    647a:	b0 40       	sbci	r27, 0x00	; 0
    647c:	c0 40       	sbci	r28, 0x00	; 0
    647e:	e1 f7       	brne	.-8      	; 0x6478 <__stack+0x5c19>
    6480:	00 c0       	rjmp	.+0      	; 0x6482 <__stack+0x5c23>
    6482:	00 00       	nop
					_delay_ms(period);
					PORTD = 0x08;
    6484:	e2 bb       	out	0x12, r30	; 18
    6486:	af ef       	ldi	r26, 0xFF	; 255
    6488:	b1 ee       	ldi	r27, 0xE1	; 225
    648a:	c4 e0       	ldi	r28, 0x04	; 4
    648c:	a1 50       	subi	r26, 0x01	; 1
    648e:	b0 40       	sbci	r27, 0x00	; 0
    6490:	c0 40       	sbci	r28, 0x00	; 0
    6492:	e1 f7       	brne	.-8      	; 0x648c <__stack+0x5c2d>
    6494:	00 c0       	rjmp	.+0      	; 0x6496 <__stack+0x5c37>
    6496:	00 00       	nop
					_delay_ms(period);
					PORTD = 0x0C;
    6498:	72 bb       	out	0x12, r23	; 18
    649a:	af ef       	ldi	r26, 0xFF	; 255
    649c:	b1 ee       	ldi	r27, 0xE1	; 225
    649e:	c4 e0       	ldi	r28, 0x04	; 4
    64a0:	a1 50       	subi	r26, 0x01	; 1
    64a2:	b0 40       	sbci	r27, 0x00	; 0
    64a4:	c0 40       	sbci	r28, 0x00	; 0
    64a6:	e1 f7       	brne	.-8      	; 0x64a0 <__stack+0x5c41>
    64a8:	00 c0       	rjmp	.+0      	; 0x64aa <__stack+0x5c4b>
    64aa:	00 00       	nop
					_delay_ms(period);
					PORTD = 0x04;
    64ac:	62 bb       	out	0x12, r22	; 18
    64ae:	af ef       	ldi	r26, 0xFF	; 255
    64b0:	b1 ee       	ldi	r27, 0xE1	; 225
    64b2:	c4 e0       	ldi	r28, 0x04	; 4
    64b4:	a1 50       	subi	r26, 0x01	; 1
    64b6:	b0 40       	sbci	r27, 0x00	; 0
    64b8:	c0 40       	sbci	r28, 0x00	; 0
    64ba:	e1 f7       	brne	.-8      	; 0x64b4 <__stack+0x5c55>
    64bc:	00 c0       	rjmp	.+0      	; 0x64be <__stack+0x5c5f>
    64be:	00 00       	nop
					_delay_ms(period);
					PORTD = 0x06;
    64c0:	52 bb       	out	0x12, r21	; 18
    64c2:	af ef       	ldi	r26, 0xFF	; 255
    64c4:	b1 ee       	ldi	r27, 0xE1	; 225
    64c6:	c4 e0       	ldi	r28, 0x04	; 4
    64c8:	a1 50       	subi	r26, 0x01	; 1
    64ca:	b0 40       	sbci	r27, 0x00	; 0
    64cc:	c0 40       	sbci	r28, 0x00	; 0
    64ce:	e1 f7       	brne	.-8      	; 0x64c8 <__stack+0x5c69>
    64d0:	00 c0       	rjmp	.+0      	; 0x64d2 <__stack+0x5c73>
    64d2:	00 00       	nop
					_delay_ms(period);
					PORTD = 0x02;
    64d4:	42 bb       	out	0x12, r20	; 18
    64d6:	af ef       	ldi	r26, 0xFF	; 255
    64d8:	b1 ee       	ldi	r27, 0xE1	; 225
    64da:	c4 e0       	ldi	r28, 0x04	; 4
    64dc:	a1 50       	subi	r26, 0x01	; 1
    64de:	b0 40       	sbci	r27, 0x00	; 0
    64e0:	c0 40       	sbci	r28, 0x00	; 0
    64e2:	e1 f7       	brne	.-8      	; 0x64dc <__stack+0x5c7d>
    64e4:	00 c0       	rjmp	.+0      	; 0x64e6 <__stack+0x5c87>
    64e6:	00 00       	nop
					_delay_ms(period);
					PORTD = 0x03;
    64e8:	32 bb       	out	0x12, r19	; 18
    64ea:	af ef       	ldi	r26, 0xFF	; 255
    64ec:	b1 ee       	ldi	r27, 0xE1	; 225
    64ee:	c4 e0       	ldi	r28, 0x04	; 4
    64f0:	a1 50       	subi	r26, 0x01	; 1
    64f2:	b0 40       	sbci	r27, 0x00	; 0
    64f4:	c0 40       	sbci	r28, 0x00	; 0
    64f6:	e1 f7       	brne	.-8      	; 0x64f0 <__stack+0x5c91>
    64f8:	00 c0       	rjmp	.+0      	; 0x64fa <__stack+0x5c9b>
    64fa:	00 00       	nop
					_delay_ms(period);
					PORTD = 0x01;
    64fc:	22 bb       	out	0x12, r18	; 18
    64fe:	af ef       	ldi	r26, 0xFF	; 255
    6500:	b1 ee       	ldi	r27, 0xE1	; 225
    6502:	c4 e0       	ldi	r28, 0x04	; 4
    6504:	a1 50       	subi	r26, 0x01	; 1
    6506:	b0 40       	sbci	r27, 0x00	; 0
    6508:	c0 40       	sbci	r28, 0x00	; 0
    650a:	e1 f7       	brne	.-8      	; 0x6504 <__stack+0x5ca5>
    650c:	00 c0       	rjmp	.+0      	; 0x650e <__stack+0x5caf>
    650e:	00 00       	nop
    6510:	01 97       	sbiw	r24, 0x01	; 1
				break;
			}
			case 7:
			{
				/* Rotate Stepper Motor clockwise with Half step sequence */
				for (int i = 0; i < 12; i++)
    6512:	09 f0       	breq	.+2      	; 0x6516 <__stack+0x5cb7>
    6514:	ad cf       	rjmp	.-166    	; 0x6470 <__stack+0x5c11>
					PORTD = 0x03;
					_delay_ms(period);
					PORTD = 0x01;
					_delay_ms(period);
				}
				PORTD = 0x09; /* Last step to initial position */
    6516:	89 e0       	ldi	r24, 0x09	; 9
    6518:	82 bb       	out	0x12, r24	; 18
    651a:	ef ef       	ldi	r30, 0xFF	; 255
    651c:	21 ee       	ldi	r18, 0xE1	; 225
    651e:	64 e0       	ldi	r22, 0x04	; 4
    6520:	e1 50       	subi	r30, 0x01	; 1
    6522:	20 40       	sbci	r18, 0x00	; 0
    6524:	60 40       	sbci	r22, 0x00	; 0
    6526:	e1 f7       	brne	.-8      	; 0x6520 <__stack+0x5cc1>
    6528:	00 c0       	rjmp	.+0      	; 0x652a <__stack+0x5ccb>
    652a:	00 00       	nop
    652c:	7f ef       	ldi	r23, 0xFF	; 255
    652e:	83 ed       	ldi	r24, 0xD3	; 211
    6530:	90 e3       	ldi	r25, 0x30	; 48
    6532:	71 50       	subi	r23, 0x01	; 1
    6534:	80 40       	sbci	r24, 0x00	; 0
    6536:	90 40       	sbci	r25, 0x00	; 0
    6538:	e1 f7       	brne	.-8      	; 0x6532 <__stack+0x5cd3>
    653a:	00 c0       	rjmp	.+0      	; 0x653c <__stack+0x5cdd>
    653c:	00 00       	nop
    653e:	8c e0       	ldi	r24, 0x0C	; 12
    6540:	90 e0       	ldi	r25, 0x00	; 0
				_delay_ms(1000);

				/* Rotate Stepper Motor Anticlockwise with Full step sequence */
				for (int i = 0; i < 12; i++)
				{
					PORTD = 0x09;
    6542:	59 e0       	ldi	r21, 0x09	; 9
					_delay_ms(period);
					PORTD = 0x03;
    6544:	43 e0       	ldi	r20, 0x03	; 3
					_delay_ms(period);
					PORTD = 0x06;
    6546:	36 e0       	ldi	r19, 0x06	; 6
					_delay_ms(period);
					PORTD = 0x0C;
    6548:	2c e0       	ldi	r18, 0x0C	; 12
				_delay_ms(1000);

				/* Rotate Stepper Motor Anticlockwise with Full step sequence */
				for (int i = 0; i < 12; i++)
				{
					PORTD = 0x09;
    654a:	52 bb       	out	0x12, r21	; 18
    654c:	af ef       	ldi	r26, 0xFF	; 255
    654e:	b1 ee       	ldi	r27, 0xE1	; 225
    6550:	c4 e0       	ldi	r28, 0x04	; 4
    6552:	a1 50       	subi	r26, 0x01	; 1
    6554:	b0 40       	sbci	r27, 0x00	; 0
    6556:	c0 40       	sbci	r28, 0x00	; 0
    6558:	e1 f7       	brne	.-8      	; 0x6552 <__stack+0x5cf3>
    655a:	00 c0       	rjmp	.+0      	; 0x655c <__stack+0x5cfd>
    655c:	00 00       	nop
					_delay_ms(period);
					PORTD = 0x03;
    655e:	42 bb       	out	0x12, r20	; 18
    6560:	ef ef       	ldi	r30, 0xFF	; 255
    6562:	61 ee       	ldi	r22, 0xE1	; 225
    6564:	74 e0       	ldi	r23, 0x04	; 4
    6566:	e1 50       	subi	r30, 0x01	; 1
    6568:	60 40       	sbci	r22, 0x00	; 0
    656a:	70 40       	sbci	r23, 0x00	; 0
    656c:	e1 f7       	brne	.-8      	; 0x6566 <__stack+0x5d07>
    656e:	00 c0       	rjmp	.+0      	; 0x6570 <__stack+0x5d11>
    6570:	00 00       	nop
					_delay_ms(period);
					PORTD = 0x06;
    6572:	32 bb       	out	0x12, r19	; 18
    6574:	af ef       	ldi	r26, 0xFF	; 255
    6576:	b1 ee       	ldi	r27, 0xE1	; 225
    6578:	c4 e0       	ldi	r28, 0x04	; 4
    657a:	a1 50       	subi	r26, 0x01	; 1
    657c:	b0 40       	sbci	r27, 0x00	; 0
    657e:	c0 40       	sbci	r28, 0x00	; 0
    6580:	e1 f7       	brne	.-8      	; 0x657a <__stack+0x5d1b>
    6582:	00 c0       	rjmp	.+0      	; 0x6584 <__stack+0x5d25>
    6584:	00 00       	nop
					_delay_ms(period);
					PORTD = 0x0C;
    6586:	22 bb       	out	0x12, r18	; 18
    6588:	ef ef       	ldi	r30, 0xFF	; 255
    658a:	61 ee       	ldi	r22, 0xE1	; 225
    658c:	74 e0       	ldi	r23, 0x04	; 4
    658e:	e1 50       	subi	r30, 0x01	; 1
    6590:	60 40       	sbci	r22, 0x00	; 0
    6592:	70 40       	sbci	r23, 0x00	; 0
    6594:	e1 f7       	brne	.-8      	; 0x658e <__stack+0x5d2f>
    6596:	00 c0       	rjmp	.+0      	; 0x6598 <__stack+0x5d39>
    6598:	00 00       	nop
    659a:	01 97       	sbiw	r24, 0x01	; 1
				PORTD = 0x09; /* Last step to initial position */
				_delay_ms(period);
				_delay_ms(1000);

				/* Rotate Stepper Motor Anticlockwise with Full step sequence */
				for (int i = 0; i < 12; i++)
    659c:	b1 f6       	brne	.-84     	; 0x654a <__stack+0x5ceb>
					PORTD = 0x06;
					_delay_ms(period);
					PORTD = 0x0C;
					_delay_ms(period);
				}
				PORTD = 0x09;
    659e:	89 e0       	ldi	r24, 0x09	; 9
    65a0:	82 bb       	out	0x12, r24	; 18
    65a2:	8f ef       	ldi	r24, 0xFF	; 255
    65a4:	91 ee       	ldi	r25, 0xE1	; 225
    65a6:	a4 e0       	ldi	r26, 0x04	; 4
    65a8:	81 50       	subi	r24, 0x01	; 1
    65aa:	90 40       	sbci	r25, 0x00	; 0
    65ac:	a0 40       	sbci	r26, 0x00	; 0
    65ae:	e1 f7       	brne	.-8      	; 0x65a8 <__stack+0x5d49>
    65b0:	00 c0       	rjmp	.+0      	; 0x65b2 <__stack+0x5d53>
    65b2:	00 00       	nop
    65b4:	bf ef       	ldi	r27, 0xFF	; 255
    65b6:	c3 ed       	ldi	r28, 0xD3	; 211
    65b8:	e0 e3       	ldi	r30, 0x30	; 48
    65ba:	b1 50       	subi	r27, 0x01	; 1
    65bc:	c0 40       	sbci	r28, 0x00	; 0
    65be:	e0 40       	sbci	r30, 0x00	; 0
    65c0:	e1 f7       	brne	.-8      	; 0x65ba <__stack+0x5d5b>
    65c2:	00 c0       	rjmp	.+0      	; 0x65c4 <__stack+0x5d65>
    65c4:	00 00       	nop
    65c6:	0c 94 2c 3b 	jmp	0x7658	; 0x7658 <__stack+0x6df9>
				break;
			}
		}
		break;
		case 8:
		switch (personNum)
    65ca:	8c e0       	ldi	r24, 0x0C	; 12
    65cc:	90 e0       	ldi	r25, 0x00	; 0
			case 8:
			{
				/* Rotate Stepper Motor clockwise with Half step sequence */
				for (int i = 0; i < 12; i++)
				{
					PORTD = 0x09;
    65ce:	f9 e0       	ldi	r31, 0x09	; 9
					_delay_ms(period);
					PORTD = 0x08;
    65d0:	e8 e0       	ldi	r30, 0x08	; 8
					_delay_ms(period);
					PORTD = 0x0C;
    65d2:	7c e0       	ldi	r23, 0x0C	; 12
					_delay_ms(period);
					PORTD = 0x04;
    65d4:	64 e0       	ldi	r22, 0x04	; 4
					_delay_ms(period);
					PORTD = 0x06;
    65d6:	56 e0       	ldi	r21, 0x06	; 6
					_delay_ms(period);
					PORTD = 0x02;
    65d8:	42 e0       	ldi	r20, 0x02	; 2
					_delay_ms(period);
					PORTD = 0x03;
    65da:	33 e0       	ldi	r19, 0x03	; 3
					_delay_ms(period);
					PORTD = 0x01;
    65dc:	21 e0       	ldi	r18, 0x01	; 1
			case 8:
			{
				/* Rotate Stepper Motor clockwise with Half step sequence */
				for (int i = 0; i < 12; i++)
				{
					PORTD = 0x09;
    65de:	f2 bb       	out	0x12, r31	; 18
    65e0:	af ef       	ldi	r26, 0xFF	; 255
    65e2:	b1 ee       	ldi	r27, 0xE1	; 225
    65e4:	c4 e0       	ldi	r28, 0x04	; 4
    65e6:	a1 50       	subi	r26, 0x01	; 1
    65e8:	b0 40       	sbci	r27, 0x00	; 0
    65ea:	c0 40       	sbci	r28, 0x00	; 0
    65ec:	e1 f7       	brne	.-8      	; 0x65e6 <__stack+0x5d87>
    65ee:	00 c0       	rjmp	.+0      	; 0x65f0 <__stack+0x5d91>
    65f0:	00 00       	nop
					_delay_ms(period);
					PORTD = 0x08;
    65f2:	e2 bb       	out	0x12, r30	; 18
    65f4:	af ef       	ldi	r26, 0xFF	; 255
    65f6:	b1 ee       	ldi	r27, 0xE1	; 225
    65f8:	c4 e0       	ldi	r28, 0x04	; 4
    65fa:	a1 50       	subi	r26, 0x01	; 1
    65fc:	b0 40       	sbci	r27, 0x00	; 0
    65fe:	c0 40       	sbci	r28, 0x00	; 0
    6600:	e1 f7       	brne	.-8      	; 0x65fa <__stack+0x5d9b>
    6602:	00 c0       	rjmp	.+0      	; 0x6604 <__stack+0x5da5>
    6604:	00 00       	nop
					_delay_ms(period);
					PORTD = 0x0C;
    6606:	72 bb       	out	0x12, r23	; 18
    6608:	af ef       	ldi	r26, 0xFF	; 255
    660a:	b1 ee       	ldi	r27, 0xE1	; 225
    660c:	c4 e0       	ldi	r28, 0x04	; 4
    660e:	a1 50       	subi	r26, 0x01	; 1
    6610:	b0 40       	sbci	r27, 0x00	; 0
    6612:	c0 40       	sbci	r28, 0x00	; 0
    6614:	e1 f7       	brne	.-8      	; 0x660e <__stack+0x5daf>
    6616:	00 c0       	rjmp	.+0      	; 0x6618 <__stack+0x5db9>
    6618:	00 00       	nop
					_delay_ms(period);
					PORTD = 0x04;
    661a:	62 bb       	out	0x12, r22	; 18
    661c:	af ef       	ldi	r26, 0xFF	; 255
    661e:	b1 ee       	ldi	r27, 0xE1	; 225
    6620:	c4 e0       	ldi	r28, 0x04	; 4
    6622:	a1 50       	subi	r26, 0x01	; 1
    6624:	b0 40       	sbci	r27, 0x00	; 0
    6626:	c0 40       	sbci	r28, 0x00	; 0
    6628:	e1 f7       	brne	.-8      	; 0x6622 <__stack+0x5dc3>
    662a:	00 c0       	rjmp	.+0      	; 0x662c <__stack+0x5dcd>
    662c:	00 00       	nop
					_delay_ms(period);
					PORTD = 0x06;
    662e:	52 bb       	out	0x12, r21	; 18
    6630:	af ef       	ldi	r26, 0xFF	; 255
    6632:	b1 ee       	ldi	r27, 0xE1	; 225
    6634:	c4 e0       	ldi	r28, 0x04	; 4
    6636:	a1 50       	subi	r26, 0x01	; 1
    6638:	b0 40       	sbci	r27, 0x00	; 0
    663a:	c0 40       	sbci	r28, 0x00	; 0
    663c:	e1 f7       	brne	.-8      	; 0x6636 <__stack+0x5dd7>
    663e:	00 c0       	rjmp	.+0      	; 0x6640 <__stack+0x5de1>
    6640:	00 00       	nop
					_delay_ms(period);
					PORTD = 0x02;
    6642:	42 bb       	out	0x12, r20	; 18
    6644:	af ef       	ldi	r26, 0xFF	; 255
    6646:	b1 ee       	ldi	r27, 0xE1	; 225
    6648:	c4 e0       	ldi	r28, 0x04	; 4
    664a:	a1 50       	subi	r26, 0x01	; 1
    664c:	b0 40       	sbci	r27, 0x00	; 0
    664e:	c0 40       	sbci	r28, 0x00	; 0
    6650:	e1 f7       	brne	.-8      	; 0x664a <__stack+0x5deb>
    6652:	00 c0       	rjmp	.+0      	; 0x6654 <__stack+0x5df5>
    6654:	00 00       	nop
					_delay_ms(period);
					PORTD = 0x03;
    6656:	32 bb       	out	0x12, r19	; 18
    6658:	af ef       	ldi	r26, 0xFF	; 255
    665a:	b1 ee       	ldi	r27, 0xE1	; 225
    665c:	c4 e0       	ldi	r28, 0x04	; 4
    665e:	a1 50       	subi	r26, 0x01	; 1
    6660:	b0 40       	sbci	r27, 0x00	; 0
    6662:	c0 40       	sbci	r28, 0x00	; 0
    6664:	e1 f7       	brne	.-8      	; 0x665e <__stack+0x5dff>
    6666:	00 c0       	rjmp	.+0      	; 0x6668 <__stack+0x5e09>
    6668:	00 00       	nop
					_delay_ms(period);
					PORTD = 0x01;
    666a:	22 bb       	out	0x12, r18	; 18
    666c:	af ef       	ldi	r26, 0xFF	; 255
    666e:	b1 ee       	ldi	r27, 0xE1	; 225
    6670:	c4 e0       	ldi	r28, 0x04	; 4
    6672:	a1 50       	subi	r26, 0x01	; 1
    6674:	b0 40       	sbci	r27, 0x00	; 0
    6676:	c0 40       	sbci	r28, 0x00	; 0
    6678:	e1 f7       	brne	.-8      	; 0x6672 <__stack+0x5e13>
    667a:	00 c0       	rjmp	.+0      	; 0x667c <__stack+0x5e1d>
    667c:	00 00       	nop
    667e:	01 97       	sbiw	r24, 0x01	; 1
				break;
			}
			case 8:
			{
				/* Rotate Stepper Motor clockwise with Half step sequence */
				for (int i = 0; i < 12; i++)
    6680:	09 f0       	breq	.+2      	; 0x6684 <__stack+0x5e25>
    6682:	ad cf       	rjmp	.-166    	; 0x65de <__stack+0x5d7f>
					PORTD = 0x03;
					_delay_ms(period);
					PORTD = 0x01;
					_delay_ms(period);
				}
				PORTD = 0x09; /* Last step to initial position */
    6684:	89 e0       	ldi	r24, 0x09	; 9
    6686:	82 bb       	out	0x12, r24	; 18
    6688:	ef ef       	ldi	r30, 0xFF	; 255
    668a:	21 ee       	ldi	r18, 0xE1	; 225
    668c:	64 e0       	ldi	r22, 0x04	; 4
    668e:	e1 50       	subi	r30, 0x01	; 1
    6690:	20 40       	sbci	r18, 0x00	; 0
    6692:	60 40       	sbci	r22, 0x00	; 0
    6694:	e1 f7       	brne	.-8      	; 0x668e <__stack+0x5e2f>
    6696:	00 c0       	rjmp	.+0      	; 0x6698 <__stack+0x5e39>
    6698:	00 00       	nop
    669a:	7f ef       	ldi	r23, 0xFF	; 255
    669c:	83 ed       	ldi	r24, 0xD3	; 211
    669e:	90 e3       	ldi	r25, 0x30	; 48
    66a0:	71 50       	subi	r23, 0x01	; 1
    66a2:	80 40       	sbci	r24, 0x00	; 0
    66a4:	90 40       	sbci	r25, 0x00	; 0
    66a6:	e1 f7       	brne	.-8      	; 0x66a0 <__stack+0x5e41>
    66a8:	00 c0       	rjmp	.+0      	; 0x66aa <__stack+0x5e4b>
    66aa:	00 00       	nop
    66ac:	8c e0       	ldi	r24, 0x0C	; 12
    66ae:	90 e0       	ldi	r25, 0x00	; 0
				_delay_ms(1000);

				/* Rotate Stepper Motor Anticlockwise with Full step sequence */
				for (int i = 0; i < 12; i++)
				{
					PORTD = 0x09;
    66b0:	59 e0       	ldi	r21, 0x09	; 9
					_delay_ms(period);
					PORTD = 0x03;
    66b2:	43 e0       	ldi	r20, 0x03	; 3
					_delay_ms(period);
					PORTD = 0x06;
    66b4:	36 e0       	ldi	r19, 0x06	; 6
					_delay_ms(period);
					PORTD = 0x0C;
    66b6:	2c e0       	ldi	r18, 0x0C	; 12
				_delay_ms(1000);

				/* Rotate Stepper Motor Anticlockwise with Full step sequence */
				for (int i = 0; i < 12; i++)
				{
					PORTD = 0x09;
    66b8:	52 bb       	out	0x12, r21	; 18
    66ba:	af ef       	ldi	r26, 0xFF	; 255
    66bc:	b1 ee       	ldi	r27, 0xE1	; 225
    66be:	c4 e0       	ldi	r28, 0x04	; 4
    66c0:	a1 50       	subi	r26, 0x01	; 1
    66c2:	b0 40       	sbci	r27, 0x00	; 0
    66c4:	c0 40       	sbci	r28, 0x00	; 0
    66c6:	e1 f7       	brne	.-8      	; 0x66c0 <__stack+0x5e61>
    66c8:	00 c0       	rjmp	.+0      	; 0x66ca <__stack+0x5e6b>
    66ca:	00 00       	nop
					_delay_ms(period);
					PORTD = 0x03;
    66cc:	42 bb       	out	0x12, r20	; 18
    66ce:	ef ef       	ldi	r30, 0xFF	; 255
    66d0:	61 ee       	ldi	r22, 0xE1	; 225
    66d2:	74 e0       	ldi	r23, 0x04	; 4
    66d4:	e1 50       	subi	r30, 0x01	; 1
    66d6:	60 40       	sbci	r22, 0x00	; 0
    66d8:	70 40       	sbci	r23, 0x00	; 0
    66da:	e1 f7       	brne	.-8      	; 0x66d4 <__stack+0x5e75>
    66dc:	00 c0       	rjmp	.+0      	; 0x66de <__stack+0x5e7f>
    66de:	00 00       	nop
					_delay_ms(period);
					PORTD = 0x06;
    66e0:	32 bb       	out	0x12, r19	; 18
    66e2:	af ef       	ldi	r26, 0xFF	; 255
    66e4:	b1 ee       	ldi	r27, 0xE1	; 225
    66e6:	c4 e0       	ldi	r28, 0x04	; 4
    66e8:	a1 50       	subi	r26, 0x01	; 1
    66ea:	b0 40       	sbci	r27, 0x00	; 0
    66ec:	c0 40       	sbci	r28, 0x00	; 0
    66ee:	e1 f7       	brne	.-8      	; 0x66e8 <__stack+0x5e89>
    66f0:	00 c0       	rjmp	.+0      	; 0x66f2 <__stack+0x5e93>
    66f2:	00 00       	nop
					_delay_ms(period);
					PORTD = 0x0C;
    66f4:	22 bb       	out	0x12, r18	; 18
    66f6:	ef ef       	ldi	r30, 0xFF	; 255
    66f8:	61 ee       	ldi	r22, 0xE1	; 225
    66fa:	74 e0       	ldi	r23, 0x04	; 4
    66fc:	e1 50       	subi	r30, 0x01	; 1
    66fe:	60 40       	sbci	r22, 0x00	; 0
    6700:	70 40       	sbci	r23, 0x00	; 0
    6702:	e1 f7       	brne	.-8      	; 0x66fc <__stack+0x5e9d>
    6704:	00 c0       	rjmp	.+0      	; 0x6706 <__stack+0x5ea7>
    6706:	00 00       	nop
    6708:	01 97       	sbiw	r24, 0x01	; 1
				PORTD = 0x09; /* Last step to initial position */
				_delay_ms(period);
				_delay_ms(1000);

				/* Rotate Stepper Motor Anticlockwise with Full step sequence */
				for (int i = 0; i < 12; i++)
    670a:	b1 f6       	brne	.-84     	; 0x66b8 <__stack+0x5e59>
					PORTD = 0x06;
					_delay_ms(period);
					PORTD = 0x0C;
					_delay_ms(period);
				}
				PORTD = 0x09;
    670c:	89 e0       	ldi	r24, 0x09	; 9
    670e:	82 bb       	out	0x12, r24	; 18
    6710:	8f ef       	ldi	r24, 0xFF	; 255
    6712:	91 ee       	ldi	r25, 0xE1	; 225
    6714:	a4 e0       	ldi	r26, 0x04	; 4
    6716:	81 50       	subi	r24, 0x01	; 1
    6718:	90 40       	sbci	r25, 0x00	; 0
    671a:	a0 40       	sbci	r26, 0x00	; 0
    671c:	e1 f7       	brne	.-8      	; 0x6716 <__stack+0x5eb7>
    671e:	00 c0       	rjmp	.+0      	; 0x6720 <__stack+0x5ec1>
    6720:	00 00       	nop
    6722:	bf ef       	ldi	r27, 0xFF	; 255
    6724:	c3 ed       	ldi	r28, 0xD3	; 211
    6726:	e0 e3       	ldi	r30, 0x30	; 48
    6728:	b1 50       	subi	r27, 0x01	; 1
    672a:	c0 40       	sbci	r28, 0x00	; 0
    672c:	e0 40       	sbci	r30, 0x00	; 0
    672e:	e1 f7       	brne	.-8      	; 0x6728 <__stack+0x5ec9>
    6730:	00 c0       	rjmp	.+0      	; 0x6732 <__stack+0x5ed3>
    6732:	00 00       	nop
    6734:	91 c7       	rjmp	.+3874   	; 0x7658 <__stack+0x6df9>
				break;
			}
		}
		break;
		case 8:
		switch (personNum)
    6736:	8c e0       	ldi	r24, 0x0C	; 12
    6738:	90 e0       	ldi	r25, 0x00	; 0
			case 9:
			{
				/* Rotate Stepper Motor clockwise with Half step sequence */
				for (int i = 0; i < 12; i++)
				{
					PORTD = 0x09;
    673a:	f9 e0       	ldi	r31, 0x09	; 9
					_delay_ms(period);
					PORTD = 0x08;
    673c:	e8 e0       	ldi	r30, 0x08	; 8
					_delay_ms(period);
					PORTD = 0x0C;
    673e:	7c e0       	ldi	r23, 0x0C	; 12
					_delay_ms(period);
					PORTD = 0x04;
    6740:	64 e0       	ldi	r22, 0x04	; 4
					_delay_ms(period);
					PORTD = 0x06;
    6742:	56 e0       	ldi	r21, 0x06	; 6
					_delay_ms(period);
					PORTD = 0x02;
    6744:	42 e0       	ldi	r20, 0x02	; 2
					_delay_ms(period);
					PORTD = 0x03;
    6746:	33 e0       	ldi	r19, 0x03	; 3
					_delay_ms(period);
					PORTD = 0x01;
    6748:	21 e0       	ldi	r18, 0x01	; 1
			case 9:
			{
				/* Rotate Stepper Motor clockwise with Half step sequence */
				for (int i = 0; i < 12; i++)
				{
					PORTD = 0x09;
    674a:	f2 bb       	out	0x12, r31	; 18
    674c:	af ef       	ldi	r26, 0xFF	; 255
    674e:	b1 ee       	ldi	r27, 0xE1	; 225
    6750:	c4 e0       	ldi	r28, 0x04	; 4
    6752:	a1 50       	subi	r26, 0x01	; 1
    6754:	b0 40       	sbci	r27, 0x00	; 0
    6756:	c0 40       	sbci	r28, 0x00	; 0
    6758:	e1 f7       	brne	.-8      	; 0x6752 <__stack+0x5ef3>
    675a:	00 c0       	rjmp	.+0      	; 0x675c <__stack+0x5efd>
    675c:	00 00       	nop
					_delay_ms(period);
					PORTD = 0x08;
    675e:	e2 bb       	out	0x12, r30	; 18
    6760:	af ef       	ldi	r26, 0xFF	; 255
    6762:	b1 ee       	ldi	r27, 0xE1	; 225
    6764:	c4 e0       	ldi	r28, 0x04	; 4
    6766:	a1 50       	subi	r26, 0x01	; 1
    6768:	b0 40       	sbci	r27, 0x00	; 0
    676a:	c0 40       	sbci	r28, 0x00	; 0
    676c:	e1 f7       	brne	.-8      	; 0x6766 <__stack+0x5f07>
    676e:	00 c0       	rjmp	.+0      	; 0x6770 <__stack+0x5f11>
    6770:	00 00       	nop
					_delay_ms(period);
					PORTD = 0x0C;
    6772:	72 bb       	out	0x12, r23	; 18
    6774:	af ef       	ldi	r26, 0xFF	; 255
    6776:	b1 ee       	ldi	r27, 0xE1	; 225
    6778:	c4 e0       	ldi	r28, 0x04	; 4
    677a:	a1 50       	subi	r26, 0x01	; 1
    677c:	b0 40       	sbci	r27, 0x00	; 0
    677e:	c0 40       	sbci	r28, 0x00	; 0
    6780:	e1 f7       	brne	.-8      	; 0x677a <__stack+0x5f1b>
    6782:	00 c0       	rjmp	.+0      	; 0x6784 <__stack+0x5f25>
    6784:	00 00       	nop
					_delay_ms(period);
					PORTD = 0x04;
    6786:	62 bb       	out	0x12, r22	; 18
    6788:	af ef       	ldi	r26, 0xFF	; 255
    678a:	b1 ee       	ldi	r27, 0xE1	; 225
    678c:	c4 e0       	ldi	r28, 0x04	; 4
    678e:	a1 50       	subi	r26, 0x01	; 1
    6790:	b0 40       	sbci	r27, 0x00	; 0
    6792:	c0 40       	sbci	r28, 0x00	; 0
    6794:	e1 f7       	brne	.-8      	; 0x678e <__stack+0x5f2f>
    6796:	00 c0       	rjmp	.+0      	; 0x6798 <__stack+0x5f39>
    6798:	00 00       	nop
					_delay_ms(period);
					PORTD = 0x06;
    679a:	52 bb       	out	0x12, r21	; 18
    679c:	af ef       	ldi	r26, 0xFF	; 255
    679e:	b1 ee       	ldi	r27, 0xE1	; 225
    67a0:	c4 e0       	ldi	r28, 0x04	; 4
    67a2:	a1 50       	subi	r26, 0x01	; 1
    67a4:	b0 40       	sbci	r27, 0x00	; 0
    67a6:	c0 40       	sbci	r28, 0x00	; 0
    67a8:	e1 f7       	brne	.-8      	; 0x67a2 <__stack+0x5f43>
    67aa:	00 c0       	rjmp	.+0      	; 0x67ac <__stack+0x5f4d>
    67ac:	00 00       	nop
					_delay_ms(period);
					PORTD = 0x02;
    67ae:	42 bb       	out	0x12, r20	; 18
    67b0:	af ef       	ldi	r26, 0xFF	; 255
    67b2:	b1 ee       	ldi	r27, 0xE1	; 225
    67b4:	c4 e0       	ldi	r28, 0x04	; 4
    67b6:	a1 50       	subi	r26, 0x01	; 1
    67b8:	b0 40       	sbci	r27, 0x00	; 0
    67ba:	c0 40       	sbci	r28, 0x00	; 0
    67bc:	e1 f7       	brne	.-8      	; 0x67b6 <__stack+0x5f57>
    67be:	00 c0       	rjmp	.+0      	; 0x67c0 <__stack+0x5f61>
    67c0:	00 00       	nop
					_delay_ms(period);
					PORTD = 0x03;
    67c2:	32 bb       	out	0x12, r19	; 18
    67c4:	af ef       	ldi	r26, 0xFF	; 255
    67c6:	b1 ee       	ldi	r27, 0xE1	; 225
    67c8:	c4 e0       	ldi	r28, 0x04	; 4
    67ca:	a1 50       	subi	r26, 0x01	; 1
    67cc:	b0 40       	sbci	r27, 0x00	; 0
    67ce:	c0 40       	sbci	r28, 0x00	; 0
    67d0:	e1 f7       	brne	.-8      	; 0x67ca <__stack+0x5f6b>
    67d2:	00 c0       	rjmp	.+0      	; 0x67d4 <__stack+0x5f75>
    67d4:	00 00       	nop
					_delay_ms(period);
					PORTD = 0x01;
    67d6:	22 bb       	out	0x12, r18	; 18
    67d8:	af ef       	ldi	r26, 0xFF	; 255
    67da:	b1 ee       	ldi	r27, 0xE1	; 225
    67dc:	c4 e0       	ldi	r28, 0x04	; 4
    67de:	a1 50       	subi	r26, 0x01	; 1
    67e0:	b0 40       	sbci	r27, 0x00	; 0
    67e2:	c0 40       	sbci	r28, 0x00	; 0
    67e4:	e1 f7       	brne	.-8      	; 0x67de <__stack+0x5f7f>
    67e6:	00 c0       	rjmp	.+0      	; 0x67e8 <__stack+0x5f89>
    67e8:	00 00       	nop
    67ea:	01 97       	sbiw	r24, 0x01	; 1
				break;
			}
			case 9:
			{
				/* Rotate Stepper Motor clockwise with Half step sequence */
				for (int i = 0; i < 12; i++)
    67ec:	09 f0       	breq	.+2      	; 0x67f0 <__stack+0x5f91>
    67ee:	ad cf       	rjmp	.-166    	; 0x674a <__stack+0x5eeb>
					PORTD = 0x03;
					_delay_ms(period);
					PORTD = 0x01;
					_delay_ms(period);
				}
				PORTD = 0x09; /* Last step to initial position */
    67f0:	89 e0       	ldi	r24, 0x09	; 9
    67f2:	82 bb       	out	0x12, r24	; 18
    67f4:	ef ef       	ldi	r30, 0xFF	; 255
    67f6:	21 ee       	ldi	r18, 0xE1	; 225
    67f8:	64 e0       	ldi	r22, 0x04	; 4
    67fa:	e1 50       	subi	r30, 0x01	; 1
    67fc:	20 40       	sbci	r18, 0x00	; 0
    67fe:	60 40       	sbci	r22, 0x00	; 0
    6800:	e1 f7       	brne	.-8      	; 0x67fa <__stack+0x5f9b>
    6802:	00 c0       	rjmp	.+0      	; 0x6804 <__stack+0x5fa5>
    6804:	00 00       	nop
    6806:	7f ef       	ldi	r23, 0xFF	; 255
    6808:	83 ed       	ldi	r24, 0xD3	; 211
    680a:	90 e3       	ldi	r25, 0x30	; 48
    680c:	71 50       	subi	r23, 0x01	; 1
    680e:	80 40       	sbci	r24, 0x00	; 0
    6810:	90 40       	sbci	r25, 0x00	; 0
    6812:	e1 f7       	brne	.-8      	; 0x680c <__stack+0x5fad>
    6814:	00 c0       	rjmp	.+0      	; 0x6816 <__stack+0x5fb7>
    6816:	00 00       	nop
    6818:	8c e0       	ldi	r24, 0x0C	; 12
    681a:	90 e0       	ldi	r25, 0x00	; 0
				_delay_ms(1000);

				/* Rotate Stepper Motor Anticlockwise with Full step sequence */
				for (int i = 0; i < 12; i++)
				{
					PORTD = 0x09;
    681c:	59 e0       	ldi	r21, 0x09	; 9
					_delay_ms(period);
					PORTD = 0x03;
    681e:	43 e0       	ldi	r20, 0x03	; 3
					_delay_ms(period);
					PORTD = 0x06;
    6820:	36 e0       	ldi	r19, 0x06	; 6
					_delay_ms(period);
					PORTD = 0x0C;
    6822:	2c e0       	ldi	r18, 0x0C	; 12
				_delay_ms(1000);

				/* Rotate Stepper Motor Anticlockwise with Full step sequence */
				for (int i = 0; i < 12; i++)
				{
					PORTD = 0x09;
    6824:	52 bb       	out	0x12, r21	; 18
    6826:	af ef       	ldi	r26, 0xFF	; 255
    6828:	b1 ee       	ldi	r27, 0xE1	; 225
    682a:	c4 e0       	ldi	r28, 0x04	; 4
    682c:	a1 50       	subi	r26, 0x01	; 1
    682e:	b0 40       	sbci	r27, 0x00	; 0
    6830:	c0 40       	sbci	r28, 0x00	; 0
    6832:	e1 f7       	brne	.-8      	; 0x682c <__stack+0x5fcd>
    6834:	00 c0       	rjmp	.+0      	; 0x6836 <__stack+0x5fd7>
    6836:	00 00       	nop
					_delay_ms(period);
					PORTD = 0x03;
    6838:	42 bb       	out	0x12, r20	; 18
    683a:	ef ef       	ldi	r30, 0xFF	; 255
    683c:	61 ee       	ldi	r22, 0xE1	; 225
    683e:	74 e0       	ldi	r23, 0x04	; 4
    6840:	e1 50       	subi	r30, 0x01	; 1
    6842:	60 40       	sbci	r22, 0x00	; 0
    6844:	70 40       	sbci	r23, 0x00	; 0
    6846:	e1 f7       	brne	.-8      	; 0x6840 <__stack+0x5fe1>
    6848:	00 c0       	rjmp	.+0      	; 0x684a <__stack+0x5feb>
    684a:	00 00       	nop
					_delay_ms(period);
					PORTD = 0x06;
    684c:	32 bb       	out	0x12, r19	; 18
    684e:	af ef       	ldi	r26, 0xFF	; 255
    6850:	b1 ee       	ldi	r27, 0xE1	; 225
    6852:	c4 e0       	ldi	r28, 0x04	; 4
    6854:	a1 50       	subi	r26, 0x01	; 1
    6856:	b0 40       	sbci	r27, 0x00	; 0
    6858:	c0 40       	sbci	r28, 0x00	; 0
    685a:	e1 f7       	brne	.-8      	; 0x6854 <__stack+0x5ff5>
    685c:	00 c0       	rjmp	.+0      	; 0x685e <__stack+0x5fff>
    685e:	00 00       	nop
					_delay_ms(period);
					PORTD = 0x0C;
    6860:	22 bb       	out	0x12, r18	; 18
    6862:	ef ef       	ldi	r30, 0xFF	; 255
    6864:	61 ee       	ldi	r22, 0xE1	; 225
    6866:	74 e0       	ldi	r23, 0x04	; 4
    6868:	e1 50       	subi	r30, 0x01	; 1
    686a:	60 40       	sbci	r22, 0x00	; 0
    686c:	70 40       	sbci	r23, 0x00	; 0
    686e:	e1 f7       	brne	.-8      	; 0x6868 <__stack+0x6009>
    6870:	00 c0       	rjmp	.+0      	; 0x6872 <__stack+0x6013>
    6872:	00 00       	nop
    6874:	01 97       	sbiw	r24, 0x01	; 1
				PORTD = 0x09; /* Last step to initial position */
				_delay_ms(period);
				_delay_ms(1000);

				/* Rotate Stepper Motor Anticlockwise with Full step sequence */
				for (int i = 0; i < 12; i++)
    6876:	b1 f6       	brne	.-84     	; 0x6824 <__stack+0x5fc5>
					PORTD = 0x06;
					_delay_ms(period);
					PORTD = 0x0C;
					_delay_ms(period);
				}
				PORTD = 0x09;
    6878:	89 e0       	ldi	r24, 0x09	; 9
    687a:	82 bb       	out	0x12, r24	; 18
    687c:	8f ef       	ldi	r24, 0xFF	; 255
    687e:	91 ee       	ldi	r25, 0xE1	; 225
    6880:	a4 e0       	ldi	r26, 0x04	; 4
    6882:	81 50       	subi	r24, 0x01	; 1
    6884:	90 40       	sbci	r25, 0x00	; 0
    6886:	a0 40       	sbci	r26, 0x00	; 0
    6888:	e1 f7       	brne	.-8      	; 0x6882 <__stack+0x6023>
    688a:	00 c0       	rjmp	.+0      	; 0x688c <__stack+0x602d>
    688c:	00 00       	nop
    688e:	bf ef       	ldi	r27, 0xFF	; 255
    6890:	c3 ed       	ldi	r28, 0xD3	; 211
    6892:	e0 e3       	ldi	r30, 0x30	; 48
    6894:	b1 50       	subi	r27, 0x01	; 1
    6896:	c0 40       	sbci	r28, 0x00	; 0
    6898:	e0 40       	sbci	r30, 0x00	; 0
    689a:	e1 f7       	brne	.-8      	; 0x6894 <__stack+0x6035>
    689c:	00 c0       	rjmp	.+0      	; 0x689e <__stack+0x603f>
    689e:	00 00       	nop
    68a0:	db c6       	rjmp	.+3510   	; 0x7658 <__stack+0x6df9>
				break;
			}
		}
		break;
		case 9:
		switch (personNum)
    68a2:	8c e0       	ldi	r24, 0x0C	; 12
    68a4:	90 e0       	ldi	r25, 0x00	; 0
			case 1:
			{
				/* Rotate Stepper Motor clockwise with Half step sequence */
				for (int i = 0; i < 12; i++)
				{
					PORTD = 0x09;
    68a6:	f9 e0       	ldi	r31, 0x09	; 9
					_delay_ms(period);
					PORTD = 0x08;
    68a8:	e8 e0       	ldi	r30, 0x08	; 8
					_delay_ms(period);
					PORTD = 0x0C;
    68aa:	7c e0       	ldi	r23, 0x0C	; 12
					_delay_ms(period);
					PORTD = 0x04;
    68ac:	64 e0       	ldi	r22, 0x04	; 4
					_delay_ms(period);
					PORTD = 0x06;
    68ae:	56 e0       	ldi	r21, 0x06	; 6
					_delay_ms(period);
					PORTD = 0x02;
    68b0:	42 e0       	ldi	r20, 0x02	; 2
					_delay_ms(period);
					PORTD = 0x03;
    68b2:	33 e0       	ldi	r19, 0x03	; 3
					_delay_ms(period);
					PORTD = 0x01;
    68b4:	21 e0       	ldi	r18, 0x01	; 1
			case 1:
			{
				/* Rotate Stepper Motor clockwise with Half step sequence */
				for (int i = 0; i < 12; i++)
				{
					PORTD = 0x09;
    68b6:	f2 bb       	out	0x12, r31	; 18
    68b8:	af ef       	ldi	r26, 0xFF	; 255
    68ba:	b1 ee       	ldi	r27, 0xE1	; 225
    68bc:	c4 e0       	ldi	r28, 0x04	; 4
    68be:	a1 50       	subi	r26, 0x01	; 1
    68c0:	b0 40       	sbci	r27, 0x00	; 0
    68c2:	c0 40       	sbci	r28, 0x00	; 0
    68c4:	e1 f7       	brne	.-8      	; 0x68be <__stack+0x605f>
    68c6:	00 c0       	rjmp	.+0      	; 0x68c8 <__stack+0x6069>
    68c8:	00 00       	nop
					_delay_ms(period);
					PORTD = 0x08;
    68ca:	e2 bb       	out	0x12, r30	; 18
    68cc:	af ef       	ldi	r26, 0xFF	; 255
    68ce:	b1 ee       	ldi	r27, 0xE1	; 225
    68d0:	c4 e0       	ldi	r28, 0x04	; 4
    68d2:	a1 50       	subi	r26, 0x01	; 1
    68d4:	b0 40       	sbci	r27, 0x00	; 0
    68d6:	c0 40       	sbci	r28, 0x00	; 0
    68d8:	e1 f7       	brne	.-8      	; 0x68d2 <__stack+0x6073>
    68da:	00 c0       	rjmp	.+0      	; 0x68dc <__stack+0x607d>
    68dc:	00 00       	nop
					_delay_ms(period);
					PORTD = 0x0C;
    68de:	72 bb       	out	0x12, r23	; 18
    68e0:	af ef       	ldi	r26, 0xFF	; 255
    68e2:	b1 ee       	ldi	r27, 0xE1	; 225
    68e4:	c4 e0       	ldi	r28, 0x04	; 4
    68e6:	a1 50       	subi	r26, 0x01	; 1
    68e8:	b0 40       	sbci	r27, 0x00	; 0
    68ea:	c0 40       	sbci	r28, 0x00	; 0
    68ec:	e1 f7       	brne	.-8      	; 0x68e6 <__stack+0x6087>
    68ee:	00 c0       	rjmp	.+0      	; 0x68f0 <__stack+0x6091>
    68f0:	00 00       	nop
					_delay_ms(period);
					PORTD = 0x04;
    68f2:	62 bb       	out	0x12, r22	; 18
    68f4:	af ef       	ldi	r26, 0xFF	; 255
    68f6:	b1 ee       	ldi	r27, 0xE1	; 225
    68f8:	c4 e0       	ldi	r28, 0x04	; 4
    68fa:	a1 50       	subi	r26, 0x01	; 1
    68fc:	b0 40       	sbci	r27, 0x00	; 0
    68fe:	c0 40       	sbci	r28, 0x00	; 0
    6900:	e1 f7       	brne	.-8      	; 0x68fa <__stack+0x609b>
    6902:	00 c0       	rjmp	.+0      	; 0x6904 <__stack+0x60a5>
    6904:	00 00       	nop
					_delay_ms(period);
					PORTD = 0x06;
    6906:	52 bb       	out	0x12, r21	; 18
    6908:	af ef       	ldi	r26, 0xFF	; 255
    690a:	b1 ee       	ldi	r27, 0xE1	; 225
    690c:	c4 e0       	ldi	r28, 0x04	; 4
    690e:	a1 50       	subi	r26, 0x01	; 1
    6910:	b0 40       	sbci	r27, 0x00	; 0
    6912:	c0 40       	sbci	r28, 0x00	; 0
    6914:	e1 f7       	brne	.-8      	; 0x690e <__stack+0x60af>
    6916:	00 c0       	rjmp	.+0      	; 0x6918 <__stack+0x60b9>
    6918:	00 00       	nop
					_delay_ms(period);
					PORTD = 0x02;
    691a:	42 bb       	out	0x12, r20	; 18
    691c:	af ef       	ldi	r26, 0xFF	; 255
    691e:	b1 ee       	ldi	r27, 0xE1	; 225
    6920:	c4 e0       	ldi	r28, 0x04	; 4
    6922:	a1 50       	subi	r26, 0x01	; 1
    6924:	b0 40       	sbci	r27, 0x00	; 0
    6926:	c0 40       	sbci	r28, 0x00	; 0
    6928:	e1 f7       	brne	.-8      	; 0x6922 <__stack+0x60c3>
    692a:	00 c0       	rjmp	.+0      	; 0x692c <__stack+0x60cd>
    692c:	00 00       	nop
					_delay_ms(period);
					PORTD = 0x03;
    692e:	32 bb       	out	0x12, r19	; 18
    6930:	af ef       	ldi	r26, 0xFF	; 255
    6932:	b1 ee       	ldi	r27, 0xE1	; 225
    6934:	c4 e0       	ldi	r28, 0x04	; 4
    6936:	a1 50       	subi	r26, 0x01	; 1
    6938:	b0 40       	sbci	r27, 0x00	; 0
    693a:	c0 40       	sbci	r28, 0x00	; 0
    693c:	e1 f7       	brne	.-8      	; 0x6936 <__stack+0x60d7>
    693e:	00 c0       	rjmp	.+0      	; 0x6940 <__stack+0x60e1>
    6940:	00 00       	nop
					_delay_ms(period);
					PORTD = 0x01;
    6942:	22 bb       	out	0x12, r18	; 18
    6944:	af ef       	ldi	r26, 0xFF	; 255
    6946:	b1 ee       	ldi	r27, 0xE1	; 225
    6948:	c4 e0       	ldi	r28, 0x04	; 4
    694a:	a1 50       	subi	r26, 0x01	; 1
    694c:	b0 40       	sbci	r27, 0x00	; 0
    694e:	c0 40       	sbci	r28, 0x00	; 0
    6950:	e1 f7       	brne	.-8      	; 0x694a <__stack+0x60eb>
    6952:	00 c0       	rjmp	.+0      	; 0x6954 <__stack+0x60f5>
    6954:	00 00       	nop
    6956:	01 97       	sbiw	r24, 0x01	; 1
		switch (personNum)
		{
			case 1:
			{
				/* Rotate Stepper Motor clockwise with Half step sequence */
				for (int i = 0; i < 12; i++)
    6958:	09 f0       	breq	.+2      	; 0x695c <__stack+0x60fd>
    695a:	ad cf       	rjmp	.-166    	; 0x68b6 <__stack+0x6057>
					PORTD = 0x03;
					_delay_ms(period);
					PORTD = 0x01;
					_delay_ms(period);
				}
				PORTD = 0x09; /* Last step to initial position */
    695c:	89 e0       	ldi	r24, 0x09	; 9
    695e:	82 bb       	out	0x12, r24	; 18
    6960:	ef ef       	ldi	r30, 0xFF	; 255
    6962:	21 ee       	ldi	r18, 0xE1	; 225
    6964:	64 e0       	ldi	r22, 0x04	; 4
    6966:	e1 50       	subi	r30, 0x01	; 1
    6968:	20 40       	sbci	r18, 0x00	; 0
    696a:	60 40       	sbci	r22, 0x00	; 0
    696c:	e1 f7       	brne	.-8      	; 0x6966 <__stack+0x6107>
    696e:	00 c0       	rjmp	.+0      	; 0x6970 <__stack+0x6111>
    6970:	00 00       	nop
    6972:	7f ef       	ldi	r23, 0xFF	; 255
    6974:	83 ed       	ldi	r24, 0xD3	; 211
    6976:	90 e3       	ldi	r25, 0x30	; 48
    6978:	71 50       	subi	r23, 0x01	; 1
    697a:	80 40       	sbci	r24, 0x00	; 0
    697c:	90 40       	sbci	r25, 0x00	; 0
    697e:	e1 f7       	brne	.-8      	; 0x6978 <__stack+0x6119>
    6980:	00 c0       	rjmp	.+0      	; 0x6982 <__stack+0x6123>
    6982:	00 00       	nop
    6984:	8c e0       	ldi	r24, 0x0C	; 12
    6986:	90 e0       	ldi	r25, 0x00	; 0
				_delay_ms(1000);

				/* Rotate Stepper Motor Anticlockwise with Full step sequence */
				for (int i = 0; i < 12; i++)
				{
					PORTD = 0x09;
    6988:	59 e0       	ldi	r21, 0x09	; 9
					_delay_ms(period);
					PORTD = 0x03;
    698a:	43 e0       	ldi	r20, 0x03	; 3
					_delay_ms(period);
					PORTD = 0x06;
    698c:	36 e0       	ldi	r19, 0x06	; 6
					_delay_ms(period);
					PORTD = 0x0C;
    698e:	2c e0       	ldi	r18, 0x0C	; 12
				_delay_ms(1000);

				/* Rotate Stepper Motor Anticlockwise with Full step sequence */
				for (int i = 0; i < 12; i++)
				{
					PORTD = 0x09;
    6990:	52 bb       	out	0x12, r21	; 18
    6992:	af ef       	ldi	r26, 0xFF	; 255
    6994:	b1 ee       	ldi	r27, 0xE1	; 225
    6996:	c4 e0       	ldi	r28, 0x04	; 4
    6998:	a1 50       	subi	r26, 0x01	; 1
    699a:	b0 40       	sbci	r27, 0x00	; 0
    699c:	c0 40       	sbci	r28, 0x00	; 0
    699e:	e1 f7       	brne	.-8      	; 0x6998 <__stack+0x6139>
    69a0:	00 c0       	rjmp	.+0      	; 0x69a2 <__stack+0x6143>
    69a2:	00 00       	nop
					_delay_ms(period);
					PORTD = 0x03;
    69a4:	42 bb       	out	0x12, r20	; 18
    69a6:	ef ef       	ldi	r30, 0xFF	; 255
    69a8:	61 ee       	ldi	r22, 0xE1	; 225
    69aa:	74 e0       	ldi	r23, 0x04	; 4
    69ac:	e1 50       	subi	r30, 0x01	; 1
    69ae:	60 40       	sbci	r22, 0x00	; 0
    69b0:	70 40       	sbci	r23, 0x00	; 0
    69b2:	e1 f7       	brne	.-8      	; 0x69ac <__stack+0x614d>
    69b4:	00 c0       	rjmp	.+0      	; 0x69b6 <__stack+0x6157>
    69b6:	00 00       	nop
					_delay_ms(period);
					PORTD = 0x06;
    69b8:	32 bb       	out	0x12, r19	; 18
    69ba:	af ef       	ldi	r26, 0xFF	; 255
    69bc:	b1 ee       	ldi	r27, 0xE1	; 225
    69be:	c4 e0       	ldi	r28, 0x04	; 4
    69c0:	a1 50       	subi	r26, 0x01	; 1
    69c2:	b0 40       	sbci	r27, 0x00	; 0
    69c4:	c0 40       	sbci	r28, 0x00	; 0
    69c6:	e1 f7       	brne	.-8      	; 0x69c0 <__stack+0x6161>
    69c8:	00 c0       	rjmp	.+0      	; 0x69ca <__stack+0x616b>
    69ca:	00 00       	nop
					_delay_ms(period);
					PORTD = 0x0C;
    69cc:	22 bb       	out	0x12, r18	; 18
    69ce:	ef ef       	ldi	r30, 0xFF	; 255
    69d0:	61 ee       	ldi	r22, 0xE1	; 225
    69d2:	74 e0       	ldi	r23, 0x04	; 4
    69d4:	e1 50       	subi	r30, 0x01	; 1
    69d6:	60 40       	sbci	r22, 0x00	; 0
    69d8:	70 40       	sbci	r23, 0x00	; 0
    69da:	e1 f7       	brne	.-8      	; 0x69d4 <__stack+0x6175>
    69dc:	00 c0       	rjmp	.+0      	; 0x69de <__stack+0x617f>
    69de:	00 00       	nop
    69e0:	01 97       	sbiw	r24, 0x01	; 1
				PORTD = 0x09; /* Last step to initial position */
				_delay_ms(period);
				_delay_ms(1000);

				/* Rotate Stepper Motor Anticlockwise with Full step sequence */
				for (int i = 0; i < 12; i++)
    69e2:	b1 f6       	brne	.-84     	; 0x6990 <__stack+0x6131>
					PORTD = 0x06;
					_delay_ms(period);
					PORTD = 0x0C;
					_delay_ms(period);
				}
				PORTD = 0x09;
    69e4:	89 e0       	ldi	r24, 0x09	; 9
    69e6:	82 bb       	out	0x12, r24	; 18
    69e8:	8f ef       	ldi	r24, 0xFF	; 255
    69ea:	91 ee       	ldi	r25, 0xE1	; 225
    69ec:	a4 e0       	ldi	r26, 0x04	; 4
    69ee:	81 50       	subi	r24, 0x01	; 1
    69f0:	90 40       	sbci	r25, 0x00	; 0
    69f2:	a0 40       	sbci	r26, 0x00	; 0
    69f4:	e1 f7       	brne	.-8      	; 0x69ee <__stack+0x618f>
    69f6:	00 c0       	rjmp	.+0      	; 0x69f8 <__stack+0x6199>
    69f8:	00 00       	nop
    69fa:	bf ef       	ldi	r27, 0xFF	; 255
    69fc:	c3 ed       	ldi	r28, 0xD3	; 211
    69fe:	e0 e3       	ldi	r30, 0x30	; 48
    6a00:	b1 50       	subi	r27, 0x01	; 1
    6a02:	c0 40       	sbci	r28, 0x00	; 0
    6a04:	e0 40       	sbci	r30, 0x00	; 0
    6a06:	e1 f7       	brne	.-8      	; 0x6a00 <__stack+0x61a1>
    6a08:	00 c0       	rjmp	.+0      	; 0x6a0a <__stack+0x61ab>
    6a0a:	00 00       	nop
    6a0c:	25 c6       	rjmp	.+3146   	; 0x7658 <__stack+0x6df9>
				break;
			}
		}
		break;
		case 9:
		switch (personNum)
    6a0e:	8c e0       	ldi	r24, 0x0C	; 12
    6a10:	90 e0       	ldi	r25, 0x00	; 0
			case 2:
			{
				/* Rotate Stepper Motor clockwise with Half step sequence */
				for (int i = 0; i < 12; i++)
				{
					PORTD = 0x09;
    6a12:	f9 e0       	ldi	r31, 0x09	; 9
					_delay_ms(period);
					PORTD = 0x08;
    6a14:	e8 e0       	ldi	r30, 0x08	; 8
					_delay_ms(period);
					PORTD = 0x0C;
    6a16:	7c e0       	ldi	r23, 0x0C	; 12
					_delay_ms(period);
					PORTD = 0x04;
    6a18:	64 e0       	ldi	r22, 0x04	; 4
					_delay_ms(period);
					PORTD = 0x06;
    6a1a:	56 e0       	ldi	r21, 0x06	; 6
					_delay_ms(period);
					PORTD = 0x02;
    6a1c:	42 e0       	ldi	r20, 0x02	; 2
					_delay_ms(period);
					PORTD = 0x03;
    6a1e:	33 e0       	ldi	r19, 0x03	; 3
					_delay_ms(period);
					PORTD = 0x01;
    6a20:	21 e0       	ldi	r18, 0x01	; 1
			case 2:
			{
				/* Rotate Stepper Motor clockwise with Half step sequence */
				for (int i = 0; i < 12; i++)
				{
					PORTD = 0x09;
    6a22:	f2 bb       	out	0x12, r31	; 18
    6a24:	af ef       	ldi	r26, 0xFF	; 255
    6a26:	b1 ee       	ldi	r27, 0xE1	; 225
    6a28:	c4 e0       	ldi	r28, 0x04	; 4
    6a2a:	a1 50       	subi	r26, 0x01	; 1
    6a2c:	b0 40       	sbci	r27, 0x00	; 0
    6a2e:	c0 40       	sbci	r28, 0x00	; 0
    6a30:	e1 f7       	brne	.-8      	; 0x6a2a <__stack+0x61cb>
    6a32:	00 c0       	rjmp	.+0      	; 0x6a34 <__stack+0x61d5>
    6a34:	00 00       	nop
					_delay_ms(period);
					PORTD = 0x08;
    6a36:	e2 bb       	out	0x12, r30	; 18
    6a38:	af ef       	ldi	r26, 0xFF	; 255
    6a3a:	b1 ee       	ldi	r27, 0xE1	; 225
    6a3c:	c4 e0       	ldi	r28, 0x04	; 4
    6a3e:	a1 50       	subi	r26, 0x01	; 1
    6a40:	b0 40       	sbci	r27, 0x00	; 0
    6a42:	c0 40       	sbci	r28, 0x00	; 0
    6a44:	e1 f7       	brne	.-8      	; 0x6a3e <__stack+0x61df>
    6a46:	00 c0       	rjmp	.+0      	; 0x6a48 <__stack+0x61e9>
    6a48:	00 00       	nop
					_delay_ms(period);
					PORTD = 0x0C;
    6a4a:	72 bb       	out	0x12, r23	; 18
    6a4c:	af ef       	ldi	r26, 0xFF	; 255
    6a4e:	b1 ee       	ldi	r27, 0xE1	; 225
    6a50:	c4 e0       	ldi	r28, 0x04	; 4
    6a52:	a1 50       	subi	r26, 0x01	; 1
    6a54:	b0 40       	sbci	r27, 0x00	; 0
    6a56:	c0 40       	sbci	r28, 0x00	; 0
    6a58:	e1 f7       	brne	.-8      	; 0x6a52 <__stack+0x61f3>
    6a5a:	00 c0       	rjmp	.+0      	; 0x6a5c <__stack+0x61fd>
    6a5c:	00 00       	nop
					_delay_ms(period);
					PORTD = 0x04;
    6a5e:	62 bb       	out	0x12, r22	; 18
    6a60:	af ef       	ldi	r26, 0xFF	; 255
    6a62:	b1 ee       	ldi	r27, 0xE1	; 225
    6a64:	c4 e0       	ldi	r28, 0x04	; 4
    6a66:	a1 50       	subi	r26, 0x01	; 1
    6a68:	b0 40       	sbci	r27, 0x00	; 0
    6a6a:	c0 40       	sbci	r28, 0x00	; 0
    6a6c:	e1 f7       	brne	.-8      	; 0x6a66 <__stack+0x6207>
    6a6e:	00 c0       	rjmp	.+0      	; 0x6a70 <__stack+0x6211>
    6a70:	00 00       	nop
					_delay_ms(period);
					PORTD = 0x06;
    6a72:	52 bb       	out	0x12, r21	; 18
    6a74:	af ef       	ldi	r26, 0xFF	; 255
    6a76:	b1 ee       	ldi	r27, 0xE1	; 225
    6a78:	c4 e0       	ldi	r28, 0x04	; 4
    6a7a:	a1 50       	subi	r26, 0x01	; 1
    6a7c:	b0 40       	sbci	r27, 0x00	; 0
    6a7e:	c0 40       	sbci	r28, 0x00	; 0
    6a80:	e1 f7       	brne	.-8      	; 0x6a7a <__stack+0x621b>
    6a82:	00 c0       	rjmp	.+0      	; 0x6a84 <__stack+0x6225>
    6a84:	00 00       	nop
					_delay_ms(period);
					PORTD = 0x02;
    6a86:	42 bb       	out	0x12, r20	; 18
    6a88:	af ef       	ldi	r26, 0xFF	; 255
    6a8a:	b1 ee       	ldi	r27, 0xE1	; 225
    6a8c:	c4 e0       	ldi	r28, 0x04	; 4
    6a8e:	a1 50       	subi	r26, 0x01	; 1
    6a90:	b0 40       	sbci	r27, 0x00	; 0
    6a92:	c0 40       	sbci	r28, 0x00	; 0
    6a94:	e1 f7       	brne	.-8      	; 0x6a8e <__stack+0x622f>
    6a96:	00 c0       	rjmp	.+0      	; 0x6a98 <__stack+0x6239>
    6a98:	00 00       	nop
					_delay_ms(period);
					PORTD = 0x03;
    6a9a:	32 bb       	out	0x12, r19	; 18
    6a9c:	af ef       	ldi	r26, 0xFF	; 255
    6a9e:	b1 ee       	ldi	r27, 0xE1	; 225
    6aa0:	c4 e0       	ldi	r28, 0x04	; 4
    6aa2:	a1 50       	subi	r26, 0x01	; 1
    6aa4:	b0 40       	sbci	r27, 0x00	; 0
    6aa6:	c0 40       	sbci	r28, 0x00	; 0
    6aa8:	e1 f7       	brne	.-8      	; 0x6aa2 <__stack+0x6243>
    6aaa:	00 c0       	rjmp	.+0      	; 0x6aac <__stack+0x624d>
    6aac:	00 00       	nop
					_delay_ms(period);
					PORTD = 0x01;
    6aae:	22 bb       	out	0x12, r18	; 18
    6ab0:	af ef       	ldi	r26, 0xFF	; 255
    6ab2:	b1 ee       	ldi	r27, 0xE1	; 225
    6ab4:	c4 e0       	ldi	r28, 0x04	; 4
    6ab6:	a1 50       	subi	r26, 0x01	; 1
    6ab8:	b0 40       	sbci	r27, 0x00	; 0
    6aba:	c0 40       	sbci	r28, 0x00	; 0
    6abc:	e1 f7       	brne	.-8      	; 0x6ab6 <__stack+0x6257>
    6abe:	00 c0       	rjmp	.+0      	; 0x6ac0 <__stack+0x6261>
    6ac0:	00 00       	nop
    6ac2:	01 97       	sbiw	r24, 0x01	; 1
				break;
			}
			case 2:
			{
				/* Rotate Stepper Motor clockwise with Half step sequence */
				for (int i = 0; i < 12; i++)
    6ac4:	09 f0       	breq	.+2      	; 0x6ac8 <__stack+0x6269>
    6ac6:	ad cf       	rjmp	.-166    	; 0x6a22 <__stack+0x61c3>
					PORTD = 0x03;
					_delay_ms(period);
					PORTD = 0x01;
					_delay_ms(period);
				}
				PORTD = 0x09; /* Last step to initial position */
    6ac8:	89 e0       	ldi	r24, 0x09	; 9
    6aca:	82 bb       	out	0x12, r24	; 18
    6acc:	ef ef       	ldi	r30, 0xFF	; 255
    6ace:	21 ee       	ldi	r18, 0xE1	; 225
    6ad0:	64 e0       	ldi	r22, 0x04	; 4
    6ad2:	e1 50       	subi	r30, 0x01	; 1
    6ad4:	20 40       	sbci	r18, 0x00	; 0
    6ad6:	60 40       	sbci	r22, 0x00	; 0
    6ad8:	e1 f7       	brne	.-8      	; 0x6ad2 <__stack+0x6273>
    6ada:	00 c0       	rjmp	.+0      	; 0x6adc <__stack+0x627d>
    6adc:	00 00       	nop
    6ade:	7f ef       	ldi	r23, 0xFF	; 255
    6ae0:	83 ed       	ldi	r24, 0xD3	; 211
    6ae2:	90 e3       	ldi	r25, 0x30	; 48
    6ae4:	71 50       	subi	r23, 0x01	; 1
    6ae6:	80 40       	sbci	r24, 0x00	; 0
    6ae8:	90 40       	sbci	r25, 0x00	; 0
    6aea:	e1 f7       	brne	.-8      	; 0x6ae4 <__stack+0x6285>
    6aec:	00 c0       	rjmp	.+0      	; 0x6aee <__stack+0x628f>
    6aee:	00 00       	nop
    6af0:	8c e0       	ldi	r24, 0x0C	; 12
    6af2:	90 e0       	ldi	r25, 0x00	; 0
				_delay_ms(1000);

				/* Rotate Stepper Motor Anticlockwise with Full step sequence */
				for (int i = 0; i < 12; i++)
				{
					PORTD = 0x09;
    6af4:	59 e0       	ldi	r21, 0x09	; 9
					_delay_ms(period);
					PORTD = 0x03;
    6af6:	43 e0       	ldi	r20, 0x03	; 3
					_delay_ms(period);
					PORTD = 0x06;
    6af8:	36 e0       	ldi	r19, 0x06	; 6
					_delay_ms(period);
					PORTD = 0x0C;
    6afa:	2c e0       	ldi	r18, 0x0C	; 12
				_delay_ms(1000);

				/* Rotate Stepper Motor Anticlockwise with Full step sequence */
				for (int i = 0; i < 12; i++)
				{
					PORTD = 0x09;
    6afc:	52 bb       	out	0x12, r21	; 18
    6afe:	af ef       	ldi	r26, 0xFF	; 255
    6b00:	b1 ee       	ldi	r27, 0xE1	; 225
    6b02:	c4 e0       	ldi	r28, 0x04	; 4
    6b04:	a1 50       	subi	r26, 0x01	; 1
    6b06:	b0 40       	sbci	r27, 0x00	; 0
    6b08:	c0 40       	sbci	r28, 0x00	; 0
    6b0a:	e1 f7       	brne	.-8      	; 0x6b04 <__stack+0x62a5>
    6b0c:	00 c0       	rjmp	.+0      	; 0x6b0e <__stack+0x62af>
    6b0e:	00 00       	nop
					_delay_ms(period);
					PORTD = 0x03;
    6b10:	42 bb       	out	0x12, r20	; 18
    6b12:	ef ef       	ldi	r30, 0xFF	; 255
    6b14:	61 ee       	ldi	r22, 0xE1	; 225
    6b16:	74 e0       	ldi	r23, 0x04	; 4
    6b18:	e1 50       	subi	r30, 0x01	; 1
    6b1a:	60 40       	sbci	r22, 0x00	; 0
    6b1c:	70 40       	sbci	r23, 0x00	; 0
    6b1e:	e1 f7       	brne	.-8      	; 0x6b18 <__stack+0x62b9>
    6b20:	00 c0       	rjmp	.+0      	; 0x6b22 <__stack+0x62c3>
    6b22:	00 00       	nop
					_delay_ms(period);
					PORTD = 0x06;
    6b24:	32 bb       	out	0x12, r19	; 18
    6b26:	af ef       	ldi	r26, 0xFF	; 255
    6b28:	b1 ee       	ldi	r27, 0xE1	; 225
    6b2a:	c4 e0       	ldi	r28, 0x04	; 4
    6b2c:	a1 50       	subi	r26, 0x01	; 1
    6b2e:	b0 40       	sbci	r27, 0x00	; 0
    6b30:	c0 40       	sbci	r28, 0x00	; 0
    6b32:	e1 f7       	brne	.-8      	; 0x6b2c <__stack+0x62cd>
    6b34:	00 c0       	rjmp	.+0      	; 0x6b36 <__stack+0x62d7>
    6b36:	00 00       	nop
					_delay_ms(period);
					PORTD = 0x0C;
    6b38:	22 bb       	out	0x12, r18	; 18
    6b3a:	ef ef       	ldi	r30, 0xFF	; 255
    6b3c:	61 ee       	ldi	r22, 0xE1	; 225
    6b3e:	74 e0       	ldi	r23, 0x04	; 4
    6b40:	e1 50       	subi	r30, 0x01	; 1
    6b42:	60 40       	sbci	r22, 0x00	; 0
    6b44:	70 40       	sbci	r23, 0x00	; 0
    6b46:	e1 f7       	brne	.-8      	; 0x6b40 <__stack+0x62e1>
    6b48:	00 c0       	rjmp	.+0      	; 0x6b4a <__stack+0x62eb>
    6b4a:	00 00       	nop
    6b4c:	01 97       	sbiw	r24, 0x01	; 1
				PORTD = 0x09; /* Last step to initial position */
				_delay_ms(period);
				_delay_ms(1000);

				/* Rotate Stepper Motor Anticlockwise with Full step sequence */
				for (int i = 0; i < 12; i++)
    6b4e:	b1 f6       	brne	.-84     	; 0x6afc <__stack+0x629d>
					PORTD = 0x06;
					_delay_ms(period);
					PORTD = 0x0C;
					_delay_ms(period);
				}
				PORTD = 0x09;
    6b50:	89 e0       	ldi	r24, 0x09	; 9
    6b52:	82 bb       	out	0x12, r24	; 18
    6b54:	8f ef       	ldi	r24, 0xFF	; 255
    6b56:	91 ee       	ldi	r25, 0xE1	; 225
    6b58:	a4 e0       	ldi	r26, 0x04	; 4
    6b5a:	81 50       	subi	r24, 0x01	; 1
    6b5c:	90 40       	sbci	r25, 0x00	; 0
    6b5e:	a0 40       	sbci	r26, 0x00	; 0
    6b60:	e1 f7       	brne	.-8      	; 0x6b5a <__stack+0x62fb>
    6b62:	00 c0       	rjmp	.+0      	; 0x6b64 <__stack+0x6305>
    6b64:	00 00       	nop
    6b66:	bf ef       	ldi	r27, 0xFF	; 255
    6b68:	c3 ed       	ldi	r28, 0xD3	; 211
    6b6a:	e0 e3       	ldi	r30, 0x30	; 48
    6b6c:	b1 50       	subi	r27, 0x01	; 1
    6b6e:	c0 40       	sbci	r28, 0x00	; 0
    6b70:	e0 40       	sbci	r30, 0x00	; 0
    6b72:	e1 f7       	brne	.-8      	; 0x6b6c <__stack+0x630d>
    6b74:	00 c0       	rjmp	.+0      	; 0x6b76 <__stack+0x6317>
    6b76:	00 00       	nop
    6b78:	6f c5       	rjmp	.+2782   	; 0x7658 <__stack+0x6df9>
				break;
			}
		}
		break;
		case 9:
		switch (personNum)
    6b7a:	8c e0       	ldi	r24, 0x0C	; 12
    6b7c:	90 e0       	ldi	r25, 0x00	; 0
			case 3:
			{
				/* Rotate Stepper Motor clockwise with Half step sequence */
				for (int i = 0; i < 12; i++)
				{
					PORTD = 0x09;
    6b7e:	f9 e0       	ldi	r31, 0x09	; 9
					_delay_ms(period);
					PORTD = 0x08;
    6b80:	e8 e0       	ldi	r30, 0x08	; 8
					_delay_ms(period);
					PORTD = 0x0C;
    6b82:	7c e0       	ldi	r23, 0x0C	; 12
					_delay_ms(period);
					PORTD = 0x04;
    6b84:	64 e0       	ldi	r22, 0x04	; 4
					_delay_ms(period);
					PORTD = 0x06;
    6b86:	56 e0       	ldi	r21, 0x06	; 6
					_delay_ms(period);
					PORTD = 0x02;
    6b88:	42 e0       	ldi	r20, 0x02	; 2
					_delay_ms(period);
					PORTD = 0x03;
    6b8a:	33 e0       	ldi	r19, 0x03	; 3
					_delay_ms(period);
					PORTD = 0x01;
    6b8c:	21 e0       	ldi	r18, 0x01	; 1
			case 3:
			{
				/* Rotate Stepper Motor clockwise with Half step sequence */
				for (int i = 0; i < 12; i++)
				{
					PORTD = 0x09;
    6b8e:	f2 bb       	out	0x12, r31	; 18
    6b90:	af ef       	ldi	r26, 0xFF	; 255
    6b92:	b1 ee       	ldi	r27, 0xE1	; 225
    6b94:	c4 e0       	ldi	r28, 0x04	; 4
    6b96:	a1 50       	subi	r26, 0x01	; 1
    6b98:	b0 40       	sbci	r27, 0x00	; 0
    6b9a:	c0 40       	sbci	r28, 0x00	; 0
    6b9c:	e1 f7       	brne	.-8      	; 0x6b96 <__stack+0x6337>
    6b9e:	00 c0       	rjmp	.+0      	; 0x6ba0 <__stack+0x6341>
    6ba0:	00 00       	nop
					_delay_ms(period);
					PORTD = 0x08;
    6ba2:	e2 bb       	out	0x12, r30	; 18
    6ba4:	af ef       	ldi	r26, 0xFF	; 255
    6ba6:	b1 ee       	ldi	r27, 0xE1	; 225
    6ba8:	c4 e0       	ldi	r28, 0x04	; 4
    6baa:	a1 50       	subi	r26, 0x01	; 1
    6bac:	b0 40       	sbci	r27, 0x00	; 0
    6bae:	c0 40       	sbci	r28, 0x00	; 0
    6bb0:	e1 f7       	brne	.-8      	; 0x6baa <__stack+0x634b>
    6bb2:	00 c0       	rjmp	.+0      	; 0x6bb4 <__stack+0x6355>
    6bb4:	00 00       	nop
					_delay_ms(period);
					PORTD = 0x0C;
    6bb6:	72 bb       	out	0x12, r23	; 18
    6bb8:	af ef       	ldi	r26, 0xFF	; 255
    6bba:	b1 ee       	ldi	r27, 0xE1	; 225
    6bbc:	c4 e0       	ldi	r28, 0x04	; 4
    6bbe:	a1 50       	subi	r26, 0x01	; 1
    6bc0:	b0 40       	sbci	r27, 0x00	; 0
    6bc2:	c0 40       	sbci	r28, 0x00	; 0
    6bc4:	e1 f7       	brne	.-8      	; 0x6bbe <__stack+0x635f>
    6bc6:	00 c0       	rjmp	.+0      	; 0x6bc8 <__stack+0x6369>
    6bc8:	00 00       	nop
					_delay_ms(period);
					PORTD = 0x04;
    6bca:	62 bb       	out	0x12, r22	; 18
    6bcc:	af ef       	ldi	r26, 0xFF	; 255
    6bce:	b1 ee       	ldi	r27, 0xE1	; 225
    6bd0:	c4 e0       	ldi	r28, 0x04	; 4
    6bd2:	a1 50       	subi	r26, 0x01	; 1
    6bd4:	b0 40       	sbci	r27, 0x00	; 0
    6bd6:	c0 40       	sbci	r28, 0x00	; 0
    6bd8:	e1 f7       	brne	.-8      	; 0x6bd2 <__stack+0x6373>
    6bda:	00 c0       	rjmp	.+0      	; 0x6bdc <__stack+0x637d>
    6bdc:	00 00       	nop
					_delay_ms(period);
					PORTD = 0x06;
    6bde:	52 bb       	out	0x12, r21	; 18
    6be0:	af ef       	ldi	r26, 0xFF	; 255
    6be2:	b1 ee       	ldi	r27, 0xE1	; 225
    6be4:	c4 e0       	ldi	r28, 0x04	; 4
    6be6:	a1 50       	subi	r26, 0x01	; 1
    6be8:	b0 40       	sbci	r27, 0x00	; 0
    6bea:	c0 40       	sbci	r28, 0x00	; 0
    6bec:	e1 f7       	brne	.-8      	; 0x6be6 <__stack+0x6387>
    6bee:	00 c0       	rjmp	.+0      	; 0x6bf0 <__stack+0x6391>
    6bf0:	00 00       	nop
					_delay_ms(period);
					PORTD = 0x02;
    6bf2:	42 bb       	out	0x12, r20	; 18
    6bf4:	af ef       	ldi	r26, 0xFF	; 255
    6bf6:	b1 ee       	ldi	r27, 0xE1	; 225
    6bf8:	c4 e0       	ldi	r28, 0x04	; 4
    6bfa:	a1 50       	subi	r26, 0x01	; 1
    6bfc:	b0 40       	sbci	r27, 0x00	; 0
    6bfe:	c0 40       	sbci	r28, 0x00	; 0
    6c00:	e1 f7       	brne	.-8      	; 0x6bfa <__stack+0x639b>
    6c02:	00 c0       	rjmp	.+0      	; 0x6c04 <__stack+0x63a5>
    6c04:	00 00       	nop
					_delay_ms(period);
					PORTD = 0x03;
    6c06:	32 bb       	out	0x12, r19	; 18
    6c08:	af ef       	ldi	r26, 0xFF	; 255
    6c0a:	b1 ee       	ldi	r27, 0xE1	; 225
    6c0c:	c4 e0       	ldi	r28, 0x04	; 4
    6c0e:	a1 50       	subi	r26, 0x01	; 1
    6c10:	b0 40       	sbci	r27, 0x00	; 0
    6c12:	c0 40       	sbci	r28, 0x00	; 0
    6c14:	e1 f7       	brne	.-8      	; 0x6c0e <__stack+0x63af>
    6c16:	00 c0       	rjmp	.+0      	; 0x6c18 <__stack+0x63b9>
    6c18:	00 00       	nop
					_delay_ms(period);
					PORTD = 0x01;
    6c1a:	22 bb       	out	0x12, r18	; 18
    6c1c:	af ef       	ldi	r26, 0xFF	; 255
    6c1e:	b1 ee       	ldi	r27, 0xE1	; 225
    6c20:	c4 e0       	ldi	r28, 0x04	; 4
    6c22:	a1 50       	subi	r26, 0x01	; 1
    6c24:	b0 40       	sbci	r27, 0x00	; 0
    6c26:	c0 40       	sbci	r28, 0x00	; 0
    6c28:	e1 f7       	brne	.-8      	; 0x6c22 <__stack+0x63c3>
    6c2a:	00 c0       	rjmp	.+0      	; 0x6c2c <__stack+0x63cd>
    6c2c:	00 00       	nop
    6c2e:	01 97       	sbiw	r24, 0x01	; 1
				break;
			}
			case 3:
			{
				/* Rotate Stepper Motor clockwise with Half step sequence */
				for (int i = 0; i < 12; i++)
    6c30:	09 f0       	breq	.+2      	; 0x6c34 <__stack+0x63d5>
    6c32:	ad cf       	rjmp	.-166    	; 0x6b8e <__stack+0x632f>
					PORTD = 0x03;
					_delay_ms(period);
					PORTD = 0x01;
					_delay_ms(period);
				}
				PORTD = 0x09; /* Last step to initial position */
    6c34:	89 e0       	ldi	r24, 0x09	; 9
    6c36:	82 bb       	out	0x12, r24	; 18
    6c38:	ef ef       	ldi	r30, 0xFF	; 255
    6c3a:	21 ee       	ldi	r18, 0xE1	; 225
    6c3c:	64 e0       	ldi	r22, 0x04	; 4
    6c3e:	e1 50       	subi	r30, 0x01	; 1
    6c40:	20 40       	sbci	r18, 0x00	; 0
    6c42:	60 40       	sbci	r22, 0x00	; 0
    6c44:	e1 f7       	brne	.-8      	; 0x6c3e <__stack+0x63df>
    6c46:	00 c0       	rjmp	.+0      	; 0x6c48 <__stack+0x63e9>
    6c48:	00 00       	nop
    6c4a:	7f ef       	ldi	r23, 0xFF	; 255
    6c4c:	83 ed       	ldi	r24, 0xD3	; 211
    6c4e:	90 e3       	ldi	r25, 0x30	; 48
    6c50:	71 50       	subi	r23, 0x01	; 1
    6c52:	80 40       	sbci	r24, 0x00	; 0
    6c54:	90 40       	sbci	r25, 0x00	; 0
    6c56:	e1 f7       	brne	.-8      	; 0x6c50 <__stack+0x63f1>
    6c58:	00 c0       	rjmp	.+0      	; 0x6c5a <__stack+0x63fb>
    6c5a:	00 00       	nop
    6c5c:	8c e0       	ldi	r24, 0x0C	; 12
    6c5e:	90 e0       	ldi	r25, 0x00	; 0
				_delay_ms(1000);

				/* Rotate Stepper Motor Anticlockwise with Full step sequence */
				for (int i = 0; i < 12; i++)
				{
					PORTD = 0x09;
    6c60:	59 e0       	ldi	r21, 0x09	; 9
					_delay_ms(period);
					PORTD = 0x03;
    6c62:	43 e0       	ldi	r20, 0x03	; 3
					_delay_ms(period);
					PORTD = 0x06;
    6c64:	36 e0       	ldi	r19, 0x06	; 6
					_delay_ms(period);
					PORTD = 0x0C;
    6c66:	2c e0       	ldi	r18, 0x0C	; 12
				_delay_ms(1000);

				/* Rotate Stepper Motor Anticlockwise with Full step sequence */
				for (int i = 0; i < 12; i++)
				{
					PORTD = 0x09;
    6c68:	52 bb       	out	0x12, r21	; 18
    6c6a:	af ef       	ldi	r26, 0xFF	; 255
    6c6c:	b1 ee       	ldi	r27, 0xE1	; 225
    6c6e:	c4 e0       	ldi	r28, 0x04	; 4
    6c70:	a1 50       	subi	r26, 0x01	; 1
    6c72:	b0 40       	sbci	r27, 0x00	; 0
    6c74:	c0 40       	sbci	r28, 0x00	; 0
    6c76:	e1 f7       	brne	.-8      	; 0x6c70 <__stack+0x6411>
    6c78:	00 c0       	rjmp	.+0      	; 0x6c7a <__stack+0x641b>
    6c7a:	00 00       	nop
					_delay_ms(period);
					PORTD = 0x03;
    6c7c:	42 bb       	out	0x12, r20	; 18
    6c7e:	ef ef       	ldi	r30, 0xFF	; 255
    6c80:	61 ee       	ldi	r22, 0xE1	; 225
    6c82:	74 e0       	ldi	r23, 0x04	; 4
    6c84:	e1 50       	subi	r30, 0x01	; 1
    6c86:	60 40       	sbci	r22, 0x00	; 0
    6c88:	70 40       	sbci	r23, 0x00	; 0
    6c8a:	e1 f7       	brne	.-8      	; 0x6c84 <__stack+0x6425>
    6c8c:	00 c0       	rjmp	.+0      	; 0x6c8e <__stack+0x642f>
    6c8e:	00 00       	nop
					_delay_ms(period);
					PORTD = 0x06;
    6c90:	32 bb       	out	0x12, r19	; 18
    6c92:	af ef       	ldi	r26, 0xFF	; 255
    6c94:	b1 ee       	ldi	r27, 0xE1	; 225
    6c96:	c4 e0       	ldi	r28, 0x04	; 4
    6c98:	a1 50       	subi	r26, 0x01	; 1
    6c9a:	b0 40       	sbci	r27, 0x00	; 0
    6c9c:	c0 40       	sbci	r28, 0x00	; 0
    6c9e:	e1 f7       	brne	.-8      	; 0x6c98 <__stack+0x6439>
    6ca0:	00 c0       	rjmp	.+0      	; 0x6ca2 <__stack+0x6443>
    6ca2:	00 00       	nop
					_delay_ms(period);
					PORTD = 0x0C;
    6ca4:	22 bb       	out	0x12, r18	; 18
    6ca6:	ef ef       	ldi	r30, 0xFF	; 255
    6ca8:	61 ee       	ldi	r22, 0xE1	; 225
    6caa:	74 e0       	ldi	r23, 0x04	; 4
    6cac:	e1 50       	subi	r30, 0x01	; 1
    6cae:	60 40       	sbci	r22, 0x00	; 0
    6cb0:	70 40       	sbci	r23, 0x00	; 0
    6cb2:	e1 f7       	brne	.-8      	; 0x6cac <__stack+0x644d>
    6cb4:	00 c0       	rjmp	.+0      	; 0x6cb6 <__stack+0x6457>
    6cb6:	00 00       	nop
    6cb8:	01 97       	sbiw	r24, 0x01	; 1
				PORTD = 0x09; /* Last step to initial position */
				_delay_ms(period);
				_delay_ms(1000);

				/* Rotate Stepper Motor Anticlockwise with Full step sequence */
				for (int i = 0; i < 12; i++)
    6cba:	b1 f6       	brne	.-84     	; 0x6c68 <__stack+0x6409>
					PORTD = 0x06;
					_delay_ms(period);
					PORTD = 0x0C;
					_delay_ms(period);
				}
				PORTD = 0x09;
    6cbc:	89 e0       	ldi	r24, 0x09	; 9
    6cbe:	82 bb       	out	0x12, r24	; 18
    6cc0:	8f ef       	ldi	r24, 0xFF	; 255
    6cc2:	91 ee       	ldi	r25, 0xE1	; 225
    6cc4:	a4 e0       	ldi	r26, 0x04	; 4
    6cc6:	81 50       	subi	r24, 0x01	; 1
    6cc8:	90 40       	sbci	r25, 0x00	; 0
    6cca:	a0 40       	sbci	r26, 0x00	; 0
    6ccc:	e1 f7       	brne	.-8      	; 0x6cc6 <__stack+0x6467>
    6cce:	00 c0       	rjmp	.+0      	; 0x6cd0 <__stack+0x6471>
    6cd0:	00 00       	nop
    6cd2:	bf ef       	ldi	r27, 0xFF	; 255
    6cd4:	c3 ed       	ldi	r28, 0xD3	; 211
    6cd6:	e0 e3       	ldi	r30, 0x30	; 48
    6cd8:	b1 50       	subi	r27, 0x01	; 1
    6cda:	c0 40       	sbci	r28, 0x00	; 0
    6cdc:	e0 40       	sbci	r30, 0x00	; 0
    6cde:	e1 f7       	brne	.-8      	; 0x6cd8 <__stack+0x6479>
    6ce0:	00 c0       	rjmp	.+0      	; 0x6ce2 <__stack+0x6483>
    6ce2:	00 00       	nop
    6ce4:	b9 c4       	rjmp	.+2418   	; 0x7658 <__stack+0x6df9>
				break;
			}
		}
		break;
		case 9:
		switch (personNum)
    6ce6:	8c e0       	ldi	r24, 0x0C	; 12
    6ce8:	90 e0       	ldi	r25, 0x00	; 0
			case 4:
			{
				/* Rotate Stepper Motor clockwise with Half step sequence */
				for (int i = 0; i < 12; i++)
				{
					PORTD = 0x09;
    6cea:	f9 e0       	ldi	r31, 0x09	; 9
					_delay_ms(period);
					PORTD = 0x08;
    6cec:	e8 e0       	ldi	r30, 0x08	; 8
					_delay_ms(period);
					PORTD = 0x0C;
    6cee:	7c e0       	ldi	r23, 0x0C	; 12
					_delay_ms(period);
					PORTD = 0x04;
    6cf0:	64 e0       	ldi	r22, 0x04	; 4
					_delay_ms(period);
					PORTD = 0x06;
    6cf2:	56 e0       	ldi	r21, 0x06	; 6
					_delay_ms(period);
					PORTD = 0x02;
    6cf4:	42 e0       	ldi	r20, 0x02	; 2
					_delay_ms(period);
					PORTD = 0x03;
    6cf6:	33 e0       	ldi	r19, 0x03	; 3
					_delay_ms(period);
					PORTD = 0x01;
    6cf8:	21 e0       	ldi	r18, 0x01	; 1
			case 4:
			{
				/* Rotate Stepper Motor clockwise with Half step sequence */
				for (int i = 0; i < 12; i++)
				{
					PORTD = 0x09;
    6cfa:	f2 bb       	out	0x12, r31	; 18
    6cfc:	af ef       	ldi	r26, 0xFF	; 255
    6cfe:	b1 ee       	ldi	r27, 0xE1	; 225
    6d00:	c4 e0       	ldi	r28, 0x04	; 4
    6d02:	a1 50       	subi	r26, 0x01	; 1
    6d04:	b0 40       	sbci	r27, 0x00	; 0
    6d06:	c0 40       	sbci	r28, 0x00	; 0
    6d08:	e1 f7       	brne	.-8      	; 0x6d02 <__stack+0x64a3>
    6d0a:	00 c0       	rjmp	.+0      	; 0x6d0c <__stack+0x64ad>
    6d0c:	00 00       	nop
					_delay_ms(period);
					PORTD = 0x08;
    6d0e:	e2 bb       	out	0x12, r30	; 18
    6d10:	af ef       	ldi	r26, 0xFF	; 255
    6d12:	b1 ee       	ldi	r27, 0xE1	; 225
    6d14:	c4 e0       	ldi	r28, 0x04	; 4
    6d16:	a1 50       	subi	r26, 0x01	; 1
    6d18:	b0 40       	sbci	r27, 0x00	; 0
    6d1a:	c0 40       	sbci	r28, 0x00	; 0
    6d1c:	e1 f7       	brne	.-8      	; 0x6d16 <__stack+0x64b7>
    6d1e:	00 c0       	rjmp	.+0      	; 0x6d20 <__stack+0x64c1>
    6d20:	00 00       	nop
					_delay_ms(period);
					PORTD = 0x0C;
    6d22:	72 bb       	out	0x12, r23	; 18
    6d24:	af ef       	ldi	r26, 0xFF	; 255
    6d26:	b1 ee       	ldi	r27, 0xE1	; 225
    6d28:	c4 e0       	ldi	r28, 0x04	; 4
    6d2a:	a1 50       	subi	r26, 0x01	; 1
    6d2c:	b0 40       	sbci	r27, 0x00	; 0
    6d2e:	c0 40       	sbci	r28, 0x00	; 0
    6d30:	e1 f7       	brne	.-8      	; 0x6d2a <__stack+0x64cb>
    6d32:	00 c0       	rjmp	.+0      	; 0x6d34 <__stack+0x64d5>
    6d34:	00 00       	nop
					_delay_ms(period);
					PORTD = 0x04;
    6d36:	62 bb       	out	0x12, r22	; 18
    6d38:	af ef       	ldi	r26, 0xFF	; 255
    6d3a:	b1 ee       	ldi	r27, 0xE1	; 225
    6d3c:	c4 e0       	ldi	r28, 0x04	; 4
    6d3e:	a1 50       	subi	r26, 0x01	; 1
    6d40:	b0 40       	sbci	r27, 0x00	; 0
    6d42:	c0 40       	sbci	r28, 0x00	; 0
    6d44:	e1 f7       	brne	.-8      	; 0x6d3e <__stack+0x64df>
    6d46:	00 c0       	rjmp	.+0      	; 0x6d48 <__stack+0x64e9>
    6d48:	00 00       	nop
					_delay_ms(period);
					PORTD = 0x06;
    6d4a:	52 bb       	out	0x12, r21	; 18
    6d4c:	af ef       	ldi	r26, 0xFF	; 255
    6d4e:	b1 ee       	ldi	r27, 0xE1	; 225
    6d50:	c4 e0       	ldi	r28, 0x04	; 4
    6d52:	a1 50       	subi	r26, 0x01	; 1
    6d54:	b0 40       	sbci	r27, 0x00	; 0
    6d56:	c0 40       	sbci	r28, 0x00	; 0
    6d58:	e1 f7       	brne	.-8      	; 0x6d52 <__stack+0x64f3>
    6d5a:	00 c0       	rjmp	.+0      	; 0x6d5c <__stack+0x64fd>
    6d5c:	00 00       	nop
					_delay_ms(period);
					PORTD = 0x02;
    6d5e:	42 bb       	out	0x12, r20	; 18
    6d60:	af ef       	ldi	r26, 0xFF	; 255
    6d62:	b1 ee       	ldi	r27, 0xE1	; 225
    6d64:	c4 e0       	ldi	r28, 0x04	; 4
    6d66:	a1 50       	subi	r26, 0x01	; 1
    6d68:	b0 40       	sbci	r27, 0x00	; 0
    6d6a:	c0 40       	sbci	r28, 0x00	; 0
    6d6c:	e1 f7       	brne	.-8      	; 0x6d66 <__stack+0x6507>
    6d6e:	00 c0       	rjmp	.+0      	; 0x6d70 <__stack+0x6511>
    6d70:	00 00       	nop
					_delay_ms(period);
					PORTD = 0x03;
    6d72:	32 bb       	out	0x12, r19	; 18
    6d74:	af ef       	ldi	r26, 0xFF	; 255
    6d76:	b1 ee       	ldi	r27, 0xE1	; 225
    6d78:	c4 e0       	ldi	r28, 0x04	; 4
    6d7a:	a1 50       	subi	r26, 0x01	; 1
    6d7c:	b0 40       	sbci	r27, 0x00	; 0
    6d7e:	c0 40       	sbci	r28, 0x00	; 0
    6d80:	e1 f7       	brne	.-8      	; 0x6d7a <__stack+0x651b>
    6d82:	00 c0       	rjmp	.+0      	; 0x6d84 <__stack+0x6525>
    6d84:	00 00       	nop
					_delay_ms(period);
					PORTD = 0x01;
    6d86:	22 bb       	out	0x12, r18	; 18
    6d88:	af ef       	ldi	r26, 0xFF	; 255
    6d8a:	b1 ee       	ldi	r27, 0xE1	; 225
    6d8c:	c4 e0       	ldi	r28, 0x04	; 4
    6d8e:	a1 50       	subi	r26, 0x01	; 1
    6d90:	b0 40       	sbci	r27, 0x00	; 0
    6d92:	c0 40       	sbci	r28, 0x00	; 0
    6d94:	e1 f7       	brne	.-8      	; 0x6d8e <__stack+0x652f>
    6d96:	00 c0       	rjmp	.+0      	; 0x6d98 <__stack+0x6539>
    6d98:	00 00       	nop
    6d9a:	01 97       	sbiw	r24, 0x01	; 1
				break;
			}
			case 4:
			{
				/* Rotate Stepper Motor clockwise with Half step sequence */
				for (int i = 0; i < 12; i++)
    6d9c:	09 f0       	breq	.+2      	; 0x6da0 <__stack+0x6541>
    6d9e:	ad cf       	rjmp	.-166    	; 0x6cfa <__stack+0x649b>
					PORTD = 0x03;
					_delay_ms(period);
					PORTD = 0x01;
					_delay_ms(period);
				}
				PORTD = 0x09; /* Last step to initial position */
    6da0:	89 e0       	ldi	r24, 0x09	; 9
    6da2:	82 bb       	out	0x12, r24	; 18
    6da4:	ef ef       	ldi	r30, 0xFF	; 255
    6da6:	21 ee       	ldi	r18, 0xE1	; 225
    6da8:	64 e0       	ldi	r22, 0x04	; 4
    6daa:	e1 50       	subi	r30, 0x01	; 1
    6dac:	20 40       	sbci	r18, 0x00	; 0
    6dae:	60 40       	sbci	r22, 0x00	; 0
    6db0:	e1 f7       	brne	.-8      	; 0x6daa <__stack+0x654b>
    6db2:	00 c0       	rjmp	.+0      	; 0x6db4 <__stack+0x6555>
    6db4:	00 00       	nop
    6db6:	7f ef       	ldi	r23, 0xFF	; 255
    6db8:	83 ed       	ldi	r24, 0xD3	; 211
    6dba:	90 e3       	ldi	r25, 0x30	; 48
    6dbc:	71 50       	subi	r23, 0x01	; 1
    6dbe:	80 40       	sbci	r24, 0x00	; 0
    6dc0:	90 40       	sbci	r25, 0x00	; 0
    6dc2:	e1 f7       	brne	.-8      	; 0x6dbc <__stack+0x655d>
    6dc4:	00 c0       	rjmp	.+0      	; 0x6dc6 <__stack+0x6567>
    6dc6:	00 00       	nop
    6dc8:	8c e0       	ldi	r24, 0x0C	; 12
    6dca:	90 e0       	ldi	r25, 0x00	; 0
				_delay_ms(1000);

				/* Rotate Stepper Motor Anticlockwise with Full step sequence */
				for (int i = 0; i < 12; i++)
				{
					PORTD = 0x09;
    6dcc:	59 e0       	ldi	r21, 0x09	; 9
					_delay_ms(period);
					PORTD = 0x03;
    6dce:	43 e0       	ldi	r20, 0x03	; 3
					_delay_ms(period);
					PORTD = 0x06;
    6dd0:	36 e0       	ldi	r19, 0x06	; 6
					_delay_ms(period);
					PORTD = 0x0C;
    6dd2:	2c e0       	ldi	r18, 0x0C	; 12
				_delay_ms(1000);

				/* Rotate Stepper Motor Anticlockwise with Full step sequence */
				for (int i = 0; i < 12; i++)
				{
					PORTD = 0x09;
    6dd4:	52 bb       	out	0x12, r21	; 18
    6dd6:	af ef       	ldi	r26, 0xFF	; 255
    6dd8:	b1 ee       	ldi	r27, 0xE1	; 225
    6dda:	c4 e0       	ldi	r28, 0x04	; 4
    6ddc:	a1 50       	subi	r26, 0x01	; 1
    6dde:	b0 40       	sbci	r27, 0x00	; 0
    6de0:	c0 40       	sbci	r28, 0x00	; 0
    6de2:	e1 f7       	brne	.-8      	; 0x6ddc <__stack+0x657d>
    6de4:	00 c0       	rjmp	.+0      	; 0x6de6 <__stack+0x6587>
    6de6:	00 00       	nop
					_delay_ms(period);
					PORTD = 0x03;
    6de8:	42 bb       	out	0x12, r20	; 18
    6dea:	ef ef       	ldi	r30, 0xFF	; 255
    6dec:	61 ee       	ldi	r22, 0xE1	; 225
    6dee:	74 e0       	ldi	r23, 0x04	; 4
    6df0:	e1 50       	subi	r30, 0x01	; 1
    6df2:	60 40       	sbci	r22, 0x00	; 0
    6df4:	70 40       	sbci	r23, 0x00	; 0
    6df6:	e1 f7       	brne	.-8      	; 0x6df0 <__stack+0x6591>
    6df8:	00 c0       	rjmp	.+0      	; 0x6dfa <__stack+0x659b>
    6dfa:	00 00       	nop
					_delay_ms(period);
					PORTD = 0x06;
    6dfc:	32 bb       	out	0x12, r19	; 18
    6dfe:	af ef       	ldi	r26, 0xFF	; 255
    6e00:	b1 ee       	ldi	r27, 0xE1	; 225
    6e02:	c4 e0       	ldi	r28, 0x04	; 4
    6e04:	a1 50       	subi	r26, 0x01	; 1
    6e06:	b0 40       	sbci	r27, 0x00	; 0
    6e08:	c0 40       	sbci	r28, 0x00	; 0
    6e0a:	e1 f7       	brne	.-8      	; 0x6e04 <__stack+0x65a5>
    6e0c:	00 c0       	rjmp	.+0      	; 0x6e0e <__stack+0x65af>
    6e0e:	00 00       	nop
					_delay_ms(period);
					PORTD = 0x0C;
    6e10:	22 bb       	out	0x12, r18	; 18
    6e12:	ef ef       	ldi	r30, 0xFF	; 255
    6e14:	61 ee       	ldi	r22, 0xE1	; 225
    6e16:	74 e0       	ldi	r23, 0x04	; 4
    6e18:	e1 50       	subi	r30, 0x01	; 1
    6e1a:	60 40       	sbci	r22, 0x00	; 0
    6e1c:	70 40       	sbci	r23, 0x00	; 0
    6e1e:	e1 f7       	brne	.-8      	; 0x6e18 <__stack+0x65b9>
    6e20:	00 c0       	rjmp	.+0      	; 0x6e22 <__stack+0x65c3>
    6e22:	00 00       	nop
    6e24:	01 97       	sbiw	r24, 0x01	; 1
				PORTD = 0x09; /* Last step to initial position */
				_delay_ms(period);
				_delay_ms(1000);

				/* Rotate Stepper Motor Anticlockwise with Full step sequence */
				for (int i = 0; i < 12; i++)
    6e26:	b1 f6       	brne	.-84     	; 0x6dd4 <__stack+0x6575>
					PORTD = 0x06;
					_delay_ms(period);
					PORTD = 0x0C;
					_delay_ms(period);
				}
				PORTD = 0x09;
    6e28:	89 e0       	ldi	r24, 0x09	; 9
    6e2a:	82 bb       	out	0x12, r24	; 18
    6e2c:	8f ef       	ldi	r24, 0xFF	; 255
    6e2e:	91 ee       	ldi	r25, 0xE1	; 225
    6e30:	a4 e0       	ldi	r26, 0x04	; 4
    6e32:	81 50       	subi	r24, 0x01	; 1
    6e34:	90 40       	sbci	r25, 0x00	; 0
    6e36:	a0 40       	sbci	r26, 0x00	; 0
    6e38:	e1 f7       	brne	.-8      	; 0x6e32 <__stack+0x65d3>
    6e3a:	00 c0       	rjmp	.+0      	; 0x6e3c <__stack+0x65dd>
    6e3c:	00 00       	nop
    6e3e:	bf ef       	ldi	r27, 0xFF	; 255
    6e40:	c3 ed       	ldi	r28, 0xD3	; 211
    6e42:	e0 e3       	ldi	r30, 0x30	; 48
    6e44:	b1 50       	subi	r27, 0x01	; 1
    6e46:	c0 40       	sbci	r28, 0x00	; 0
    6e48:	e0 40       	sbci	r30, 0x00	; 0
    6e4a:	e1 f7       	brne	.-8      	; 0x6e44 <__stack+0x65e5>
    6e4c:	00 c0       	rjmp	.+0      	; 0x6e4e <__stack+0x65ef>
    6e4e:	00 00       	nop
    6e50:	03 c4       	rjmp	.+2054   	; 0x7658 <__stack+0x6df9>
				break;
			}
		}
		break;
		case 9:
		switch (personNum)
    6e52:	8c e0       	ldi	r24, 0x0C	; 12
    6e54:	90 e0       	ldi	r25, 0x00	; 0
			case 5:
			{
				/* Rotate Stepper Motor clockwise with Half step sequence */
				for (int i = 0; i < 12; i++)
				{
					PORTD = 0x09;
    6e56:	f9 e0       	ldi	r31, 0x09	; 9
					_delay_ms(period);
					PORTD = 0x08;
    6e58:	e8 e0       	ldi	r30, 0x08	; 8
					_delay_ms(period);
					PORTD = 0x0C;
    6e5a:	7c e0       	ldi	r23, 0x0C	; 12
					_delay_ms(period);
					PORTD = 0x04;
    6e5c:	64 e0       	ldi	r22, 0x04	; 4
					_delay_ms(period);
					PORTD = 0x06;
    6e5e:	56 e0       	ldi	r21, 0x06	; 6
					_delay_ms(period);
					PORTD = 0x02;
    6e60:	42 e0       	ldi	r20, 0x02	; 2
					_delay_ms(period);
					PORTD = 0x03;
    6e62:	33 e0       	ldi	r19, 0x03	; 3
					_delay_ms(period);
					PORTD = 0x01;
    6e64:	21 e0       	ldi	r18, 0x01	; 1
			case 5:
			{
				/* Rotate Stepper Motor clockwise with Half step sequence */
				for (int i = 0; i < 12; i++)
				{
					PORTD = 0x09;
    6e66:	f2 bb       	out	0x12, r31	; 18
    6e68:	af ef       	ldi	r26, 0xFF	; 255
    6e6a:	b1 ee       	ldi	r27, 0xE1	; 225
    6e6c:	c4 e0       	ldi	r28, 0x04	; 4
    6e6e:	a1 50       	subi	r26, 0x01	; 1
    6e70:	b0 40       	sbci	r27, 0x00	; 0
    6e72:	c0 40       	sbci	r28, 0x00	; 0
    6e74:	e1 f7       	brne	.-8      	; 0x6e6e <__stack+0x660f>
    6e76:	00 c0       	rjmp	.+0      	; 0x6e78 <__stack+0x6619>
    6e78:	00 00       	nop
					_delay_ms(period);
					PORTD = 0x08;
    6e7a:	e2 bb       	out	0x12, r30	; 18
    6e7c:	af ef       	ldi	r26, 0xFF	; 255
    6e7e:	b1 ee       	ldi	r27, 0xE1	; 225
    6e80:	c4 e0       	ldi	r28, 0x04	; 4
    6e82:	a1 50       	subi	r26, 0x01	; 1
    6e84:	b0 40       	sbci	r27, 0x00	; 0
    6e86:	c0 40       	sbci	r28, 0x00	; 0
    6e88:	e1 f7       	brne	.-8      	; 0x6e82 <__stack+0x6623>
    6e8a:	00 c0       	rjmp	.+0      	; 0x6e8c <__stack+0x662d>
    6e8c:	00 00       	nop
					_delay_ms(period);
					PORTD = 0x0C;
    6e8e:	72 bb       	out	0x12, r23	; 18
    6e90:	af ef       	ldi	r26, 0xFF	; 255
    6e92:	b1 ee       	ldi	r27, 0xE1	; 225
    6e94:	c4 e0       	ldi	r28, 0x04	; 4
    6e96:	a1 50       	subi	r26, 0x01	; 1
    6e98:	b0 40       	sbci	r27, 0x00	; 0
    6e9a:	c0 40       	sbci	r28, 0x00	; 0
    6e9c:	e1 f7       	brne	.-8      	; 0x6e96 <__stack+0x6637>
    6e9e:	00 c0       	rjmp	.+0      	; 0x6ea0 <__stack+0x6641>
    6ea0:	00 00       	nop
					_delay_ms(period);
					PORTD = 0x04;
    6ea2:	62 bb       	out	0x12, r22	; 18
    6ea4:	af ef       	ldi	r26, 0xFF	; 255
    6ea6:	b1 ee       	ldi	r27, 0xE1	; 225
    6ea8:	c4 e0       	ldi	r28, 0x04	; 4
    6eaa:	a1 50       	subi	r26, 0x01	; 1
    6eac:	b0 40       	sbci	r27, 0x00	; 0
    6eae:	c0 40       	sbci	r28, 0x00	; 0
    6eb0:	e1 f7       	brne	.-8      	; 0x6eaa <__stack+0x664b>
    6eb2:	00 c0       	rjmp	.+0      	; 0x6eb4 <__stack+0x6655>
    6eb4:	00 00       	nop
					_delay_ms(period);
					PORTD = 0x06;
    6eb6:	52 bb       	out	0x12, r21	; 18
    6eb8:	af ef       	ldi	r26, 0xFF	; 255
    6eba:	b1 ee       	ldi	r27, 0xE1	; 225
    6ebc:	c4 e0       	ldi	r28, 0x04	; 4
    6ebe:	a1 50       	subi	r26, 0x01	; 1
    6ec0:	b0 40       	sbci	r27, 0x00	; 0
    6ec2:	c0 40       	sbci	r28, 0x00	; 0
    6ec4:	e1 f7       	brne	.-8      	; 0x6ebe <__stack+0x665f>
    6ec6:	00 c0       	rjmp	.+0      	; 0x6ec8 <__stack+0x6669>
    6ec8:	00 00       	nop
					_delay_ms(period);
					PORTD = 0x02;
    6eca:	42 bb       	out	0x12, r20	; 18
    6ecc:	af ef       	ldi	r26, 0xFF	; 255
    6ece:	b1 ee       	ldi	r27, 0xE1	; 225
    6ed0:	c4 e0       	ldi	r28, 0x04	; 4
    6ed2:	a1 50       	subi	r26, 0x01	; 1
    6ed4:	b0 40       	sbci	r27, 0x00	; 0
    6ed6:	c0 40       	sbci	r28, 0x00	; 0
    6ed8:	e1 f7       	brne	.-8      	; 0x6ed2 <__stack+0x6673>
    6eda:	00 c0       	rjmp	.+0      	; 0x6edc <__stack+0x667d>
    6edc:	00 00       	nop
					_delay_ms(period);
					PORTD = 0x03;
    6ede:	32 bb       	out	0x12, r19	; 18
    6ee0:	af ef       	ldi	r26, 0xFF	; 255
    6ee2:	b1 ee       	ldi	r27, 0xE1	; 225
    6ee4:	c4 e0       	ldi	r28, 0x04	; 4
    6ee6:	a1 50       	subi	r26, 0x01	; 1
    6ee8:	b0 40       	sbci	r27, 0x00	; 0
    6eea:	c0 40       	sbci	r28, 0x00	; 0
    6eec:	e1 f7       	brne	.-8      	; 0x6ee6 <__stack+0x6687>
    6eee:	00 c0       	rjmp	.+0      	; 0x6ef0 <__stack+0x6691>
    6ef0:	00 00       	nop
					_delay_ms(period);
					PORTD = 0x01;
    6ef2:	22 bb       	out	0x12, r18	; 18
    6ef4:	af ef       	ldi	r26, 0xFF	; 255
    6ef6:	b1 ee       	ldi	r27, 0xE1	; 225
    6ef8:	c4 e0       	ldi	r28, 0x04	; 4
    6efa:	a1 50       	subi	r26, 0x01	; 1
    6efc:	b0 40       	sbci	r27, 0x00	; 0
    6efe:	c0 40       	sbci	r28, 0x00	; 0
    6f00:	e1 f7       	brne	.-8      	; 0x6efa <__stack+0x669b>
    6f02:	00 c0       	rjmp	.+0      	; 0x6f04 <__stack+0x66a5>
    6f04:	00 00       	nop
    6f06:	01 97       	sbiw	r24, 0x01	; 1
				break;
			}
			case 5:
			{
				/* Rotate Stepper Motor clockwise with Half step sequence */
				for (int i = 0; i < 12; i++)
    6f08:	09 f0       	breq	.+2      	; 0x6f0c <__stack+0x66ad>
    6f0a:	ad cf       	rjmp	.-166    	; 0x6e66 <__stack+0x6607>
					PORTD = 0x03;
					_delay_ms(period);
					PORTD = 0x01;
					_delay_ms(period);
				}
				PORTD = 0x09; /* Last step to initial position */
    6f0c:	89 e0       	ldi	r24, 0x09	; 9
    6f0e:	82 bb       	out	0x12, r24	; 18
    6f10:	ef ef       	ldi	r30, 0xFF	; 255
    6f12:	21 ee       	ldi	r18, 0xE1	; 225
    6f14:	64 e0       	ldi	r22, 0x04	; 4
    6f16:	e1 50       	subi	r30, 0x01	; 1
    6f18:	20 40       	sbci	r18, 0x00	; 0
    6f1a:	60 40       	sbci	r22, 0x00	; 0
    6f1c:	e1 f7       	brne	.-8      	; 0x6f16 <__stack+0x66b7>
    6f1e:	00 c0       	rjmp	.+0      	; 0x6f20 <__stack+0x66c1>
    6f20:	00 00       	nop
    6f22:	7f ef       	ldi	r23, 0xFF	; 255
    6f24:	83 ed       	ldi	r24, 0xD3	; 211
    6f26:	90 e3       	ldi	r25, 0x30	; 48
    6f28:	71 50       	subi	r23, 0x01	; 1
    6f2a:	80 40       	sbci	r24, 0x00	; 0
    6f2c:	90 40       	sbci	r25, 0x00	; 0
    6f2e:	e1 f7       	brne	.-8      	; 0x6f28 <__stack+0x66c9>
    6f30:	00 c0       	rjmp	.+0      	; 0x6f32 <__stack+0x66d3>
    6f32:	00 00       	nop
    6f34:	8c e0       	ldi	r24, 0x0C	; 12
    6f36:	90 e0       	ldi	r25, 0x00	; 0
				_delay_ms(1000);

				/* Rotate Stepper Motor Anticlockwise with Full step sequence */
				for (int i = 0; i < 12; i++)
				{
					PORTD = 0x09;
    6f38:	59 e0       	ldi	r21, 0x09	; 9
					_delay_ms(period);
					PORTD = 0x03;
    6f3a:	43 e0       	ldi	r20, 0x03	; 3
					_delay_ms(period);
					PORTD = 0x06;
    6f3c:	36 e0       	ldi	r19, 0x06	; 6
					_delay_ms(period);
					PORTD = 0x0C;
    6f3e:	2c e0       	ldi	r18, 0x0C	; 12
				_delay_ms(1000);

				/* Rotate Stepper Motor Anticlockwise with Full step sequence */
				for (int i = 0; i < 12; i++)
				{
					PORTD = 0x09;
    6f40:	52 bb       	out	0x12, r21	; 18
    6f42:	af ef       	ldi	r26, 0xFF	; 255
    6f44:	b1 ee       	ldi	r27, 0xE1	; 225
    6f46:	c4 e0       	ldi	r28, 0x04	; 4
    6f48:	a1 50       	subi	r26, 0x01	; 1
    6f4a:	b0 40       	sbci	r27, 0x00	; 0
    6f4c:	c0 40       	sbci	r28, 0x00	; 0
    6f4e:	e1 f7       	brne	.-8      	; 0x6f48 <__stack+0x66e9>
    6f50:	00 c0       	rjmp	.+0      	; 0x6f52 <__stack+0x66f3>
    6f52:	00 00       	nop
					_delay_ms(period);
					PORTD = 0x03;
    6f54:	42 bb       	out	0x12, r20	; 18
    6f56:	ef ef       	ldi	r30, 0xFF	; 255
    6f58:	61 ee       	ldi	r22, 0xE1	; 225
    6f5a:	74 e0       	ldi	r23, 0x04	; 4
    6f5c:	e1 50       	subi	r30, 0x01	; 1
    6f5e:	60 40       	sbci	r22, 0x00	; 0
    6f60:	70 40       	sbci	r23, 0x00	; 0
    6f62:	e1 f7       	brne	.-8      	; 0x6f5c <__stack+0x66fd>
    6f64:	00 c0       	rjmp	.+0      	; 0x6f66 <__stack+0x6707>
    6f66:	00 00       	nop
					_delay_ms(period);
					PORTD = 0x06;
    6f68:	32 bb       	out	0x12, r19	; 18
    6f6a:	af ef       	ldi	r26, 0xFF	; 255
    6f6c:	b1 ee       	ldi	r27, 0xE1	; 225
    6f6e:	c4 e0       	ldi	r28, 0x04	; 4
    6f70:	a1 50       	subi	r26, 0x01	; 1
    6f72:	b0 40       	sbci	r27, 0x00	; 0
    6f74:	c0 40       	sbci	r28, 0x00	; 0
    6f76:	e1 f7       	brne	.-8      	; 0x6f70 <__stack+0x6711>
    6f78:	00 c0       	rjmp	.+0      	; 0x6f7a <__stack+0x671b>
    6f7a:	00 00       	nop
					_delay_ms(period);
					PORTD = 0x0C;
    6f7c:	22 bb       	out	0x12, r18	; 18
    6f7e:	ef ef       	ldi	r30, 0xFF	; 255
    6f80:	61 ee       	ldi	r22, 0xE1	; 225
    6f82:	74 e0       	ldi	r23, 0x04	; 4
    6f84:	e1 50       	subi	r30, 0x01	; 1
    6f86:	60 40       	sbci	r22, 0x00	; 0
    6f88:	70 40       	sbci	r23, 0x00	; 0
    6f8a:	e1 f7       	brne	.-8      	; 0x6f84 <__stack+0x6725>
    6f8c:	00 c0       	rjmp	.+0      	; 0x6f8e <__stack+0x672f>
    6f8e:	00 00       	nop
    6f90:	01 97       	sbiw	r24, 0x01	; 1
				PORTD = 0x09; /* Last step to initial position */
				_delay_ms(period);
				_delay_ms(1000);

				/* Rotate Stepper Motor Anticlockwise with Full step sequence */
				for (int i = 0; i < 12; i++)
    6f92:	b1 f6       	brne	.-84     	; 0x6f40 <__stack+0x66e1>
					PORTD = 0x06;
					_delay_ms(period);
					PORTD = 0x0C;
					_delay_ms(period);
				}
				PORTD = 0x09;
    6f94:	89 e0       	ldi	r24, 0x09	; 9
    6f96:	82 bb       	out	0x12, r24	; 18
    6f98:	8f ef       	ldi	r24, 0xFF	; 255
    6f9a:	91 ee       	ldi	r25, 0xE1	; 225
    6f9c:	a4 e0       	ldi	r26, 0x04	; 4
    6f9e:	81 50       	subi	r24, 0x01	; 1
    6fa0:	90 40       	sbci	r25, 0x00	; 0
    6fa2:	a0 40       	sbci	r26, 0x00	; 0
    6fa4:	e1 f7       	brne	.-8      	; 0x6f9e <__stack+0x673f>
    6fa6:	00 c0       	rjmp	.+0      	; 0x6fa8 <__stack+0x6749>
    6fa8:	00 00       	nop
    6faa:	bf ef       	ldi	r27, 0xFF	; 255
    6fac:	c3 ed       	ldi	r28, 0xD3	; 211
    6fae:	e0 e3       	ldi	r30, 0x30	; 48
    6fb0:	b1 50       	subi	r27, 0x01	; 1
    6fb2:	c0 40       	sbci	r28, 0x00	; 0
    6fb4:	e0 40       	sbci	r30, 0x00	; 0
    6fb6:	e1 f7       	brne	.-8      	; 0x6fb0 <__stack+0x6751>
    6fb8:	00 c0       	rjmp	.+0      	; 0x6fba <__stack+0x675b>
    6fba:	00 00       	nop
    6fbc:	4d c3       	rjmp	.+1690   	; 0x7658 <__stack+0x6df9>
				break;
			}
		}
		break;
		case 9:
		switch (personNum)
    6fbe:	8c e0       	ldi	r24, 0x0C	; 12
    6fc0:	90 e0       	ldi	r25, 0x00	; 0
			case 6:
			{
				/* Rotate Stepper Motor clockwise with Half step sequence */
				for (int i = 0; i < 12; i++)
				{
					PORTD = 0x09;
    6fc2:	f9 e0       	ldi	r31, 0x09	; 9
					_delay_ms(period);
					PORTD = 0x08;
    6fc4:	e8 e0       	ldi	r30, 0x08	; 8
					_delay_ms(period);
					PORTD = 0x0C;
    6fc6:	7c e0       	ldi	r23, 0x0C	; 12
					_delay_ms(period);
					PORTD = 0x04;
    6fc8:	64 e0       	ldi	r22, 0x04	; 4
					_delay_ms(period);
					PORTD = 0x06;
    6fca:	56 e0       	ldi	r21, 0x06	; 6
					_delay_ms(period);
					PORTD = 0x02;
    6fcc:	42 e0       	ldi	r20, 0x02	; 2
					_delay_ms(period);
					PORTD = 0x03;
    6fce:	33 e0       	ldi	r19, 0x03	; 3
					_delay_ms(period);
					PORTD = 0x01;
    6fd0:	21 e0       	ldi	r18, 0x01	; 1
			case 6:
			{
				/* Rotate Stepper Motor clockwise with Half step sequence */
				for (int i = 0; i < 12; i++)
				{
					PORTD = 0x09;
    6fd2:	f2 bb       	out	0x12, r31	; 18
    6fd4:	af ef       	ldi	r26, 0xFF	; 255
    6fd6:	b1 ee       	ldi	r27, 0xE1	; 225
    6fd8:	c4 e0       	ldi	r28, 0x04	; 4
    6fda:	a1 50       	subi	r26, 0x01	; 1
    6fdc:	b0 40       	sbci	r27, 0x00	; 0
    6fde:	c0 40       	sbci	r28, 0x00	; 0
    6fe0:	e1 f7       	brne	.-8      	; 0x6fda <__stack+0x677b>
    6fe2:	00 c0       	rjmp	.+0      	; 0x6fe4 <__stack+0x6785>
    6fe4:	00 00       	nop
					_delay_ms(period);
					PORTD = 0x08;
    6fe6:	e2 bb       	out	0x12, r30	; 18
    6fe8:	af ef       	ldi	r26, 0xFF	; 255
    6fea:	b1 ee       	ldi	r27, 0xE1	; 225
    6fec:	c4 e0       	ldi	r28, 0x04	; 4
    6fee:	a1 50       	subi	r26, 0x01	; 1
    6ff0:	b0 40       	sbci	r27, 0x00	; 0
    6ff2:	c0 40       	sbci	r28, 0x00	; 0
    6ff4:	e1 f7       	brne	.-8      	; 0x6fee <__stack+0x678f>
    6ff6:	00 c0       	rjmp	.+0      	; 0x6ff8 <__stack+0x6799>
    6ff8:	00 00       	nop
					_delay_ms(period);
					PORTD = 0x0C;
    6ffa:	72 bb       	out	0x12, r23	; 18
    6ffc:	af ef       	ldi	r26, 0xFF	; 255
    6ffe:	b1 ee       	ldi	r27, 0xE1	; 225
    7000:	c4 e0       	ldi	r28, 0x04	; 4
    7002:	a1 50       	subi	r26, 0x01	; 1
    7004:	b0 40       	sbci	r27, 0x00	; 0
    7006:	c0 40       	sbci	r28, 0x00	; 0
    7008:	e1 f7       	brne	.-8      	; 0x7002 <__stack+0x67a3>
    700a:	00 c0       	rjmp	.+0      	; 0x700c <__stack+0x67ad>
    700c:	00 00       	nop
					_delay_ms(period);
					PORTD = 0x04;
    700e:	62 bb       	out	0x12, r22	; 18
    7010:	af ef       	ldi	r26, 0xFF	; 255
    7012:	b1 ee       	ldi	r27, 0xE1	; 225
    7014:	c4 e0       	ldi	r28, 0x04	; 4
    7016:	a1 50       	subi	r26, 0x01	; 1
    7018:	b0 40       	sbci	r27, 0x00	; 0
    701a:	c0 40       	sbci	r28, 0x00	; 0
    701c:	e1 f7       	brne	.-8      	; 0x7016 <__stack+0x67b7>
    701e:	00 c0       	rjmp	.+0      	; 0x7020 <__stack+0x67c1>
    7020:	00 00       	nop
					_delay_ms(period);
					PORTD = 0x06;
    7022:	52 bb       	out	0x12, r21	; 18
    7024:	af ef       	ldi	r26, 0xFF	; 255
    7026:	b1 ee       	ldi	r27, 0xE1	; 225
    7028:	c4 e0       	ldi	r28, 0x04	; 4
    702a:	a1 50       	subi	r26, 0x01	; 1
    702c:	b0 40       	sbci	r27, 0x00	; 0
    702e:	c0 40       	sbci	r28, 0x00	; 0
    7030:	e1 f7       	brne	.-8      	; 0x702a <__stack+0x67cb>
    7032:	00 c0       	rjmp	.+0      	; 0x7034 <__stack+0x67d5>
    7034:	00 00       	nop
					_delay_ms(period);
					PORTD = 0x02;
    7036:	42 bb       	out	0x12, r20	; 18
    7038:	af ef       	ldi	r26, 0xFF	; 255
    703a:	b1 ee       	ldi	r27, 0xE1	; 225
    703c:	c4 e0       	ldi	r28, 0x04	; 4
    703e:	a1 50       	subi	r26, 0x01	; 1
    7040:	b0 40       	sbci	r27, 0x00	; 0
    7042:	c0 40       	sbci	r28, 0x00	; 0
    7044:	e1 f7       	brne	.-8      	; 0x703e <__stack+0x67df>
    7046:	00 c0       	rjmp	.+0      	; 0x7048 <__stack+0x67e9>
    7048:	00 00       	nop
					_delay_ms(period);
					PORTD = 0x03;
    704a:	32 bb       	out	0x12, r19	; 18
    704c:	af ef       	ldi	r26, 0xFF	; 255
    704e:	b1 ee       	ldi	r27, 0xE1	; 225
    7050:	c4 e0       	ldi	r28, 0x04	; 4
    7052:	a1 50       	subi	r26, 0x01	; 1
    7054:	b0 40       	sbci	r27, 0x00	; 0
    7056:	c0 40       	sbci	r28, 0x00	; 0
    7058:	e1 f7       	brne	.-8      	; 0x7052 <__stack+0x67f3>
    705a:	00 c0       	rjmp	.+0      	; 0x705c <__stack+0x67fd>
    705c:	00 00       	nop
					_delay_ms(period);
					PORTD = 0x01;
    705e:	22 bb       	out	0x12, r18	; 18
    7060:	af ef       	ldi	r26, 0xFF	; 255
    7062:	b1 ee       	ldi	r27, 0xE1	; 225
    7064:	c4 e0       	ldi	r28, 0x04	; 4
    7066:	a1 50       	subi	r26, 0x01	; 1
    7068:	b0 40       	sbci	r27, 0x00	; 0
    706a:	c0 40       	sbci	r28, 0x00	; 0
    706c:	e1 f7       	brne	.-8      	; 0x7066 <__stack+0x6807>
    706e:	00 c0       	rjmp	.+0      	; 0x7070 <__stack+0x6811>
    7070:	00 00       	nop
    7072:	01 97       	sbiw	r24, 0x01	; 1
				break;
			}
			case 6:
			{
				/* Rotate Stepper Motor clockwise with Half step sequence */
				for (int i = 0; i < 12; i++)
    7074:	09 f0       	breq	.+2      	; 0x7078 <__stack+0x6819>
    7076:	ad cf       	rjmp	.-166    	; 0x6fd2 <__stack+0x6773>
					PORTD = 0x03;
					_delay_ms(period);
					PORTD = 0x01;
					_delay_ms(period);
				}
				PORTD = 0x09; /* Last step to initial position */
    7078:	89 e0       	ldi	r24, 0x09	; 9
    707a:	82 bb       	out	0x12, r24	; 18
    707c:	ef ef       	ldi	r30, 0xFF	; 255
    707e:	21 ee       	ldi	r18, 0xE1	; 225
    7080:	64 e0       	ldi	r22, 0x04	; 4
    7082:	e1 50       	subi	r30, 0x01	; 1
    7084:	20 40       	sbci	r18, 0x00	; 0
    7086:	60 40       	sbci	r22, 0x00	; 0
    7088:	e1 f7       	brne	.-8      	; 0x7082 <__stack+0x6823>
    708a:	00 c0       	rjmp	.+0      	; 0x708c <__stack+0x682d>
    708c:	00 00       	nop
    708e:	7f ef       	ldi	r23, 0xFF	; 255
    7090:	83 ed       	ldi	r24, 0xD3	; 211
    7092:	90 e3       	ldi	r25, 0x30	; 48
    7094:	71 50       	subi	r23, 0x01	; 1
    7096:	80 40       	sbci	r24, 0x00	; 0
    7098:	90 40       	sbci	r25, 0x00	; 0
    709a:	e1 f7       	brne	.-8      	; 0x7094 <__stack+0x6835>
    709c:	00 c0       	rjmp	.+0      	; 0x709e <__stack+0x683f>
    709e:	00 00       	nop
    70a0:	8c e0       	ldi	r24, 0x0C	; 12
    70a2:	90 e0       	ldi	r25, 0x00	; 0
				_delay_ms(1000);

				/* Rotate Stepper Motor Anticlockwise with Full step sequence */
				for (int i = 0; i < 12; i++)
				{
					PORTD = 0x09;
    70a4:	59 e0       	ldi	r21, 0x09	; 9
					_delay_ms(period);
					PORTD = 0x03;
    70a6:	43 e0       	ldi	r20, 0x03	; 3
					_delay_ms(period);
					PORTD = 0x06;
    70a8:	36 e0       	ldi	r19, 0x06	; 6
					_delay_ms(period);
					PORTD = 0x0C;
    70aa:	2c e0       	ldi	r18, 0x0C	; 12
				_delay_ms(1000);

				/* Rotate Stepper Motor Anticlockwise with Full step sequence */
				for (int i = 0; i < 12; i++)
				{
					PORTD = 0x09;
    70ac:	52 bb       	out	0x12, r21	; 18
    70ae:	af ef       	ldi	r26, 0xFF	; 255
    70b0:	b1 ee       	ldi	r27, 0xE1	; 225
    70b2:	c4 e0       	ldi	r28, 0x04	; 4
    70b4:	a1 50       	subi	r26, 0x01	; 1
    70b6:	b0 40       	sbci	r27, 0x00	; 0
    70b8:	c0 40       	sbci	r28, 0x00	; 0
    70ba:	e1 f7       	brne	.-8      	; 0x70b4 <__stack+0x6855>
    70bc:	00 c0       	rjmp	.+0      	; 0x70be <__stack+0x685f>
    70be:	00 00       	nop
					_delay_ms(period);
					PORTD = 0x03;
    70c0:	42 bb       	out	0x12, r20	; 18
    70c2:	ef ef       	ldi	r30, 0xFF	; 255
    70c4:	61 ee       	ldi	r22, 0xE1	; 225
    70c6:	74 e0       	ldi	r23, 0x04	; 4
    70c8:	e1 50       	subi	r30, 0x01	; 1
    70ca:	60 40       	sbci	r22, 0x00	; 0
    70cc:	70 40       	sbci	r23, 0x00	; 0
    70ce:	e1 f7       	brne	.-8      	; 0x70c8 <__stack+0x6869>
    70d0:	00 c0       	rjmp	.+0      	; 0x70d2 <__stack+0x6873>
    70d2:	00 00       	nop
					_delay_ms(period);
					PORTD = 0x06;
    70d4:	32 bb       	out	0x12, r19	; 18
    70d6:	af ef       	ldi	r26, 0xFF	; 255
    70d8:	b1 ee       	ldi	r27, 0xE1	; 225
    70da:	c4 e0       	ldi	r28, 0x04	; 4
    70dc:	a1 50       	subi	r26, 0x01	; 1
    70de:	b0 40       	sbci	r27, 0x00	; 0
    70e0:	c0 40       	sbci	r28, 0x00	; 0
    70e2:	e1 f7       	brne	.-8      	; 0x70dc <__stack+0x687d>
    70e4:	00 c0       	rjmp	.+0      	; 0x70e6 <__stack+0x6887>
    70e6:	00 00       	nop
					_delay_ms(period);
					PORTD = 0x0C;
    70e8:	22 bb       	out	0x12, r18	; 18
    70ea:	ef ef       	ldi	r30, 0xFF	; 255
    70ec:	61 ee       	ldi	r22, 0xE1	; 225
    70ee:	74 e0       	ldi	r23, 0x04	; 4
    70f0:	e1 50       	subi	r30, 0x01	; 1
    70f2:	60 40       	sbci	r22, 0x00	; 0
    70f4:	70 40       	sbci	r23, 0x00	; 0
    70f6:	e1 f7       	brne	.-8      	; 0x70f0 <__stack+0x6891>
    70f8:	00 c0       	rjmp	.+0      	; 0x70fa <__stack+0x689b>
    70fa:	00 00       	nop
    70fc:	01 97       	sbiw	r24, 0x01	; 1
				PORTD = 0x09; /* Last step to initial position */
				_delay_ms(period);
				_delay_ms(1000);

				/* Rotate Stepper Motor Anticlockwise with Full step sequence */
				for (int i = 0; i < 12; i++)
    70fe:	b1 f6       	brne	.-84     	; 0x70ac <__stack+0x684d>
					PORTD = 0x06;
					_delay_ms(period);
					PORTD = 0x0C;
					_delay_ms(period);
				}
				PORTD = 0x09;
    7100:	89 e0       	ldi	r24, 0x09	; 9
    7102:	82 bb       	out	0x12, r24	; 18
    7104:	8f ef       	ldi	r24, 0xFF	; 255
    7106:	91 ee       	ldi	r25, 0xE1	; 225
    7108:	a4 e0       	ldi	r26, 0x04	; 4
    710a:	81 50       	subi	r24, 0x01	; 1
    710c:	90 40       	sbci	r25, 0x00	; 0
    710e:	a0 40       	sbci	r26, 0x00	; 0
    7110:	e1 f7       	brne	.-8      	; 0x710a <__stack+0x68ab>
    7112:	00 c0       	rjmp	.+0      	; 0x7114 <__stack+0x68b5>
    7114:	00 00       	nop
    7116:	bf ef       	ldi	r27, 0xFF	; 255
    7118:	c3 ed       	ldi	r28, 0xD3	; 211
    711a:	e0 e3       	ldi	r30, 0x30	; 48
    711c:	b1 50       	subi	r27, 0x01	; 1
    711e:	c0 40       	sbci	r28, 0x00	; 0
    7120:	e0 40       	sbci	r30, 0x00	; 0
    7122:	e1 f7       	brne	.-8      	; 0x711c <__stack+0x68bd>
    7124:	00 c0       	rjmp	.+0      	; 0x7126 <__stack+0x68c7>
    7126:	00 00       	nop
    7128:	97 c2       	rjmp	.+1326   	; 0x7658 <__stack+0x6df9>
				break;
			}
		}
		break;
		case 9:
		switch (personNum)
    712a:	8c e0       	ldi	r24, 0x0C	; 12
    712c:	90 e0       	ldi	r25, 0x00	; 0
			case 7:
			{
				/* Rotate Stepper Motor clockwise with Half step sequence */
				for (int i = 0; i < 12; i++)
				{
					PORTD = 0x09;
    712e:	f9 e0       	ldi	r31, 0x09	; 9
					_delay_ms(period);
					PORTD = 0x08;
    7130:	e8 e0       	ldi	r30, 0x08	; 8
					_delay_ms(period);
					PORTD = 0x0C;
    7132:	7c e0       	ldi	r23, 0x0C	; 12
					_delay_ms(period);
					PORTD = 0x04;
    7134:	64 e0       	ldi	r22, 0x04	; 4
					_delay_ms(period);
					PORTD = 0x06;
    7136:	56 e0       	ldi	r21, 0x06	; 6
					_delay_ms(period);
					PORTD = 0x02;
    7138:	42 e0       	ldi	r20, 0x02	; 2
					_delay_ms(period);
					PORTD = 0x03;
    713a:	33 e0       	ldi	r19, 0x03	; 3
					_delay_ms(period);
					PORTD = 0x01;
    713c:	21 e0       	ldi	r18, 0x01	; 1
			case 7:
			{
				/* Rotate Stepper Motor clockwise with Half step sequence */
				for (int i = 0; i < 12; i++)
				{
					PORTD = 0x09;
    713e:	f2 bb       	out	0x12, r31	; 18
    7140:	af ef       	ldi	r26, 0xFF	; 255
    7142:	b1 ee       	ldi	r27, 0xE1	; 225
    7144:	c4 e0       	ldi	r28, 0x04	; 4
    7146:	a1 50       	subi	r26, 0x01	; 1
    7148:	b0 40       	sbci	r27, 0x00	; 0
    714a:	c0 40       	sbci	r28, 0x00	; 0
    714c:	e1 f7       	brne	.-8      	; 0x7146 <__stack+0x68e7>
    714e:	00 c0       	rjmp	.+0      	; 0x7150 <__stack+0x68f1>
    7150:	00 00       	nop
					_delay_ms(period);
					PORTD = 0x08;
    7152:	e2 bb       	out	0x12, r30	; 18
    7154:	af ef       	ldi	r26, 0xFF	; 255
    7156:	b1 ee       	ldi	r27, 0xE1	; 225
    7158:	c4 e0       	ldi	r28, 0x04	; 4
    715a:	a1 50       	subi	r26, 0x01	; 1
    715c:	b0 40       	sbci	r27, 0x00	; 0
    715e:	c0 40       	sbci	r28, 0x00	; 0
    7160:	e1 f7       	brne	.-8      	; 0x715a <__stack+0x68fb>
    7162:	00 c0       	rjmp	.+0      	; 0x7164 <__stack+0x6905>
    7164:	00 00       	nop
					_delay_ms(period);
					PORTD = 0x0C;
    7166:	72 bb       	out	0x12, r23	; 18
    7168:	af ef       	ldi	r26, 0xFF	; 255
    716a:	b1 ee       	ldi	r27, 0xE1	; 225
    716c:	c4 e0       	ldi	r28, 0x04	; 4
    716e:	a1 50       	subi	r26, 0x01	; 1
    7170:	b0 40       	sbci	r27, 0x00	; 0
    7172:	c0 40       	sbci	r28, 0x00	; 0
    7174:	e1 f7       	brne	.-8      	; 0x716e <__stack+0x690f>
    7176:	00 c0       	rjmp	.+0      	; 0x7178 <__stack+0x6919>
    7178:	00 00       	nop
					_delay_ms(period);
					PORTD = 0x04;
    717a:	62 bb       	out	0x12, r22	; 18
    717c:	af ef       	ldi	r26, 0xFF	; 255
    717e:	b1 ee       	ldi	r27, 0xE1	; 225
    7180:	c4 e0       	ldi	r28, 0x04	; 4
    7182:	a1 50       	subi	r26, 0x01	; 1
    7184:	b0 40       	sbci	r27, 0x00	; 0
    7186:	c0 40       	sbci	r28, 0x00	; 0
    7188:	e1 f7       	brne	.-8      	; 0x7182 <__stack+0x6923>
    718a:	00 c0       	rjmp	.+0      	; 0x718c <__stack+0x692d>
    718c:	00 00       	nop
					_delay_ms(period);
					PORTD = 0x06;
    718e:	52 bb       	out	0x12, r21	; 18
    7190:	af ef       	ldi	r26, 0xFF	; 255
    7192:	b1 ee       	ldi	r27, 0xE1	; 225
    7194:	c4 e0       	ldi	r28, 0x04	; 4
    7196:	a1 50       	subi	r26, 0x01	; 1
    7198:	b0 40       	sbci	r27, 0x00	; 0
    719a:	c0 40       	sbci	r28, 0x00	; 0
    719c:	e1 f7       	brne	.-8      	; 0x7196 <__stack+0x6937>
    719e:	00 c0       	rjmp	.+0      	; 0x71a0 <__stack+0x6941>
    71a0:	00 00       	nop
					_delay_ms(period);
					PORTD = 0x02;
    71a2:	42 bb       	out	0x12, r20	; 18
    71a4:	af ef       	ldi	r26, 0xFF	; 255
    71a6:	b1 ee       	ldi	r27, 0xE1	; 225
    71a8:	c4 e0       	ldi	r28, 0x04	; 4
    71aa:	a1 50       	subi	r26, 0x01	; 1
    71ac:	b0 40       	sbci	r27, 0x00	; 0
    71ae:	c0 40       	sbci	r28, 0x00	; 0
    71b0:	e1 f7       	brne	.-8      	; 0x71aa <__stack+0x694b>
    71b2:	00 c0       	rjmp	.+0      	; 0x71b4 <__stack+0x6955>
    71b4:	00 00       	nop
					_delay_ms(period);
					PORTD = 0x03;
    71b6:	32 bb       	out	0x12, r19	; 18
    71b8:	af ef       	ldi	r26, 0xFF	; 255
    71ba:	b1 ee       	ldi	r27, 0xE1	; 225
    71bc:	c4 e0       	ldi	r28, 0x04	; 4
    71be:	a1 50       	subi	r26, 0x01	; 1
    71c0:	b0 40       	sbci	r27, 0x00	; 0
    71c2:	c0 40       	sbci	r28, 0x00	; 0
    71c4:	e1 f7       	brne	.-8      	; 0x71be <__stack+0x695f>
    71c6:	00 c0       	rjmp	.+0      	; 0x71c8 <__stack+0x6969>
    71c8:	00 00       	nop
					_delay_ms(period);
					PORTD = 0x01;
    71ca:	22 bb       	out	0x12, r18	; 18
    71cc:	af ef       	ldi	r26, 0xFF	; 255
    71ce:	b1 ee       	ldi	r27, 0xE1	; 225
    71d0:	c4 e0       	ldi	r28, 0x04	; 4
    71d2:	a1 50       	subi	r26, 0x01	; 1
    71d4:	b0 40       	sbci	r27, 0x00	; 0
    71d6:	c0 40       	sbci	r28, 0x00	; 0
    71d8:	e1 f7       	brne	.-8      	; 0x71d2 <__stack+0x6973>
    71da:	00 c0       	rjmp	.+0      	; 0x71dc <__stack+0x697d>
    71dc:	00 00       	nop
    71de:	01 97       	sbiw	r24, 0x01	; 1
				break;
			}
			case 7:
			{
				/* Rotate Stepper Motor clockwise with Half step sequence */
				for (int i = 0; i < 12; i++)
    71e0:	09 f0       	breq	.+2      	; 0x71e4 <__stack+0x6985>
    71e2:	ad cf       	rjmp	.-166    	; 0x713e <__stack+0x68df>
					PORTD = 0x03;
					_delay_ms(period);
					PORTD = 0x01;
					_delay_ms(period);
				}
				PORTD = 0x09; /* Last step to initial position */
    71e4:	89 e0       	ldi	r24, 0x09	; 9
    71e6:	82 bb       	out	0x12, r24	; 18
    71e8:	ef ef       	ldi	r30, 0xFF	; 255
    71ea:	21 ee       	ldi	r18, 0xE1	; 225
    71ec:	64 e0       	ldi	r22, 0x04	; 4
    71ee:	e1 50       	subi	r30, 0x01	; 1
    71f0:	20 40       	sbci	r18, 0x00	; 0
    71f2:	60 40       	sbci	r22, 0x00	; 0
    71f4:	e1 f7       	brne	.-8      	; 0x71ee <__stack+0x698f>
    71f6:	00 c0       	rjmp	.+0      	; 0x71f8 <__stack+0x6999>
    71f8:	00 00       	nop
    71fa:	7f ef       	ldi	r23, 0xFF	; 255
    71fc:	83 ed       	ldi	r24, 0xD3	; 211
    71fe:	90 e3       	ldi	r25, 0x30	; 48
    7200:	71 50       	subi	r23, 0x01	; 1
    7202:	80 40       	sbci	r24, 0x00	; 0
    7204:	90 40       	sbci	r25, 0x00	; 0
    7206:	e1 f7       	brne	.-8      	; 0x7200 <__stack+0x69a1>
    7208:	00 c0       	rjmp	.+0      	; 0x720a <__stack+0x69ab>
    720a:	00 00       	nop
    720c:	8c e0       	ldi	r24, 0x0C	; 12
    720e:	90 e0       	ldi	r25, 0x00	; 0
				_delay_ms(1000);

				/* Rotate Stepper Motor Anticlockwise with Full step sequence */
				for (int i = 0; i < 12; i++)
				{
					PORTD = 0x09;
    7210:	59 e0       	ldi	r21, 0x09	; 9
					_delay_ms(period);
					PORTD = 0x03;
    7212:	43 e0       	ldi	r20, 0x03	; 3
					_delay_ms(period);
					PORTD = 0x06;
    7214:	36 e0       	ldi	r19, 0x06	; 6
					_delay_ms(period);
					PORTD = 0x0C;
    7216:	2c e0       	ldi	r18, 0x0C	; 12
				_delay_ms(1000);

				/* Rotate Stepper Motor Anticlockwise with Full step sequence */
				for (int i = 0; i < 12; i++)
				{
					PORTD = 0x09;
    7218:	52 bb       	out	0x12, r21	; 18
    721a:	af ef       	ldi	r26, 0xFF	; 255
    721c:	b1 ee       	ldi	r27, 0xE1	; 225
    721e:	c4 e0       	ldi	r28, 0x04	; 4
    7220:	a1 50       	subi	r26, 0x01	; 1
    7222:	b0 40       	sbci	r27, 0x00	; 0
    7224:	c0 40       	sbci	r28, 0x00	; 0
    7226:	e1 f7       	brne	.-8      	; 0x7220 <__stack+0x69c1>
    7228:	00 c0       	rjmp	.+0      	; 0x722a <__stack+0x69cb>
    722a:	00 00       	nop
					_delay_ms(period);
					PORTD = 0x03;
    722c:	42 bb       	out	0x12, r20	; 18
    722e:	ef ef       	ldi	r30, 0xFF	; 255
    7230:	61 ee       	ldi	r22, 0xE1	; 225
    7232:	74 e0       	ldi	r23, 0x04	; 4
    7234:	e1 50       	subi	r30, 0x01	; 1
    7236:	60 40       	sbci	r22, 0x00	; 0
    7238:	70 40       	sbci	r23, 0x00	; 0
    723a:	e1 f7       	brne	.-8      	; 0x7234 <__stack+0x69d5>
    723c:	00 c0       	rjmp	.+0      	; 0x723e <__stack+0x69df>
    723e:	00 00       	nop
					_delay_ms(period);
					PORTD = 0x06;
    7240:	32 bb       	out	0x12, r19	; 18
    7242:	af ef       	ldi	r26, 0xFF	; 255
    7244:	b1 ee       	ldi	r27, 0xE1	; 225
    7246:	c4 e0       	ldi	r28, 0x04	; 4
    7248:	a1 50       	subi	r26, 0x01	; 1
    724a:	b0 40       	sbci	r27, 0x00	; 0
    724c:	c0 40       	sbci	r28, 0x00	; 0
    724e:	e1 f7       	brne	.-8      	; 0x7248 <__stack+0x69e9>
    7250:	00 c0       	rjmp	.+0      	; 0x7252 <__stack+0x69f3>
    7252:	00 00       	nop
					_delay_ms(period);
					PORTD = 0x0C;
    7254:	22 bb       	out	0x12, r18	; 18
    7256:	ef ef       	ldi	r30, 0xFF	; 255
    7258:	61 ee       	ldi	r22, 0xE1	; 225
    725a:	74 e0       	ldi	r23, 0x04	; 4
    725c:	e1 50       	subi	r30, 0x01	; 1
    725e:	60 40       	sbci	r22, 0x00	; 0
    7260:	70 40       	sbci	r23, 0x00	; 0
    7262:	e1 f7       	brne	.-8      	; 0x725c <__stack+0x69fd>
    7264:	00 c0       	rjmp	.+0      	; 0x7266 <__stack+0x6a07>
    7266:	00 00       	nop
    7268:	01 97       	sbiw	r24, 0x01	; 1
				PORTD = 0x09; /* Last step to initial position */
				_delay_ms(period);
				_delay_ms(1000);

				/* Rotate Stepper Motor Anticlockwise with Full step sequence */
				for (int i = 0; i < 12; i++)
    726a:	b1 f6       	brne	.-84     	; 0x7218 <__stack+0x69b9>
					PORTD = 0x06;
					_delay_ms(period);
					PORTD = 0x0C;
					_delay_ms(period);
				}
				PORTD = 0x09;
    726c:	89 e0       	ldi	r24, 0x09	; 9
    726e:	82 bb       	out	0x12, r24	; 18
    7270:	8f ef       	ldi	r24, 0xFF	; 255
    7272:	91 ee       	ldi	r25, 0xE1	; 225
    7274:	a4 e0       	ldi	r26, 0x04	; 4
    7276:	81 50       	subi	r24, 0x01	; 1
    7278:	90 40       	sbci	r25, 0x00	; 0
    727a:	a0 40       	sbci	r26, 0x00	; 0
    727c:	e1 f7       	brne	.-8      	; 0x7276 <__stack+0x6a17>
    727e:	00 c0       	rjmp	.+0      	; 0x7280 <__stack+0x6a21>
    7280:	00 00       	nop
    7282:	bf ef       	ldi	r27, 0xFF	; 255
    7284:	c3 ed       	ldi	r28, 0xD3	; 211
    7286:	e0 e3       	ldi	r30, 0x30	; 48
    7288:	b1 50       	subi	r27, 0x01	; 1
    728a:	c0 40       	sbci	r28, 0x00	; 0
    728c:	e0 40       	sbci	r30, 0x00	; 0
    728e:	e1 f7       	brne	.-8      	; 0x7288 <__stack+0x6a29>
    7290:	00 c0       	rjmp	.+0      	; 0x7292 <__stack+0x6a33>
    7292:	00 00       	nop
    7294:	e1 c1       	rjmp	.+962    	; 0x7658 <__stack+0x6df9>
				break;
			}
		}
		break;
		case 9:
		switch (personNum)
    7296:	8c e0       	ldi	r24, 0x0C	; 12
    7298:	90 e0       	ldi	r25, 0x00	; 0
			case 8:
			{
				/* Rotate Stepper Motor clockwise with Half step sequence */
				for (int i = 0; i < 12; i++)
				{
					PORTD = 0x09;
    729a:	f9 e0       	ldi	r31, 0x09	; 9
					_delay_ms(period);
					PORTD = 0x08;
    729c:	e8 e0       	ldi	r30, 0x08	; 8
					_delay_ms(period);
					PORTD = 0x0C;
    729e:	7c e0       	ldi	r23, 0x0C	; 12
					_delay_ms(period);
					PORTD = 0x04;
    72a0:	64 e0       	ldi	r22, 0x04	; 4
					_delay_ms(period);
					PORTD = 0x06;
    72a2:	56 e0       	ldi	r21, 0x06	; 6
					_delay_ms(period);
					PORTD = 0x02;
    72a4:	42 e0       	ldi	r20, 0x02	; 2
					_delay_ms(period);
					PORTD = 0x03;
    72a6:	33 e0       	ldi	r19, 0x03	; 3
					_delay_ms(period);
					PORTD = 0x01;
    72a8:	21 e0       	ldi	r18, 0x01	; 1
			case 8:
			{
				/* Rotate Stepper Motor clockwise with Half step sequence */
				for (int i = 0; i < 12; i++)
				{
					PORTD = 0x09;
    72aa:	f2 bb       	out	0x12, r31	; 18
    72ac:	af ef       	ldi	r26, 0xFF	; 255
    72ae:	b1 ee       	ldi	r27, 0xE1	; 225
    72b0:	c4 e0       	ldi	r28, 0x04	; 4
    72b2:	a1 50       	subi	r26, 0x01	; 1
    72b4:	b0 40       	sbci	r27, 0x00	; 0
    72b6:	c0 40       	sbci	r28, 0x00	; 0
    72b8:	e1 f7       	brne	.-8      	; 0x72b2 <__stack+0x6a53>
    72ba:	00 c0       	rjmp	.+0      	; 0x72bc <__stack+0x6a5d>
    72bc:	00 00       	nop
					_delay_ms(period);
					PORTD = 0x08;
    72be:	e2 bb       	out	0x12, r30	; 18
    72c0:	af ef       	ldi	r26, 0xFF	; 255
    72c2:	b1 ee       	ldi	r27, 0xE1	; 225
    72c4:	c4 e0       	ldi	r28, 0x04	; 4
    72c6:	a1 50       	subi	r26, 0x01	; 1
    72c8:	b0 40       	sbci	r27, 0x00	; 0
    72ca:	c0 40       	sbci	r28, 0x00	; 0
    72cc:	e1 f7       	brne	.-8      	; 0x72c6 <__stack+0x6a67>
    72ce:	00 c0       	rjmp	.+0      	; 0x72d0 <__stack+0x6a71>
    72d0:	00 00       	nop
					_delay_ms(period);
					PORTD = 0x0C;
    72d2:	72 bb       	out	0x12, r23	; 18
    72d4:	af ef       	ldi	r26, 0xFF	; 255
    72d6:	b1 ee       	ldi	r27, 0xE1	; 225
    72d8:	c4 e0       	ldi	r28, 0x04	; 4
    72da:	a1 50       	subi	r26, 0x01	; 1
    72dc:	b0 40       	sbci	r27, 0x00	; 0
    72de:	c0 40       	sbci	r28, 0x00	; 0
    72e0:	e1 f7       	brne	.-8      	; 0x72da <__stack+0x6a7b>
    72e2:	00 c0       	rjmp	.+0      	; 0x72e4 <__stack+0x6a85>
    72e4:	00 00       	nop
					_delay_ms(period);
					PORTD = 0x04;
    72e6:	62 bb       	out	0x12, r22	; 18
    72e8:	af ef       	ldi	r26, 0xFF	; 255
    72ea:	b1 ee       	ldi	r27, 0xE1	; 225
    72ec:	c4 e0       	ldi	r28, 0x04	; 4
    72ee:	a1 50       	subi	r26, 0x01	; 1
    72f0:	b0 40       	sbci	r27, 0x00	; 0
    72f2:	c0 40       	sbci	r28, 0x00	; 0
    72f4:	e1 f7       	brne	.-8      	; 0x72ee <__stack+0x6a8f>
    72f6:	00 c0       	rjmp	.+0      	; 0x72f8 <__stack+0x6a99>
    72f8:	00 00       	nop
					_delay_ms(period);
					PORTD = 0x06;
    72fa:	52 bb       	out	0x12, r21	; 18
    72fc:	af ef       	ldi	r26, 0xFF	; 255
    72fe:	b1 ee       	ldi	r27, 0xE1	; 225
    7300:	c4 e0       	ldi	r28, 0x04	; 4
    7302:	a1 50       	subi	r26, 0x01	; 1
    7304:	b0 40       	sbci	r27, 0x00	; 0
    7306:	c0 40       	sbci	r28, 0x00	; 0
    7308:	e1 f7       	brne	.-8      	; 0x7302 <__stack+0x6aa3>
    730a:	00 c0       	rjmp	.+0      	; 0x730c <__stack+0x6aad>
    730c:	00 00       	nop
					_delay_ms(period);
					PORTD = 0x02;
    730e:	42 bb       	out	0x12, r20	; 18
    7310:	af ef       	ldi	r26, 0xFF	; 255
    7312:	b1 ee       	ldi	r27, 0xE1	; 225
    7314:	c4 e0       	ldi	r28, 0x04	; 4
    7316:	a1 50       	subi	r26, 0x01	; 1
    7318:	b0 40       	sbci	r27, 0x00	; 0
    731a:	c0 40       	sbci	r28, 0x00	; 0
    731c:	e1 f7       	brne	.-8      	; 0x7316 <__stack+0x6ab7>
    731e:	00 c0       	rjmp	.+0      	; 0x7320 <__stack+0x6ac1>
    7320:	00 00       	nop
					_delay_ms(period);
					PORTD = 0x03;
    7322:	32 bb       	out	0x12, r19	; 18
    7324:	af ef       	ldi	r26, 0xFF	; 255
    7326:	b1 ee       	ldi	r27, 0xE1	; 225
    7328:	c4 e0       	ldi	r28, 0x04	; 4
    732a:	a1 50       	subi	r26, 0x01	; 1
    732c:	b0 40       	sbci	r27, 0x00	; 0
    732e:	c0 40       	sbci	r28, 0x00	; 0
    7330:	e1 f7       	brne	.-8      	; 0x732a <__stack+0x6acb>
    7332:	00 c0       	rjmp	.+0      	; 0x7334 <__stack+0x6ad5>
    7334:	00 00       	nop
					_delay_ms(period);
					PORTD = 0x01;
    7336:	22 bb       	out	0x12, r18	; 18
    7338:	af ef       	ldi	r26, 0xFF	; 255
    733a:	b1 ee       	ldi	r27, 0xE1	; 225
    733c:	c4 e0       	ldi	r28, 0x04	; 4
    733e:	a1 50       	subi	r26, 0x01	; 1
    7340:	b0 40       	sbci	r27, 0x00	; 0
    7342:	c0 40       	sbci	r28, 0x00	; 0
    7344:	e1 f7       	brne	.-8      	; 0x733e <__stack+0x6adf>
    7346:	00 c0       	rjmp	.+0      	; 0x7348 <__stack+0x6ae9>
    7348:	00 00       	nop
    734a:	01 97       	sbiw	r24, 0x01	; 1
				break;
			}
			case 8:
			{
				/* Rotate Stepper Motor clockwise with Half step sequence */
				for (int i = 0; i < 12; i++)
    734c:	09 f0       	breq	.+2      	; 0x7350 <__stack+0x6af1>
    734e:	ad cf       	rjmp	.-166    	; 0x72aa <__stack+0x6a4b>
					PORTD = 0x03;
					_delay_ms(period);
					PORTD = 0x01;
					_delay_ms(period);
				}
				PORTD = 0x09; /* Last step to initial position */
    7350:	89 e0       	ldi	r24, 0x09	; 9
    7352:	82 bb       	out	0x12, r24	; 18
    7354:	ef ef       	ldi	r30, 0xFF	; 255
    7356:	21 ee       	ldi	r18, 0xE1	; 225
    7358:	64 e0       	ldi	r22, 0x04	; 4
    735a:	e1 50       	subi	r30, 0x01	; 1
    735c:	20 40       	sbci	r18, 0x00	; 0
    735e:	60 40       	sbci	r22, 0x00	; 0
    7360:	e1 f7       	brne	.-8      	; 0x735a <__stack+0x6afb>
    7362:	00 c0       	rjmp	.+0      	; 0x7364 <__stack+0x6b05>
    7364:	00 00       	nop
    7366:	7f ef       	ldi	r23, 0xFF	; 255
    7368:	83 ed       	ldi	r24, 0xD3	; 211
    736a:	90 e3       	ldi	r25, 0x30	; 48
    736c:	71 50       	subi	r23, 0x01	; 1
    736e:	80 40       	sbci	r24, 0x00	; 0
    7370:	90 40       	sbci	r25, 0x00	; 0
    7372:	e1 f7       	brne	.-8      	; 0x736c <__stack+0x6b0d>
    7374:	00 c0       	rjmp	.+0      	; 0x7376 <__stack+0x6b17>
    7376:	00 00       	nop
    7378:	8c e0       	ldi	r24, 0x0C	; 12
    737a:	90 e0       	ldi	r25, 0x00	; 0
				_delay_ms(1000);

				/* Rotate Stepper Motor Anticlockwise with Full step sequence */
				for (int i = 0; i < 12; i++)
				{
					PORTD = 0x09;
    737c:	59 e0       	ldi	r21, 0x09	; 9
					_delay_ms(period);
					PORTD = 0x03;
    737e:	43 e0       	ldi	r20, 0x03	; 3
					_delay_ms(period);
					PORTD = 0x06;
    7380:	36 e0       	ldi	r19, 0x06	; 6
					_delay_ms(period);
					PORTD = 0x0C;
    7382:	2c e0       	ldi	r18, 0x0C	; 12
				_delay_ms(1000);

				/* Rotate Stepper Motor Anticlockwise with Full step sequence */
				for (int i = 0; i < 12; i++)
				{
					PORTD = 0x09;
    7384:	52 bb       	out	0x12, r21	; 18
    7386:	af ef       	ldi	r26, 0xFF	; 255
    7388:	b1 ee       	ldi	r27, 0xE1	; 225
    738a:	c4 e0       	ldi	r28, 0x04	; 4
    738c:	a1 50       	subi	r26, 0x01	; 1
    738e:	b0 40       	sbci	r27, 0x00	; 0
    7390:	c0 40       	sbci	r28, 0x00	; 0
    7392:	e1 f7       	brne	.-8      	; 0x738c <__stack+0x6b2d>
    7394:	00 c0       	rjmp	.+0      	; 0x7396 <__stack+0x6b37>
    7396:	00 00       	nop
					_delay_ms(period);
					PORTD = 0x03;
    7398:	42 bb       	out	0x12, r20	; 18
    739a:	ef ef       	ldi	r30, 0xFF	; 255
    739c:	61 ee       	ldi	r22, 0xE1	; 225
    739e:	74 e0       	ldi	r23, 0x04	; 4
    73a0:	e1 50       	subi	r30, 0x01	; 1
    73a2:	60 40       	sbci	r22, 0x00	; 0
    73a4:	70 40       	sbci	r23, 0x00	; 0
    73a6:	e1 f7       	brne	.-8      	; 0x73a0 <__stack+0x6b41>
    73a8:	00 c0       	rjmp	.+0      	; 0x73aa <__stack+0x6b4b>
    73aa:	00 00       	nop
					_delay_ms(period);
					PORTD = 0x06;
    73ac:	32 bb       	out	0x12, r19	; 18
    73ae:	af ef       	ldi	r26, 0xFF	; 255
    73b0:	b1 ee       	ldi	r27, 0xE1	; 225
    73b2:	c4 e0       	ldi	r28, 0x04	; 4
    73b4:	a1 50       	subi	r26, 0x01	; 1
    73b6:	b0 40       	sbci	r27, 0x00	; 0
    73b8:	c0 40       	sbci	r28, 0x00	; 0
    73ba:	e1 f7       	brne	.-8      	; 0x73b4 <__stack+0x6b55>
    73bc:	00 c0       	rjmp	.+0      	; 0x73be <__stack+0x6b5f>
    73be:	00 00       	nop
					_delay_ms(period);
					PORTD = 0x0C;
    73c0:	22 bb       	out	0x12, r18	; 18
    73c2:	ef ef       	ldi	r30, 0xFF	; 255
    73c4:	61 ee       	ldi	r22, 0xE1	; 225
    73c6:	74 e0       	ldi	r23, 0x04	; 4
    73c8:	e1 50       	subi	r30, 0x01	; 1
    73ca:	60 40       	sbci	r22, 0x00	; 0
    73cc:	70 40       	sbci	r23, 0x00	; 0
    73ce:	e1 f7       	brne	.-8      	; 0x73c8 <__stack+0x6b69>
    73d0:	00 c0       	rjmp	.+0      	; 0x73d2 <__stack+0x6b73>
    73d2:	00 00       	nop
    73d4:	01 97       	sbiw	r24, 0x01	; 1
				PORTD = 0x09; /* Last step to initial position */
				_delay_ms(period);
				_delay_ms(1000);

				/* Rotate Stepper Motor Anticlockwise with Full step sequence */
				for (int i = 0; i < 12; i++)
    73d6:	b1 f6       	brne	.-84     	; 0x7384 <__stack+0x6b25>
					PORTD = 0x06;
					_delay_ms(period);
					PORTD = 0x0C;
					_delay_ms(period);
				}
				PORTD = 0x09;
    73d8:	89 e0       	ldi	r24, 0x09	; 9
    73da:	82 bb       	out	0x12, r24	; 18
    73dc:	8f ef       	ldi	r24, 0xFF	; 255
    73de:	91 ee       	ldi	r25, 0xE1	; 225
    73e0:	a4 e0       	ldi	r26, 0x04	; 4
    73e2:	81 50       	subi	r24, 0x01	; 1
    73e4:	90 40       	sbci	r25, 0x00	; 0
    73e6:	a0 40       	sbci	r26, 0x00	; 0
    73e8:	e1 f7       	brne	.-8      	; 0x73e2 <__stack+0x6b83>
    73ea:	00 c0       	rjmp	.+0      	; 0x73ec <__stack+0x6b8d>
    73ec:	00 00       	nop
    73ee:	bf ef       	ldi	r27, 0xFF	; 255
    73f0:	c3 ed       	ldi	r28, 0xD3	; 211
    73f2:	e0 e3       	ldi	r30, 0x30	; 48
    73f4:	b1 50       	subi	r27, 0x01	; 1
    73f6:	c0 40       	sbci	r28, 0x00	; 0
    73f8:	e0 40       	sbci	r30, 0x00	; 0
    73fa:	e1 f7       	brne	.-8      	; 0x73f4 <__stack+0x6b95>
    73fc:	00 c0       	rjmp	.+0      	; 0x73fe <__stack+0x6b9f>
    73fe:	00 00       	nop
    7400:	2b c1       	rjmp	.+598    	; 0x7658 <__stack+0x6df9>
				break;
			}
		}
		break;
		case 9:
		switch (personNum)
    7402:	8c e0       	ldi	r24, 0x0C	; 12
    7404:	90 e0       	ldi	r25, 0x00	; 0
			case 9:
			{
				/* Rotate Stepper Motor clockwise with Half step sequence */
				for (int i = 0; i < 12; i++)
				{
					PORTD = 0x09;
    7406:	f9 e0       	ldi	r31, 0x09	; 9
					_delay_ms(period);
					PORTD = 0x08;
    7408:	e8 e0       	ldi	r30, 0x08	; 8
					_delay_ms(period);
					PORTD = 0x0C;
    740a:	7c e0       	ldi	r23, 0x0C	; 12
					_delay_ms(period);
					PORTD = 0x04;
    740c:	64 e0       	ldi	r22, 0x04	; 4
					_delay_ms(period);
					PORTD = 0x06;
    740e:	56 e0       	ldi	r21, 0x06	; 6
					_delay_ms(period);
					PORTD = 0x02;
    7410:	42 e0       	ldi	r20, 0x02	; 2
					_delay_ms(period);
					PORTD = 0x03;
    7412:	33 e0       	ldi	r19, 0x03	; 3
					_delay_ms(period);
					PORTD = 0x01;
    7414:	21 e0       	ldi	r18, 0x01	; 1
			case 9:
			{
				/* Rotate Stepper Motor clockwise with Half step sequence */
				for (int i = 0; i < 12; i++)
				{
					PORTD = 0x09;
    7416:	f2 bb       	out	0x12, r31	; 18
    7418:	af ef       	ldi	r26, 0xFF	; 255
    741a:	b1 ee       	ldi	r27, 0xE1	; 225
    741c:	c4 e0       	ldi	r28, 0x04	; 4
    741e:	a1 50       	subi	r26, 0x01	; 1
    7420:	b0 40       	sbci	r27, 0x00	; 0
    7422:	c0 40       	sbci	r28, 0x00	; 0
    7424:	e1 f7       	brne	.-8      	; 0x741e <__stack+0x6bbf>
    7426:	00 c0       	rjmp	.+0      	; 0x7428 <__stack+0x6bc9>
    7428:	00 00       	nop
					_delay_ms(period);
					PORTD = 0x08;
    742a:	e2 bb       	out	0x12, r30	; 18
    742c:	af ef       	ldi	r26, 0xFF	; 255
    742e:	b1 ee       	ldi	r27, 0xE1	; 225
    7430:	c4 e0       	ldi	r28, 0x04	; 4
    7432:	a1 50       	subi	r26, 0x01	; 1
    7434:	b0 40       	sbci	r27, 0x00	; 0
    7436:	c0 40       	sbci	r28, 0x00	; 0
    7438:	e1 f7       	brne	.-8      	; 0x7432 <__stack+0x6bd3>
    743a:	00 c0       	rjmp	.+0      	; 0x743c <__stack+0x6bdd>
    743c:	00 00       	nop
					_delay_ms(period);
					PORTD = 0x0C;
    743e:	72 bb       	out	0x12, r23	; 18
    7440:	af ef       	ldi	r26, 0xFF	; 255
    7442:	b1 ee       	ldi	r27, 0xE1	; 225
    7444:	c4 e0       	ldi	r28, 0x04	; 4
    7446:	a1 50       	subi	r26, 0x01	; 1
    7448:	b0 40       	sbci	r27, 0x00	; 0
    744a:	c0 40       	sbci	r28, 0x00	; 0
    744c:	e1 f7       	brne	.-8      	; 0x7446 <__stack+0x6be7>
    744e:	00 c0       	rjmp	.+0      	; 0x7450 <__stack+0x6bf1>
    7450:	00 00       	nop
					_delay_ms(period);
					PORTD = 0x04;
    7452:	62 bb       	out	0x12, r22	; 18
    7454:	af ef       	ldi	r26, 0xFF	; 255
    7456:	b1 ee       	ldi	r27, 0xE1	; 225
    7458:	c4 e0       	ldi	r28, 0x04	; 4
    745a:	a1 50       	subi	r26, 0x01	; 1
    745c:	b0 40       	sbci	r27, 0x00	; 0
    745e:	c0 40       	sbci	r28, 0x00	; 0
    7460:	e1 f7       	brne	.-8      	; 0x745a <__stack+0x6bfb>
    7462:	00 c0       	rjmp	.+0      	; 0x7464 <__stack+0x6c05>
    7464:	00 00       	nop
					_delay_ms(period);
					PORTD = 0x06;
    7466:	52 bb       	out	0x12, r21	; 18
    7468:	af ef       	ldi	r26, 0xFF	; 255
    746a:	b1 ee       	ldi	r27, 0xE1	; 225
    746c:	c4 e0       	ldi	r28, 0x04	; 4
    746e:	a1 50       	subi	r26, 0x01	; 1
    7470:	b0 40       	sbci	r27, 0x00	; 0
    7472:	c0 40       	sbci	r28, 0x00	; 0
    7474:	e1 f7       	brne	.-8      	; 0x746e <__stack+0x6c0f>
    7476:	00 c0       	rjmp	.+0      	; 0x7478 <__stack+0x6c19>
    7478:	00 00       	nop
					_delay_ms(period);
					PORTD = 0x02;
    747a:	42 bb       	out	0x12, r20	; 18
    747c:	af ef       	ldi	r26, 0xFF	; 255
    747e:	b1 ee       	ldi	r27, 0xE1	; 225
    7480:	c4 e0       	ldi	r28, 0x04	; 4
    7482:	a1 50       	subi	r26, 0x01	; 1
    7484:	b0 40       	sbci	r27, 0x00	; 0
    7486:	c0 40       	sbci	r28, 0x00	; 0
    7488:	e1 f7       	brne	.-8      	; 0x7482 <__stack+0x6c23>
    748a:	00 c0       	rjmp	.+0      	; 0x748c <__stack+0x6c2d>
    748c:	00 00       	nop
					_delay_ms(period);
					PORTD = 0x03;
    748e:	32 bb       	out	0x12, r19	; 18
    7490:	af ef       	ldi	r26, 0xFF	; 255
    7492:	b1 ee       	ldi	r27, 0xE1	; 225
    7494:	c4 e0       	ldi	r28, 0x04	; 4
    7496:	a1 50       	subi	r26, 0x01	; 1
    7498:	b0 40       	sbci	r27, 0x00	; 0
    749a:	c0 40       	sbci	r28, 0x00	; 0
    749c:	e1 f7       	brne	.-8      	; 0x7496 <__stack+0x6c37>
    749e:	00 c0       	rjmp	.+0      	; 0x74a0 <__stack+0x6c41>
    74a0:	00 00       	nop
					_delay_ms(period);
					PORTD = 0x01;
    74a2:	22 bb       	out	0x12, r18	; 18
    74a4:	af ef       	ldi	r26, 0xFF	; 255
    74a6:	b1 ee       	ldi	r27, 0xE1	; 225
    74a8:	c4 e0       	ldi	r28, 0x04	; 4
    74aa:	a1 50       	subi	r26, 0x01	; 1
    74ac:	b0 40       	sbci	r27, 0x00	; 0
    74ae:	c0 40       	sbci	r28, 0x00	; 0
    74b0:	e1 f7       	brne	.-8      	; 0x74aa <__stack+0x6c4b>
    74b2:	00 c0       	rjmp	.+0      	; 0x74b4 <__stack+0x6c55>
    74b4:	00 00       	nop
    74b6:	01 97       	sbiw	r24, 0x01	; 1
				break;
			}
			case 9:
			{
				/* Rotate Stepper Motor clockwise with Half step sequence */
				for (int i = 0; i < 12; i++)
    74b8:	09 f0       	breq	.+2      	; 0x74bc <__stack+0x6c5d>
    74ba:	ad cf       	rjmp	.-166    	; 0x7416 <__stack+0x6bb7>
					PORTD = 0x03;
					_delay_ms(period);
					PORTD = 0x01;
					_delay_ms(period);
				}
				PORTD = 0x09; /* Last step to initial position */
    74bc:	89 e0       	ldi	r24, 0x09	; 9
    74be:	82 bb       	out	0x12, r24	; 18
    74c0:	ef ef       	ldi	r30, 0xFF	; 255
    74c2:	21 ee       	ldi	r18, 0xE1	; 225
    74c4:	64 e0       	ldi	r22, 0x04	; 4
    74c6:	e1 50       	subi	r30, 0x01	; 1
    74c8:	20 40       	sbci	r18, 0x00	; 0
    74ca:	60 40       	sbci	r22, 0x00	; 0
    74cc:	e1 f7       	brne	.-8      	; 0x74c6 <__stack+0x6c67>
    74ce:	00 c0       	rjmp	.+0      	; 0x74d0 <__stack+0x6c71>
    74d0:	00 00       	nop
    74d2:	7f ef       	ldi	r23, 0xFF	; 255
    74d4:	83 ed       	ldi	r24, 0xD3	; 211
    74d6:	90 e3       	ldi	r25, 0x30	; 48
    74d8:	71 50       	subi	r23, 0x01	; 1
    74da:	80 40       	sbci	r24, 0x00	; 0
    74dc:	90 40       	sbci	r25, 0x00	; 0
    74de:	e1 f7       	brne	.-8      	; 0x74d8 <__stack+0x6c79>
    74e0:	00 c0       	rjmp	.+0      	; 0x74e2 <__stack+0x6c83>
    74e2:	00 00       	nop
    74e4:	8c e0       	ldi	r24, 0x0C	; 12
    74e6:	90 e0       	ldi	r25, 0x00	; 0
				_delay_ms(1000);

				/* Rotate Stepper Motor Anticlockwise with Full step sequence */
				for (int i = 0; i < 12; i++)
				{
					PORTD = 0x09;
    74e8:	59 e0       	ldi	r21, 0x09	; 9
					_delay_ms(period);
					PORTD = 0x03;
    74ea:	43 e0       	ldi	r20, 0x03	; 3
					_delay_ms(period);
					PORTD = 0x06;
    74ec:	36 e0       	ldi	r19, 0x06	; 6
					_delay_ms(period);
					PORTD = 0x0C;
    74ee:	2c e0       	ldi	r18, 0x0C	; 12
				_delay_ms(1000);

				/* Rotate Stepper Motor Anticlockwise with Full step sequence */
				for (int i = 0; i < 12; i++)
				{
					PORTD = 0x09;
    74f0:	52 bb       	out	0x12, r21	; 18
    74f2:	af ef       	ldi	r26, 0xFF	; 255
    74f4:	b1 ee       	ldi	r27, 0xE1	; 225
    74f6:	c4 e0       	ldi	r28, 0x04	; 4
    74f8:	a1 50       	subi	r26, 0x01	; 1
    74fa:	b0 40       	sbci	r27, 0x00	; 0
    74fc:	c0 40       	sbci	r28, 0x00	; 0
    74fe:	e1 f7       	brne	.-8      	; 0x74f8 <__stack+0x6c99>
    7500:	00 c0       	rjmp	.+0      	; 0x7502 <__stack+0x6ca3>
    7502:	00 00       	nop
					_delay_ms(period);
					PORTD = 0x03;
    7504:	42 bb       	out	0x12, r20	; 18
    7506:	ef ef       	ldi	r30, 0xFF	; 255
    7508:	61 ee       	ldi	r22, 0xE1	; 225
    750a:	74 e0       	ldi	r23, 0x04	; 4
    750c:	e1 50       	subi	r30, 0x01	; 1
    750e:	60 40       	sbci	r22, 0x00	; 0
    7510:	70 40       	sbci	r23, 0x00	; 0
    7512:	e1 f7       	brne	.-8      	; 0x750c <__stack+0x6cad>
    7514:	00 c0       	rjmp	.+0      	; 0x7516 <__stack+0x6cb7>
    7516:	00 00       	nop
					_delay_ms(period);
					PORTD = 0x06;
    7518:	32 bb       	out	0x12, r19	; 18
    751a:	af ef       	ldi	r26, 0xFF	; 255
    751c:	b1 ee       	ldi	r27, 0xE1	; 225
    751e:	c4 e0       	ldi	r28, 0x04	; 4
    7520:	a1 50       	subi	r26, 0x01	; 1
    7522:	b0 40       	sbci	r27, 0x00	; 0
    7524:	c0 40       	sbci	r28, 0x00	; 0
    7526:	e1 f7       	brne	.-8      	; 0x7520 <__stack+0x6cc1>
    7528:	00 c0       	rjmp	.+0      	; 0x752a <__stack+0x6ccb>
    752a:	00 00       	nop
					_delay_ms(period);
					PORTD = 0x0C;
    752c:	22 bb       	out	0x12, r18	; 18
    752e:	ef ef       	ldi	r30, 0xFF	; 255
    7530:	61 ee       	ldi	r22, 0xE1	; 225
    7532:	74 e0       	ldi	r23, 0x04	; 4
    7534:	e1 50       	subi	r30, 0x01	; 1
    7536:	60 40       	sbci	r22, 0x00	; 0
    7538:	70 40       	sbci	r23, 0x00	; 0
    753a:	e1 f7       	brne	.-8      	; 0x7534 <__stack+0x6cd5>
    753c:	00 c0       	rjmp	.+0      	; 0x753e <__stack+0x6cdf>
    753e:	00 00       	nop
    7540:	01 97       	sbiw	r24, 0x01	; 1
				PORTD = 0x09; /* Last step to initial position */
				_delay_ms(period);
				_delay_ms(1000);

				/* Rotate Stepper Motor Anticlockwise with Full step sequence */
				for (int i = 0; i < 12; i++)
    7542:	b1 f6       	brne	.-84     	; 0x74f0 <__stack+0x6c91>
					PORTD = 0x06;
					_delay_ms(period);
					PORTD = 0x0C;
					_delay_ms(period);
				}
				PORTD = 0x09;
    7544:	89 e0       	ldi	r24, 0x09	; 9
    7546:	82 bb       	out	0x12, r24	; 18
    7548:	8f ef       	ldi	r24, 0xFF	; 255
    754a:	91 ee       	ldi	r25, 0xE1	; 225
    754c:	a4 e0       	ldi	r26, 0x04	; 4
    754e:	81 50       	subi	r24, 0x01	; 1
    7550:	90 40       	sbci	r25, 0x00	; 0
    7552:	a0 40       	sbci	r26, 0x00	; 0
    7554:	e1 f7       	brne	.-8      	; 0x754e <__stack+0x6cef>
    7556:	00 c0       	rjmp	.+0      	; 0x7558 <__stack+0x6cf9>
    7558:	00 00       	nop
    755a:	bf ef       	ldi	r27, 0xFF	; 255
    755c:	c3 ed       	ldi	r28, 0xD3	; 211
    755e:	e0 e3       	ldi	r30, 0x30	; 48
    7560:	b1 50       	subi	r27, 0x01	; 1
    7562:	c0 40       	sbci	r28, 0x00	; 0
    7564:	e0 40       	sbci	r30, 0x00	; 0
    7566:	e1 f7       	brne	.-8      	; 0x7560 <__stack+0x6d01>
    7568:	00 c0       	rjmp	.+0      	; 0x756a <__stack+0x6d0b>
    756a:	00 00       	nop
    756c:	75 c0       	rjmp	.+234    	; 0x7658 <__stack+0x6df9>
		{
			if (PINA & (1 << 1))
			{
				if (PINA & (1 << 2))
				{
					personNum = 7;
    756e:	e7 e0       	ldi	r30, 0x07	; 7
    7570:	f0 e0       	ldi	r31, 0x00	; 0
    7572:	0c 94 b6 00 	jmp	0x16c	; 0x16c <main+0x5e>
					personNum = 3;
				}
			}
			else if (PINA & (1 << 2))
			{
				personNum = 5;
    7576:	e5 e0       	ldi	r30, 0x05	; 5
    7578:	f0 e0       	ldi	r31, 0x00	; 0
    757a:	0c 94 b6 00 	jmp	0x16c	; 0x16c <main+0x5e>
			}
			else if (PINA & (1 << 3))
			{
				personNum = 9;
    757e:	e9 e0       	ldi	r30, 0x09	; 9
    7580:	f0 e0       	ldi	r31, 0x00	; 0
    7582:	0c 94 b6 00 	jmp	0x16c	; 0x16c <main+0x5e>
		}
		else if (PINA & (1 << 1))
		{
			if (PINA & (1 << 2))
			{
				personNum = 6;
    7586:	e6 e0       	ldi	r30, 0x06	; 6
    7588:	f0 e0       	ldi	r31, 0x00	; 0
    758a:	0c 94 b6 00 	jmp	0x16c	; 0x16c <main+0x5e>
				personNum = 2;
			}
		}
		else if (PINA & (1 << 3))
		{
			personNum = 8;
    758e:	e8 e0       	ldi	r30, 0x08	; 8
    7590:	f0 e0       	ldi	r31, 0x00	; 0
    7592:	0c 94 b6 00 	jmp	0x16c	; 0x16c <main+0x5e>
		}
		else if (PINA & (1 << 2))
		{
			personNum = 4;
    7596:	e4 e0       	ldi	r30, 0x04	; 4
    7598:	f0 e0       	ldi	r31, 0x00	; 0
    759a:	0c 94 b6 00 	jmp	0x16c	; 0x16c <main+0x5e>
		}
	}
	

	int period = 100; /* Set period in between two steps */
    PORTC =0x01;
    759e:	81 e0       	ldi	r24, 0x01	; 1
    75a0:	85 bb       	out	0x15, r24	; 21
				break;
			}
		}
		break;
		case 7:
		switch (personNum)
    75a2:	31 97       	sbiw	r30, 0x01	; 1
    75a4:	e9 30       	cpi	r30, 0x09	; 9
    75a6:	f1 05       	cpc	r31, r1
    75a8:	08 f0       	brcs	.+2      	; 0x75ac <__stack+0x6d4d>
    75aa:	56 c0       	rjmp	.+172    	; 0x7658 <__stack+0x6df9>
    75ac:	e6 5d       	subi	r30, 0xD6	; 214
    75ae:	ff 4f       	sbci	r31, 0xFF	; 255
    75b0:	0c 94 30 3b 	jmp	0x7660	; 0x7660 <__tablejump2__>
		}
	}
	

	int period = 100; /* Set period in between two steps */
    PORTC =0x01;
    75b4:	81 e0       	ldi	r24, 0x01	; 1
    75b6:	85 bb       	out	0x15, r24	; 21
				break;
			}
		}
		break;
		case 6:
		switch (personNum)
    75b8:	31 97       	sbiw	r30, 0x01	; 1
    75ba:	e9 30       	cpi	r30, 0x09	; 9
    75bc:	f1 05       	cpc	r31, r1
    75be:	08 f0       	brcs	.+2      	; 0x75c2 <__stack+0x6d63>
    75c0:	4b c0       	rjmp	.+150    	; 0x7658 <__stack+0x6df9>
    75c2:	ed 5c       	subi	r30, 0xCD	; 205
    75c4:	ff 4f       	sbci	r31, 0xFF	; 255
    75c6:	0c 94 30 3b 	jmp	0x7660	; 0x7660 <__tablejump2__>
		}
	}
	

	int period = 100; /* Set period in between two steps */
    PORTC =0x01;
    75ca:	81 e0       	ldi	r24, 0x01	; 1
    75cc:	85 bb       	out	0x15, r24	; 21
				break;
			}
		}
		break;
		case 5:
		switch (personNum)
    75ce:	31 97       	sbiw	r30, 0x01	; 1
    75d0:	e9 30       	cpi	r30, 0x09	; 9
    75d2:	f1 05       	cpc	r31, r1
    75d4:	08 f0       	brcs	.+2      	; 0x75d8 <__stack+0x6d79>
    75d6:	40 c0       	rjmp	.+128    	; 0x7658 <__stack+0x6df9>
    75d8:	e4 5c       	subi	r30, 0xC4	; 196
    75da:	ff 4f       	sbci	r31, 0xFF	; 255
    75dc:	0c 94 30 3b 	jmp	0x7660	; 0x7660 <__tablejump2__>
		}
	}
	

	int period = 100; /* Set period in between two steps */
    PORTC =0x01;
    75e0:	81 e0       	ldi	r24, 0x01	; 1
    75e2:	85 bb       	out	0x15, r24	; 21
				break;
			}
		}
		break;
		case 4:
		switch (personNum)
    75e4:	31 97       	sbiw	r30, 0x01	; 1
    75e6:	e9 30       	cpi	r30, 0x09	; 9
    75e8:	f1 05       	cpc	r31, r1
    75ea:	b0 f5       	brcc	.+108    	; 0x7658 <__stack+0x6df9>
    75ec:	eb 5b       	subi	r30, 0xBB	; 187
    75ee:	ff 4f       	sbci	r31, 0xFF	; 255
    75f0:	0c 94 30 3b 	jmp	0x7660	; 0x7660 <__tablejump2__>
		}
	}
	

	int period = 100; /* Set period in between two steps */
    PORTC =0x01;
    75f4:	81 e0       	ldi	r24, 0x01	; 1
    75f6:	85 bb       	out	0x15, r24	; 21
				break;
			}
		}
		break;
		case 3:
		switch (personNum)
    75f8:	31 97       	sbiw	r30, 0x01	; 1
    75fa:	e9 30       	cpi	r30, 0x09	; 9
    75fc:	f1 05       	cpc	r31, r1
    75fe:	60 f5       	brcc	.+88     	; 0x7658 <__stack+0x6df9>
    7600:	e2 5b       	subi	r30, 0xB2	; 178
    7602:	ff 4f       	sbci	r31, 0xFF	; 255
    7604:	0c 94 30 3b 	jmp	0x7660	; 0x7660 <__tablejump2__>
		}
	}
	

	int period = 100; /* Set period in between two steps */
    PORTC =0x01;
    7608:	81 e0       	ldi	r24, 0x01	; 1
    760a:	85 bb       	out	0x15, r24	; 21
				break;
			}
		}
		break;
		case 9:
		switch (personNum)
    760c:	31 97       	sbiw	r30, 0x01	; 1
    760e:	e9 30       	cpi	r30, 0x09	; 9
    7610:	f1 05       	cpc	r31, r1
    7612:	10 f5       	brcc	.+68     	; 0x7658 <__stack+0x6df9>
    7614:	e9 5a       	subi	r30, 0xA9	; 169
    7616:	ff 4f       	sbci	r31, 0xFF	; 255
    7618:	0c 94 30 3b 	jmp	0x7660	; 0x7660 <__tablejump2__>
		}
	}
	

	int period = 100; /* Set period in between two steps */
    PORTC =0x01;
    761c:	81 e0       	ldi	r24, 0x01	; 1
    761e:	85 bb       	out	0x15, r24	; 21
				break;
			}
		}
		break;
		case 2:
		switch (personNum)
    7620:	31 97       	sbiw	r30, 0x01	; 1
    7622:	e9 30       	cpi	r30, 0x09	; 9
    7624:	f1 05       	cpc	r31, r1
    7626:	c0 f4       	brcc	.+48     	; 0x7658 <__stack+0x6df9>
    7628:	e0 5a       	subi	r30, 0xA0	; 160
    762a:	ff 4f       	sbci	r31, 0xFF	; 255
    762c:	0c 94 30 3b 	jmp	0x7660	; 0x7660 <__tablejump2__>
		}
	}
	

	int period = 100; /* Set period in between two steps */
    PORTC =0x01;
    7630:	81 e0       	ldi	r24, 0x01	; 1
    7632:	85 bb       	out	0x15, r24	; 21
				break;
			}
		}
		break;
		case 8:
		switch (personNum)
    7634:	31 97       	sbiw	r30, 0x01	; 1
    7636:	e9 30       	cpi	r30, 0x09	; 9
    7638:	f1 05       	cpc	r31, r1
    763a:	70 f4       	brcc	.+28     	; 0x7658 <__stack+0x6df9>
    763c:	e7 59       	subi	r30, 0x97	; 151
    763e:	ff 4f       	sbci	r31, 0xFF	; 255
    7640:	0c 94 30 3b 	jmp	0x7660	; 0x7660 <__tablejump2__>
		}
	}
	

	int period = 100; /* Set period in between two steps */
    PORTC =0x01;
    7644:	81 e0       	ldi	r24, 0x01	; 1
    7646:	85 bb       	out	0x15, r24	; 21
	switch (curryNum)
	{
		case 1:
		switch (personNum)
    7648:	31 97       	sbiw	r30, 0x01	; 1
    764a:	e9 30       	cpi	r30, 0x09	; 9
    764c:	f1 05       	cpc	r31, r1
    764e:	20 f4       	brcc	.+8      	; 0x7658 <__stack+0x6df9>
    7650:	ee 58       	subi	r30, 0x8E	; 142
    7652:	ff 4f       	sbci	r31, 0xFF	; 255
    7654:	0c 94 30 3b 	jmp	0x7660	; 0x7660 <__tablejump2__>
				break;
			}
		}
		break;
	}
}
    7658:	80 e0       	ldi	r24, 0x00	; 0
    765a:	90 e0       	ldi	r25, 0x00	; 0
    765c:	cf 91       	pop	r28
    765e:	08 95       	ret

00007660 <__tablejump2__>:
    7660:	ee 0f       	add	r30, r30
    7662:	ff 1f       	adc	r31, r31
    7664:	05 90       	lpm	r0, Z+
    7666:	f4 91       	lpm	r31, Z
    7668:	e0 2d       	mov	r30, r0
    766a:	09 94       	ijmp

0000766c <_exit>:
    766c:	f8 94       	cli

0000766e <__stop_program>:
    766e:	ff cf       	rjmp	.-2      	; 0x766e <__stop_program>
